(lp0
(I1
I0
I0
F0.0
I0
F0.0
I0
F0.0
I0
F0.0
I1
I0
I1
tp1
a(I2
I0
I0
F0.0
I0
F0.0
I0
F0.0
I0
F0.0
I2
I0
I2
tp2
a(I3
I0
I0
F0.0
I0
F0.0
I0
F0.0
I0
F0.0
I3
I0
I3
tp3
a(I4
I0
I0
F0.0
I0
F0.0
I0
F0.0
I0
F0.0
I4
I0
I4
tp4
a(I5
I0
I0
F0.0
I0
F0.0
I0
F0.0
I0
F0.0
I5
I0
I5
tp5
a(I6
I0
I0
F0.0
I0
F0.0
I0
F0.0
I0
F0.0
I6
I0
I6
tp6
a(I7
I0
I0
F0.0
I0
F0.0
I0
F0.0
I0
F0.0
I7
I0
I7
tp7
a(I8
I0
I0
F0.0
I0
F0.0
I0
F0.0
I0
F0.0
I8
I0
I8
tp8
a(I9
I0
I0
F0.0
I0
F0.0
I0
F0.0
I0
F0.0
I9
I0
I9
tp9
a(I10
I0
I0
F0.0
I0
F0.0
I0
F0.0
I0
F0.0
I10
I0
I10
tp10
a(I11
I0
I0
F0.0
I0
F0.0
I0
F0.0
I0
F0.0
I11
I0
I11
tp11
a(I12
I0
I0
F0.0
I0
F0.0
I0
F0.0
I0
F0.0
I12
I0
I12
tp12
a(I13
I0
I0
F0.0
I0
F0.0
I0
F0.0
I0
F0.0
I13
I0
I13
tp13
a(I14
I0
I0
F0.0
I0
F0.0
I0
F0.0
I0
F0.0
I14
I0
I14
tp14
a(I15
I0
I0
F0.0
I0
F0.0
I0
F0.0
I0
F0.0
I15
I0
I15
tp15
a(I16
I0
I0
F0.0
I0
F0.0
I0
F0.0
I0
F0.0
I16
I0
I16
tp16
a(I17
I0
I0
F0.0
I0
F0.0
I0
F0.0
I0
F0.0
I17
I0
I17
tp17
a(I18
I0
I0
F0.0
I0
F0.0
I0
F0.0
I0
F0.0
I18
I0
I18
tp18
a(I19
I0
I0
F0.0
I0
F0.0
I0
F0.0
I0
F0.0
I19
I0
I19
tp19
a(I20
I0
I0
F0.0
I0
F0.0
I0
F0.0
I0
F0.0
I20
I0
I20
tp20
a(I21
I0
I0
F0.0
I0
F0.0
I0
F0.0
I0
F0.0
I21
I0
I21
tp21
a(I22
I0
I0
F0.0
I0
F0.0
I0
F0.0
I0
F0.0
I22
I0
I22
tp22
a(I23
I0
I0
F0.0
I0
F0.0
I0
F0.0
I0
F0.0
I23
I0
I23
tp23
a(I24
I0
I0
F0.0
I0
F0.0
I0
F0.0
I0
F0.0
I24
I0
I24
tp24
a(I25
I0
I0
F0.0
I0
F0.0
I0
F0.0
I0
F0.0
I25
I0
I25
tp25
a(I26
I0
I0
F0.0
I0
F0.0
I0
F0.0
I0
F0.0
I26
I0
I26
tp26
a(I27
I0
I0
F0.0
I0
F0.0
I0
F0.0
I0
F0.0
I27
I0
I27
tp27
a(I28
I0
I0
F0.0
I0
F0.0
I0
F0.0
I0
F0.0
I28
I0
I28
tp28
a(I29
I0
I0
F0.0
I0
F0.0
I0
F0.0
I0
F0.0
I29
I0
I29
tp29
a(I30
I0
I0
F0.0
I0
F0.0
I0
F0.0
I0
F0.0
I30
I0
I30
tp30
a(I31
I0
I0
F0.0
I0
F0.0
I0
F0.0
I0
F0.0
I31
I0
I31
tp31
a(I32
I0
I0
F0.0
I0
F0.0
I0
F0.0
I0
F0.0
I32
I0
I32
tp32
a(I33
I0
I0
F0.0
I0
F0.0
I0
F0.0
I0
F0.0
I33
I0
I33
tp33
a(I34
I0
I0
F0.0
I0
F0.0
I0
F0.0
I0
F0.0
I34
I0
I34
tp34
a(I35
I0
I0
F0.0
I0
F0.0
I0
F0.0
I0
F0.0
I35
I0
I35
tp35
a(I36
I0
I0
F0.0
I0
F0.0
I0
F0.0
I0
F0.0
I36
I0
I36
tp36
a(I37
I0
I0
F0.0
I0
F0.0
I0
F0.0
I0
F0.0
I37
I0
I37
tp37
a(I38
I0
I0
F0.0
I0
F0.0
I0
F0.0
I0
F0.0
I38
I0
I38
tp38
a(I39
I0
I0
F0.0
I0
F0.0
I0
F0.0
I0
F0.0
I39
I0
I39
tp39
a(I40
I0
I0
F0.0
I0
F0.0
I0
F0.0
I0
F0.0
I40
I0
I40
tp40
a(I41
I0
I0
F0.0
I0
F0.0
I0
F0.0
I0
F0.0
I41
I0
I41
tp41
a(I42
I0
I0
F0.0
I0
F0.0
I0
F0.0
I0
F0.0
I42
I0
I42
tp42
a(I43
I0
I0
F0.0
I0
F0.0
I0
F0.0
I0
F0.0
I43
I0
I43
tp43
a(I44
I0
I0
F0.0
I0
F0.0
I0
F0.0
I0
F0.0
I44
I0
I44
tp44
a(I45
I0
I0
F0.0
I0
F0.0
I0
F0.0
I0
F0.0
I45
I0
I45
tp45
a(I46
I0
I0
F0.0
I0
F0.0
I0
F0.0
I0
F0.0
I46
I0
I46
tp46
a(I47
I0
I0
F0.0
I0
F0.0
I0
F0.0
I0
F0.0
I47
I0
I47
tp47
a(I48
I0
I0
F0.0
I0
F0.0
I0
F0.0
I0
F0.0
I48
I0
I48
tp48
a(I49
I0
I0
F0.0
I0
F0.0
I0
F0.0
I0
F0.0
I49
I0
I49
tp49
a(I50
I0
I0
F0.0
I0
F0.0
I0
F0.0
I0
F0.0
I50
I0
I50
tp50
a(I51
I0
I0
F0.0
I0
F0.0
I0
F0.0
I0
F0.0
I51
I0
I51
tp51
a(I52
I0
I0
F0.0
I0
F0.0
I0
F0.0
I0
F0.0
I52
I0
I52
tp52
a(I53
I0
I0
F0.0
I0
F0.0
I0
F0.0
I0
F0.0
I53
I0
I53
tp53
a(I54
I0
I0
F0.0
I0
F0.0
I0
F0.0
I0
F0.0
I54
I0
I54
tp54
a(I55
I0
I0
F0.0
I0
F0.0
I0
F0.0
I0
F0.0
I55
I0
I55
tp55
a(I56
I0
I0
F0.0
I0
F0.0
I0
F0.0
I0
F0.0
I56
I0
I56
tp56
a(I57
I0
I0
F0.0
I0
F0.0
I0
F0.0
I0
F0.0
I57
I0
I57
tp57
a(I58
I0
I0
F0.0
I0
F0.0
I0
F0.0
I0
F0.0
I58
I0
I58
tp58
a(I59
I0
I0
F0.0
I0
F0.0
I0
F0.0
I0
F0.0
I59
I0
I59
tp59
a(I60
I0
I0
F0.0
I0
F0.0
I0
F0.0
I0
F0.0
I60
I0
I60
tp60
a(I61
I0
I0
F0.0
I0
F0.0
I0
F0.0
I0
F0.0
I61
I0
I61
tp61
a(I62
I0
I0
F0.0
I0
F0.0
I0
F0.0
I0
F0.0
I62
I0
I62
tp62
a(I63
I0
I0
F0.0
I0
F0.0
I0
F0.0
I0
F0.0
I63
I0
I63
tp63
a(I64
I0
I0
F0.0
I0
F0.0
I0
F0.0
I0
F0.0
I64
I0
I64
tp64
a(I65
I0
I0
F0.0
I0
F0.0
I0
F0.0
I0
F0.0
I65
I0
I65
tp65
a(I66
I0
I0
F0.0
I0
F0.0
I0
F0.0
I0
F0.0
I66
I0
I66
tp66
a(I67
I0
I0
F0.0
I0
F0.0
I0
F0.0
I0
F0.0
I67
I0
I67
tp67
a(I68
I0
I0
F0.0
I0
F0.0
I0
F0.0
I0
F0.0
I68
I0
I68
tp68
a(I69
I0
I0
F0.0
I0
F0.0
I0
F0.0
I0
F0.0
I69
I0
I69
tp69
a(I70
I0
I0
F0.0
I0
F0.0
I0
F0.0
I0
F0.0
I70
I0
I70
tp70
a(I71
I0
I0
F0.0
I0
F0.0
I0
F0.0
I0
F0.0
I71
I0
I71
tp71
a(I72
I0
I0
F0.0
I0
F0.0
I0
F0.0
I0
F0.0
I72
I0
I72
tp72
a(I73
I0
I0
F0.0
I0
F0.0
I0
F0.0
I0
F0.0
I73
I0
I73
tp73
a(I74
I0
I0
F0.0
I0
F0.0
I0
F0.0
I0
F0.0
I74
I0
I74
tp74
a(I75
I0
I0
F0.0
I0
F0.0
I0
F0.0
I0
F0.0
I75
I0
I75
tp75
a(I76
I0
I0
F0.0
I0
F0.0
I0
F0.0
I0
F0.0
I76
I0
I76
tp76
a(I77
I0
I0
F0.0
I0
F0.0
I0
F0.0
I0
F0.0
I77
I0
I77
tp77
a(I78
I0
I0
F0.0
I0
F0.0
I0
F0.0
I0
F0.0
I78
I0
I78
tp78
a(I79
I0
I0
F0.0
I0
F0.0
I0
F0.0
I0
F0.0
I79
I0
I79
tp79
a(I80
I0
I0
F0.0
I0
F0.0
I0
F0.0
I0
F0.0
I80
I0
I80
tp80
a(I81
I0
I0
F0.0
I0
F0.0
I0
F0.0
I0
F0.0
I81
I0
I81
tp81
a(I82
I0
I0
F0.0
I0
F0.0
I0
F0.0
I0
F0.0
I82
I0
I82
tp82
a(I83
I0
I0
F0.0
I0
F0.0
I0
F0.0
I0
F0.0
I83
I0
I83
tp83
a(I84
I0
I0
F0.0
I0
F0.0
I0
F0.0
I0
F0.0
I84
I0
I84
tp84
a(I85
I0
I0
F0.0
I0
F0.0
I0
F0.0
I0
F0.0
I85
I0
I85
tp85
a(I86
I0
I0
F0.0
I0
F0.0
I0
F0.0
I0
F0.0
I86
I0
I86
tp86
a(I87
I0
I0
F0.0
I0
F0.0
I0
F0.0
I0
F0.0
I87
I0
I87
tp87
a(I88
I0
I0
F0.0
I0
F0.0
I0
F0.0
I0
F0.0
I88
I0
I88
tp88
a(I89
I0
I0
F0.0
I0
F0.0
I0
F0.0
I0
F0.0
I89
I0
I89
tp89
a(I90
I0
I0
F0.0
I0
F0.0
I0
F0.0
I0
F0.0
I90
I0
I90
tp90
a(I91
I0
I0
F0.0
I0
F0.0
I0
F0.0
I0
F0.0
I91
I0
I91
tp91
a(I92
I0
I0
F0.0
I0
F0.0
I0
F0.0
I0
F0.0
I92
I0
I92
tp92
a(I93
I0
I0
F0.0
I0
F0.0
I0
F0.0
I0
F0.0
I93
I0
I93
tp93
a(I94
I0
I0
F0.0
I0
F0.0
I0
F0.0
I0
F0.0
I94
I0
I94
tp94
a(I95
I0
I0
F0.0
I0
F0.0
I0
F0.0
I0
F0.0
I95
I0
I95
tp95
a(I96
I0
I0
F0.0
I0
F0.0
I0
F0.0
I0
F0.0
I96
I0
I96
tp96
a(I97
I0
I0
F0.0
I0
F0.0
I0
F0.0
I0
F0.0
I97
I0
I97
tp97
a(I98
I0
I0
F0.0
I0
F0.0
I0
F0.0
I0
F0.0
I98
I0
I98
tp98
a(I99
I0
I0
F0.0
I0
F0.0
I0
F0.0
I0
F0.0
I99
I0
I99
tp99
a(I100
I0
I0
F0.0
I0
F0.0
I0
F0.0
I0
F0.0
I100
I0
I100
tp100
a(I101
I0
I0
F0.0
I0
F0.0
I0
F0.0
I0
F0.0
I101
I0
I101
tp101
a(I102
I0
I0
F0.0
I0
F0.0
I0
F0.0
I0
F0.0
I102
I0
I102
tp102
a(I103
I0
I0
F0.0
I0
F0.0
I0
F0.0
I0
F0.0
I103
I0
I103
tp103
a(I104
I0
I0
F0.0
I0
F0.0
I0
F0.0
I0
F0.0
I104
I0
I104
tp104
a(I105
I0
I0
F0.0
I0
F0.0
I0
F0.0
I0
F0.0
I106
I1
I105
tp105
a(I106
I254
I254
F0.0
I0
F0.0
I0
F0.0
I0
F0.0
I107
I0
I106
tp106
a(I107
I646
I646
F0.0
I0
F0.0
I0
F0.0
I0
F0.0
I108
I0
I107
tp107
a(I108
I788
I788
F0.0
I0
F0.0
I0
F0.0
I0
F0.0
I109
I0
I108
tp108
a(I109
I824
I824
F0.0
I0
F0.0
I0
F0.0
I0
F0.0
I110
I0
I109
tp109
a(I110
I846
I846
F0.0
I0
F0.0
I0
F0.0
I0
F0.0
I111
I0
I110
tp110
a(I111
I876
I876
F0.0
I0
F0.0
I0
F0.0
I0
F0.0
I112
I0
I111
tp111
a(I112
I935
I935
F0.0
I0
F0.0
I0
F0.0
I0
F0.0
I113
I0
I112
tp112
a(I113
I1423
I1423
F0.0
I0
F0.0
I0
F0.0
I0
F0.0
I114
I0
I113
tp113
a(I114
I1440
I1440
F0.0
I0
F0.0
I0
F0.0
I0
F0.0
I115
I0
I114
tp114
a(I115
I1479
I1479
F0.0
I0
F0.0
I0
F0.0
I0
F0.0
I116
I0
I115
tp115
a(I116
I1511
I1511
F0.0
I0
F0.0
I0
F0.0
I0
F0.0
I117
I0
I116
tp116
a(I117
I1604
I1604
F0.0
I0
F0.0
I0
F0.0
I0
F0.0
I118
I0
I117
tp117
a(I118
I1879
I1879
F0.0
I0
F0.0
I0
F0.0
I0
F0.0
I120
I1
I118
tp118
a(I119
I1895
I1895
F0.0
I0
F0.0
I0
F0.0
I0
F0.0
I121
I0
I119
tp119
a(I120
I1911
I1911
F0.0
I0
F0.0
I0
F0.0
I0
F0.0
I122
I0
I120
tp120
a(I121
I1928
I1928
F0.0
I0
F0.0
I0
F0.0
I0
F0.0
I123
I0
I121
tp121
a(I122
I1944
I1944
F0.0
I0
F0.0
I0
F0.0
I0
F0.0
I124
I0
I122
tp122
a(I123
I2237
I2237
F0.0
I0
F0.0
I0
F0.0
I0
F0.0
I126
I1
I123
tp123
a(I124
I2318
I2318
F0.0
I0
F0.0
I0
F0.0
I0
F0.0
I127
I0
I124
tp124
a(I125
I2335
I2335
F0.0
I0
F0.0
I0
F0.0
I0
F0.0
I128
I0
I125
tp125
a(I126
I2549
I2549
F0.0
I0
F0.0
I0
F0.0
I0
F0.0
I129
I0
I126
tp126
a(I127
I2565
I2565
F0.0
I0
F0.0
I0
F0.0
I0
F0.0
I130
I0
I127
tp127
a(I128
I2862
I2862
F0.0
I0
F0.0
I0
F0.0
I0
F0.0
I132
I1
I128
tp128
a(I129
I2878
I2878
F0.0
I0
F0.0
I0
F0.0
I0
F0.0
I133
I0
I129
tp129
a(I130
I2937
I2937
F0.0
I0
F0.0
I0
F0.0
I0
F0.0
I134
I0
I130
tp130
a(I131
I3018
I3018
F0.0
I0
F0.0
I0
F0.0
I0
F0.0
I135
I0
I131
tp131
a(I132
I3201
I3201
F0.0
I0
F0.0
I0
F0.0
I0
F0.0
I137
I1
I132
tp132
a(I133
I3218
I3218
F0.0
I0
F0.0
I0
F0.0
I0
F0.0
I138
I0
I133
tp133
a(I134
I3238
I3238
F0.0
I0
F0.0
I0
F0.0
I0
F0.0
I139
I0
I134
tp134
a(I135
I3254
I3254
F0.0
I0
F0.0
I0
F0.0
I0
F0.0
I140
I0
I135
tp135
a(I136
I3296
I3296
F0.0
I0
F0.0
I0
F0.0
I0
F0.0
I141
I0
I136
tp136
a(I137
I3323
I3323
F0.0
I0
F0.0
I0
F0.0
I0
F0.0
I142
I0
I137
tp137
a(I138
I3359
I3359
F0.0
I0
F0.0
I0
F0.0
I0
F0.0
I143
I0
I138
tp138
a(I139
I3419
I3419
F0.0
I0
F0.0
I0
F0.0
I0
F0.0
I144
I0
I139
tp139
a(I140
I3464
I3464
F0.0
I0
F0.0
I0
F0.0
I0
F0.0
I145
I0
I140
tp140
a(I141
I3673
I3673
F0.0
I0
F0.0
I0
F0.0
I0
F0.0
I146
I0
I141
tp141
a(I142
I3689
I3689
F0.0
I0
F0.0
I0
F0.0
I0
F0.0
I147
I0
I142
tp142
a(I143
I3749
I3749
F0.0
I0
F0.0
I0
F0.0
I0
F0.0
I148
I0
I143
tp143
a(I144
I4026
I4026
F0.0
I0
F0.0
I0
F0.0
I0
F0.0
I149
I0
I144
tp144
a(I145
I4042
I4042
F0.0
I0
F0.0
I0
F0.0
I0
F0.0
I150
I0
I145
tp145
a(I146
I4074
I4074
F0.0
I0
F0.0
I0
F0.0
I0
F0.0
I151
I0
I146
tp146
a(I147
I4574
I4574
F0.0
I0
F0.0
I0
F0.0
I0
F0.0
I152
I0
I147
tp147
a(I148
I4603
I4603
F0.0
I0
F0.0
I0
F0.0
I0
F0.0
I153
I0
I148
tp148
a(I149
I4630
I4630
F0.0
I0
F0.0
I0
F0.0
I0
F0.0
I154
I0
I149
tp149
a(I150
I4647
I4647
F0.0
I0
F0.0
I0
F0.0
I0
F0.0
I155
I0
I150
tp150
a(I151
I4686
I4686
F0.0
I0
F0.0
I0
F0.0
I0
F0.0
I156
I0
I151
tp151
a(I152
I4703
I4703
F0.0
I0
F0.0
I0
F0.0
I0
F0.0
I157
I0
I152
tp152
a(I153
I4720
I4720
F0.0
I0
F0.0
I0
F0.0
I0
F0.0
I158
I0
I153
tp153
a(I154
I4928
I4928
F0.0
I0
F0.0
I0
F0.0
I0
F0.0
I159
I0
I154
tp154
a(I155
I5110
I5110
F0.0
I0
F0.0
I0
F0.0
I0
F0.0
I160
I0
I155
tp155
a(I156
I5154
I5154
F0.0
I0
F0.0
I0
F0.0
I0
F0.0
I161
I0
I156
tp156
a(I157
I5198
I5198
F0.0
I0
F0.0
I0
F0.0
I0
F0.0
I162
I0
I157
tp157
a(I158
I5226
I5226
F0.0
I0
F0.0
I0
F0.0
I0
F0.0
I163
I0
I158
tp158
a(I159
I5356
I5356
F0.0
I0
F0.0
I0
F0.0
I0
F0.0
I164
I0
I159
tp159
a(I160
I5372
I5372
F0.0
I0
F0.0
I0
F0.0
I0
F0.0
I165
I0
I160
tp160
a(I161
I5518
I5518
F0.0
I0
F0.0
I0
F0.0
I0
F0.0
I166
I0
I161
tp161
a(I162
I5730
I5730
F0.0
I0
F0.0
I0
F0.0
I0
F0.0
I167
I0
I162
tp162
a(I163
I5835
I5835
F0.0
I0
F0.0
I0
F0.0
I0
F0.0
I168
I0
I163
tp163
a(I164
I5896
I5896
F0.0
I0
F0.0
I0
F0.0
I0
F0.0
I169
I0
I164
tp164
a(I165
I5919
I5919
F0.0
I0
F0.0
I0
F0.0
I0
F0.0
I170
I0
I165
tp165
a(I166
I6006
I6006
F0.0
I0
F0.0
I0
F0.0
I0
F0.0
I171
I0
I166
tp166
a(I167
I6042
I6042
F0.0
I0
F0.0
I0
F0.0
I0
F0.0
I172
I0
I167
tp167
a(I168
I6150
I6150
F0.0
I0
F0.0
I0
F0.0
I0
F0.0
I173
I0
I168
tp168
a(I169
I6162
I6162
F0.0
I0
F0.0
I0
F0.0
I0
F0.0
I174
I0
I169
tp169
a(I170
I6181
I6181
F0.0
I0
F0.0
I0
F0.0
I0
F0.0
I175
I0
I170
tp170
a(I171
I6199
I6199
F0.0
I0
F0.0
I0
F0.0
I0
F0.0
I176
I0
I171
tp171
a(I172
I6268
I6268
F0.0
I0
F0.0
I0
F0.0
I0
F0.0
I177
I0
I172
tp172
a(I173
I6316
I6316
F0.0
I0
F0.0
I0
F0.0
I0
F0.0
I178
I0
I173
tp173
a(I174
I6419
I6419
F0.0
I0
F0.0
I0
F0.0
I0
F0.0
I179
I0
I174
tp174
a(I175
I6441
I6441
F0.0
I0
F0.0
I0
F0.0
I0
F0.0
I180
I0
I175
tp175
a(I176
I6792
I6792
F0.0
I0
F0.0
I0
F0.0
I0
F0.0
I181
I0
I176
tp176
a(I177
I6817
I6817
F0.0
I0
F0.0
I0
F0.0
I0
F0.0
I182
I0
I177
tp177
a(I178
I6833
I6833
F0.0
I0
F0.0
I0
F0.0
I0
F0.0
I183
I0
I178
tp178
a(I179
I7320
I7320
F0.0
I0
F0.0
I0
F0.0
I0
F0.0
I184
I0
I179
tp179
a(I180
I7341
I7341
F0.0
I0
F0.0
I0
F0.0
I0
F0.0
I185
I0
I180
tp180
a(I181
I7613
I7613
F0.0
I0
F0.0
I0
F0.0
I0
F0.0
I186
I0
I181
tp181
a(I182
I7806
I7806
F0.0
I0
F0.0
I0
F0.0
I0
F0.0
I187
I0
I182
tp182
a(I183
I7885
I7885
F0.0
I0
F0.0
I0
F0.0
I0
F0.0
I188
I0
I183
tp183
a(I184
I7915
I7915
F0.0
I0
F0.0
I0
F0.0
I0
F0.0
I189
I0
I184
tp184
a(I185
I7937
I7937
F0.0
I0
F0.0
I0
F0.0
I0
F0.0
I190
I0
I185
tp185
a(I186
I7992
I7992
F0.0
I0
F0.0
I0
F0.0
I0
F0.0
I191
I0
I186
tp186
a(I187
I8206
I8206
F0.0
I0
F0.0
I0
F0.0
I0
F0.0
I192
I0
I187
tp187
a(I188
I8351
I8351
F0.0
I0
F0.0
I0
F0.0
I0
F0.0
I193
I0
I188
tp188
a(I189
I8390
I8390
F0.0
I0
F0.0
I0
F0.0
I0
F0.0
I194
I0
I189
tp189
a(I190
I8609
I8609
F0.0
I0
F0.0
I0
F0.0
I0
F0.0
I195
I0
I190
tp190
a(I191
I8678
I8678
F0.0
I0
F0.0
I0
F0.0
I0
F0.0
I196
I0
I191
tp191
a(I192
I8694
I8694
F0.0
I0
F0.0
I0
F0.0
I0
F0.0
I197
I0
I192
tp192
a(I193
I8709
I8709
F0.0
I0
F0.0
I0
F0.0
I0
F0.0
I198
I0
I193
tp193
a(I194
I8738
I8738
F0.0
I0
F0.0
I0
F0.0
I0
F0.0
I199
I0
I194
tp194
a(I195
I8862
I8862
F0.0
I0
F0.0
I0
F0.0
I0
F0.0
I200
I0
I195
tp195
a(I196
I8995
I8995
F0.0
I0
F0.0
I0
F0.0
I0
F0.0
I201
I0
I196
tp196
a(I197
I9135
I9135
F0.0
I0
F0.0
I0
F0.0
I0
F0.0
I202
I0
I197
tp197
a(I198
I9298
I9298
F0.0
I0
F0.0
I0
F0.0
I0
F0.0
I203
I0
I198
tp198
a(I199
I9675
I9675
F0.0
I0
F0.0
I0
F0.0
I0
F0.0
I204
I0
I199
tp199
a(I200
I9726
I9726
F0.0
I0
F0.0
I0
F0.0
I0
F0.0
I205
I0
I200
tp200
a(I201
I9758
I9758
F0.05
I0
F0.0
I0
F0.0
I0
F0.0
I206
I0
I201
tp201
a(I202
I9816
I9816
F0.05
I0
F0.0
I0
F0.0
I0
F0.0
I207
I0
I202
tp202
a(I203
I9989
I9989
F0.05
I0
F0.0
I0
F0.0
I0
F0.0
I208
I0
I203
tp203
a(I204
I10033
I10033
F0.05
I0
F0.0
I0
F0.0
I0
F0.0
I209
I0
I204
tp204
a(I205
I10080
I10080
F0.04
I0
F0.0
I0
F0.0
I0
F0.0
I210
I0
I205
tp205
a(I206
I10153
I10153
F0.04
I0
F0.0
I0
F0.0
I0
F0.0
I211
I0
I206
tp206
a(I207
I10270
I10270
F0.04
I0
F0.0
I0
F0.0
I0
F0.0
I212
I0
I207
tp207
a(I208
I10294
I10294
F0.04
I0
F0.0
I0
F0.0
I0
F0.0
I213
I0
I208
tp208
a(I209
I10339
I10339
F0.04
I0
F0.0
I0
F0.0
I0
F0.0
I214
I0
I209
tp209
a(I210
I10355
I10355
F0.04
I0
F0.0
I0
F0.0
I0
F0.0
I215
I0
I210
tp210
a(I211
I10570
I10570
F0.04
I0
F0.0
I0
F0.0
I0
F0.0
I216
I0
I211
tp211
a(I212
I10610
I10610
F0.04
I0
F0.0
I0
F0.0
I0
F0.0
I217
I0
I212
tp212
a(I213
I10859
I10859
F0.04
I0
F0.0
I0
F0.0
I0
F0.0
I218
I0
I213
tp213
a(I214
I10890
I10890
F0.04
I0
F0.0
I0
F0.0
I0
F0.0
I219
I0
I214
tp214
a(I215
I11160
I11160
F0.04
I0
F0.0
I0
F0.0
I0
F0.0
I220
I0
I215
tp215
a(I216
I11348
I11348
F0.05
I0
F0.0
I0
F0.0
I0
F0.0
I222
I1
I216
tp216
a(I217
I11848
I11848
F0.05
I0
F0.0
I0
F0.0
I0
F0.0
I223
I0
I217
tp217
a(I218
I12188
I12188
F0.04
I0
F0.0
I0
F0.0
I0
F0.0
I224
I0
I218
tp218
a(I219
I12205
I12205
F0.04
I0
F0.0
I0
F0.0
I0
F0.0
I225
I0
I219
tp219
a(I220
I12354
I12354
F0.04
I0
F0.0
I0
F0.0
I0
F0.0
I226
I0
I220
tp220
a(I221
I12370
I12370
F0.04
I0
F0.0
I0
F0.0
I0
F0.0
I227
I0
I221
tp221
a(I222
I12543
I12543
F0.04
I0
F0.0
I0
F0.0
I0
F0.0
I228
I0
I222
tp222
a(I223
I12836
I12836
F0.03
I0
F0.0
I0
F0.0
I0
F0.0
I229
I0
I223
tp223
a(I224
I13097
I13097
F0.03
I0
F0.0
I0
F0.0
I0
F0.0
I230
I0
I224
tp224
a(I225
I13174
I13174
F0.03
I0
F0.0
I0
F0.0
I0
F0.0
I231
I0
I225
tp225
a(I226
I13241
I13241
F0.03
I0
F0.0
I0
F0.0
I0
F0.0
I232
I0
I226
tp226
a(I227
I13345
I13345
F0.03
I0
F0.0
I0
F0.0
I0
F0.0
I233
I0
I227
tp227
a(I228
I13503
I13503
F0.02
I0
F0.0
I0
F0.0
I0
F0.0
I234
I0
I228
tp228
a(I229
I13549
I13549
F0.02
I0
F0.0
I0
F0.0
I0
F0.0
I235
I0
I229
tp229
a(I230
I13580
I13580
F0.02
I0
F0.0
I0
F0.0
I0
F0.0
I236
I0
I230
tp230
a(I231
I13629
I13629
F0.02
I0
F0.0
I0
F0.0
I0
F0.0
I237
I0
I231
tp231
a(I232
I13669
I13669
F0.01
I0
F0.0
I0
F0.0
I0
F0.0
I238
I0
I232
tp232
a(I233
I13800
I13800
F0.01
I0
F0.0
I0
F0.0
I0
F0.0
I239
I0
I233
tp233
a(I234
I13921
I13921
F0.01
I0
F0.0
I0
F0.0
I0
F0.0
I240
I0
I234
tp234
a(I235
I13937
I13937
F0.01
I0
F0.0
I0
F0.0
I0
F0.0
I241
I0
I235
tp235
a(I236
I14048
I14048
F0.01
I0
F0.0
I0
F0.0
I0
F0.0
I242
I0
I236
tp236
a(I237
I14067
I14067
F0.01
I0
F0.0
I0
F0.0
I0
F0.0
I243
I0
I237
tp237
a(I238
I14567
I14567
F0.01
I0
F0.0
I0
F0.0
I0
F0.0
I244
I0
I238
tp238
a(I239
I15067
I15067
F0.01
I0
F0.0
I0
F0.0
I0
F0.0
I245
I0
I239
tp239
a(I240
I15114
I15114
F0.01
I0
F0.0
I0
F0.0
I0
F0.0
I246
I0
I240
tp240
a(I241
I15581
I15581
F0.01
I0
F0.0
I0
F0.0
I0
F0.0
I247
I0
I241
tp241
a(I242
I15765
I15765
F0.01
I0
F0.0
I0
F0.0
I0
F0.0
I248
I0
I242
tp242
a(I243
I15947
I15947
F0.01
I0
F0.0
I0
F0.0
I0
F0.0
I249
I0
I243
tp243
a(I244
I16001
I16001
F0.01
I0
F0.0
I0
F0.0
I0
F0.0
I250
I0
I244
tp244
a(I245
I16031
I16031
F0.01
I0
F0.0
I0
F0.0
I0
F0.0
I251
I0
I245
tp245
a(I246
I16152
I16152
F0.01
I0
F0.0
I0
F0.0
I0
F0.0
I252
I0
I246
tp246
a(I247
I16419
I16419
F0.02
I0
F0.0
I0
F0.0
I0
F0.0
I254
I1
I247
tp247
a(I248
I16645
I16645
F0.02
I0
F0.0
I0
F0.0
I0
F0.0
I255
I0
I248
tp248
a(I249
I16688
I16688
F0.02
I0
F0.0
I0
F0.0
I0
F0.0
I256
I0
I249
tp249
a(I250
I17102
I17102
F0.02
I0
F0.0
I0
F0.0
I0
F0.0
I257
I0
I250
tp250
a(I251
I17234
I17234
F0.02
I0
F0.0
I0
F0.0
I0
F0.0
I258
I0
I251
tp251
a(I252
I17268
I17268
F0.02
I0
F0.0
I0
F0.0
I0
F0.0
I259
I0
I252
tp252
a(I253
I17288
I17288
F0.02
I0
F0.0
I0
F0.0
I0
F0.0
I260
I0
I253
tp253
a(I254
I17317
I17317
F0.02
I0
F0.0
I0
F0.0
I0
F0.0
I261
I0
I254
tp254
a(I255
I17347
I17347
F0.02
I0
F0.0
I0
F0.0
I0
F0.0
I262
I0
I255
tp255
a(I256
I17363
I17363
F0.02
I0
F0.0
I0
F0.0
I0
F0.0
I263
I0
I256
tp256
a(I257
I17536
I17536
F0.03
I0
F0.0
I0
F0.0
I0
F0.0
I265
I1
I257
tp257
a(I258
I17553
I17553
F0.03
I0
F0.0
I0
F0.0
I0
F0.0
I266
I0
I258
tp258
a(I259
I17594
I17594
F0.03
I0
F0.0
I0
F0.0
I0
F0.0
I267
I0
I259
tp259
a(I260
I17803
I17803
F0.03
I0
F0.0
I0
F0.0
I0
F0.0
I268
I0
I260
tp260
a(I261
I17820
I17820
F0.03
I0
F0.0
I0
F0.0
I0
F0.0
I269
I0
I261
tp261
a(I262
I17939
I17939
F0.03
I0
F0.0
I0
F0.0
I0
F0.0
I270
I0
I262
tp262
a(I263
I18112
I18112
F0.03
I0
F0.0
I0
F0.0
I0
F0.0
I271
I0
I263
tp263
a(I264
I18165
I18165
F0.03
I0
F0.0
I0
F0.0
I0
F0.0
I272
I0
I264
tp264
a(I265
I18456
I18456
F0.03
I0
F0.0
I0
F0.0
I0
F0.0
I273
I0
I265
tp265
a(I266
I18764
I18764
F0.04
I0
F0.0
I0
F0.0
I0
F0.0
I275
I1
I266
tp266
a(I267
I18781
I18781
F0.04
I0
F0.0
I0
F0.0
I0
F0.0
I276
I0
I267
tp267
a(I268
I19231
I19231
F0.04
I0
F0.0
I0
F0.0
I0
F0.0
I277
I0
I268
tp268
a(I269
I19693
I19693
F0.04
I0
F0.0
I0
F0.0
I0
F0.0
I278
I0
I269
tp269
a(I270
I19913
I19913
F0.04
I0
F0.0
I0
F0.0
I0
F0.0
I279
I0
I270
tp270
a(I271
I19932
I19932
F0.04
I0
F0.0
I0
F0.0
I0
F0.0
I280
I0
I271
tp271
a(I272
I19948
I19948
F0.04
I0
F0.0
I0
F0.0
I0
F0.0
I281
I0
I272
tp272
a(I273
I19966
I19966
F0.04
I0
F0.0
I0
F0.0
I0
F0.0
I282
I0
I273
tp273
a(I274
I20014
I20014
F0.04
I0
F0.0
I0
F0.0
I0
F0.0
I283
I0
I274
tp274
a(I275
I20259
I20259
F0.04
I0
F0.0
I0
F0.0
I0
F0.0
I284
I0
I275
tp275
a(I276
I20759
I20759
F0.04
I0
F0.0
I0
F0.0
I0
F0.0
I285
I0
I276
tp276
a(I277
I20795
I20795
F0.04
I0
F0.0
I0
F0.0
I0
F0.0
I286
I0
I277
tp277
a(I278
I20840
I20840
F0.04
I0
F0.0
I0
F0.0
I0
F0.0
I287
I0
I278
tp278
a(I279
I20967
I20967
F0.04
I0
F0.0
I0
F0.0
I0
F0.0
I288
I0
I279
tp279
a(I280
I21467
I21467
F0.04
I0
F0.0
I0
F0.0
I0
F0.0
I289
I0
I280
tp280
a(I281
I21496
I21496
F0.04
I0
F0.0
I0
F0.0
I0
F0.0
I290
I0
I281
tp281
a(I282
I21639
I21639
F0.04
I0
F0.0
I0
F0.0
I0
F0.0
I291
I0
I282
tp282
a(I283
I22017
I22017
F0.04
I0
F0.0
I0
F0.0
I0
F0.0
I292
I0
I283
tp283
a(I284
I22165
I22165
F0.04
I0
F0.0
I0
F0.0
I0
F0.0
I293
I0
I284
tp284
a(I285
I22264
I22264
F0.04
I0
F0.0
I0
F0.0
I0
F0.0
I294
I0
I285
tp285
a(I286
I22519
I22519
F0.05
I0
F0.0
I0
F0.0
I0
F0.0
I296
I1
I286
tp286
a(I287
I22662
I22662
F0.05
I0
F0.0
I0
F0.0
I0
F0.0
I297
I0
I287
tp287
a(I288
I23162
I23162
F0.05
I0
F0.0
I0
F0.0
I0
F0.0
I298
I0
I288
tp288
a(I289
I23179
I23179
F0.05
I0
F0.0
I0
F0.0
I0
F0.0
I299
I0
I289
tp289
a(I290
I23679
I23679
F0.05
I0
F0.0
I0
F0.0
I0
F0.0
I300
I0
I290
tp290
a(I291
I24179
I24179
F0.05
I0
F0.0
I0
F0.0
I0
F0.0
I301
I0
I291
tp291
a(I292
I24679
I24679
F0.05
I0
F0.0
I0
F0.0
I0
F0.0
I302
I0
I292
tp292
a(I293
I24695
I24695
F0.05
I0
F0.0
I0
F0.0
I0
F0.0
I303
I0
I293
tp293
a(I294
I25195
I25195
F0.05
I0
F0.0
I0
F0.0
I0
F0.0
I304
I0
I294
tp294
a(I295
I25695
I25695
F0.05
I0
F0.0
I0
F0.0
I0
F0.0
I305
I0
I295
tp295
a(I296
I26086
I26086
F0.06
I0
F0.0
I0
F0.0
I0
F0.0
I307
I1
I296
tp296
a(I297
I26106
I26106
F0.06
I0
F0.0
I0
F0.0
I0
F0.0
I308
I0
I297
tp297
a(I298
I26283
I26283
F0.06
I0
F0.0
I0
F0.0
I0
F0.0
I309
I0
I298
tp298
a(I299
I26783
I26783
F0.06
I0
F0.0
I0
F0.0
I0
F0.0
I310
I0
I299
tp299
a(I300
I26799
I26799
F0.06
I0
F0.0
I0
F0.0
I0
F0.0
I311
I0
I300
tp300
a(I301
I26957
I26957
F0.06
I0
F0.0
I0
F0.0
I0
F0.0
I312
I0
I301
tp301
a(I302
I27457
I27457
F0.06
I0
F0.0
I0
F0.0
I0
F0.0
I313
I0
I302
tp302
a(I303
I27957
I27957
F0.06
I0
F0.0
I0
F0.0
I0
F0.0
I314
I0
I303
tp303
a(I304
I27974
I27974
F0.06
I0
F0.0
I0
F0.0
I0
F0.0
I315
I0
I304
tp304
a(I305
I28096
I28096
F0.07
I0
F0.0
I0
F0.0
I0
F0.0
I317
I1
I305
tp305
a(I306
I28596
I28596
F0.07
I0
F0.0
I0
F0.0
I0
F0.0
I318
I0
I306
tp306
a(I307
I28655
I28655
F0.07
I0
F0.0
I0
F0.0
I0
F0.0
I319
I0
I307
tp307
a(I308
I29083
I29083
F0.07
I0
F0.0
I0
F0.0
I0
F0.0
I320
I0
I308
tp308
a(I309
I29530
I29530
F0.07
I0
F0.0
I0
F0.0
I0
F0.0
I321
I0
I309
tp309
a(I310
I29713
I29713
F0.07
I0
F0.0
I0
F0.0
I0
F0.0
I322
I0
I310
tp310
a(I311
I30213
I30213
F0.07
I0
F0.0
I0
F0.0
I0
F0.0
I323
I0
I311
tp311
a(I312
I30230
I30230
F0.07
I0
F0.0
I0
F0.0
I0
F0.0
I324
I0
I312
tp312
a(I313
I30286
I30286
F0.07
I0
F0.0
I0
F0.0
I0
F0.0
I325
I0
I313
tp313
a(I314
I30786
I30786
F0.07
I0
F0.0
I0
F0.0
I0
F0.0
I326
I0
I314
tp314
a(I315
I30994
I30994
F0.07
I0
F0.0
I0
F0.0
I0
F0.0
I327
I0
I315
tp315
a(I316
I31058
I31058
F0.07
I0
F0.0
I0
F0.0
I0
F0.0
I329
I1
I316
tp316
a(I317
I31558
I31558
F0.07
I0
F0.0
I0
F0.0
I0
F0.0
I330
I0
I317
tp317
a(I318
I32058
I32058
F0.07
I0
F0.0
I0
F0.0
I0
F0.0
I331
I0
I318
tp318
a(I319
I32143
I32143
F0.07
I0
F0.0
I0
F0.0
I0
F0.0
I332
I0
I319
tp319
a(I320
I32254
I32254
F0.07
I0
F0.0
I0
F0.0
I0
F0.0
I333
I0
I320
tp320
a(I321
I32270
I32270
F0.07
I0
F0.0
I0
F0.0
I0
F0.0
I334
I0
I321
tp321
a(I322
I32770
I32770
F0.07
I0
F0.0
I0
F0.0
I0
F0.0
I335
I0
I322
tp322
a(I323
I33046
I33046
F0.07
I0
F0.0
I0
F0.0
I0
F0.0
I336
I0
I323
tp323
a(I324
I33138
I33138
F0.07
I0
F0.0
I0
F0.0
I0
F0.0
I337
I0
I324
tp324
a(I325
I33272
I33272
F0.07
I0
F0.0
I0
F0.0
I0
F0.0
I338
I0
I325
tp325
a(I326
I33359
I33359
F0.07
I0
F0.0
I0
F0.0
I0
F0.0
I339
I0
I326
tp326
a(I327
I33416
I33416
F0.07
I0
F0.0
I0
F0.0
I0
F0.0
I340
I0
I327
tp327
a(I328
I33916
I33916
F0.07
I0
F0.0
I0
F0.0
I0
F0.0
I341
I0
I328
tp328
a(I329
I33972
I33972
F0.07
I0
F0.0
I0
F0.0
I0
F0.0
I342
I0
I329
tp329
a(I330
I34034
I34034
F0.07
I0
F0.0
I0
F0.0
I0
F0.0
I343
I0
I330
tp330
a(I331
I34534
I34534
F0.07
I0
F0.0
I0
F0.0
I0
F0.0
I344
I0
I331
tp331
a(I332
I35034
I35034
F0.07
I0
F0.0
I0
F0.0
I0
F0.0
I345
I0
I332
tp332
a(I333
I35313
I35313
F0.07
I0
F0.0
I0
F0.0
I0
F0.0
I346
I0
I333
tp333
a(I334
I35813
I35813
F0.07
I0
F0.0
I0
F0.0
I0
F0.0
I347
I0
I334
tp334
a(I335
I36313
I36313
F0.07
I0
F0.0
I0
F0.0
I0
F0.0
I348
I0
I335
tp335
a(I336
I36368
I36368
F0.08
I0
F0.0
I0
F0.0
I0
F0.0
I350
I1
I336
tp336
a(I337
I36452
I36452
F0.09
I0
F0.0
I0
F0.0
I0
F0.0
I352
I1
I337
tp337
a(I338
I36952
I36952
F0.09
I0
F0.0
I0
F0.0
I0
F0.0
I353
I0
I338
tp338
a(I339
I37080
I37080
F0.1
I0
F0.0
I0
F0.0
I0
F0.0
I355
I1
I339
tp339
a(I340
I37132
I37132
F0.11
I0
F0.0
I0
F0.0
I0
F0.0
I357
I1
I340
tp340
a(I341
I37186
I37186
F0.12
I0
F0.0
I0
F0.0
I0
F0.0
I359
I1
I341
tp341
a(I342
I37265
I37265
F0.13
I0
F0.0
I0
F0.0
I0
F0.0
I361
I1
I342
tp342
a(I343
I37363
I37363
F0.14
I0
F0.0
I0
F0.0
I0
F0.0
I363
I1
I343
tp343
a(I344
I37419
I37419
F0.15
I0
F0.0
I0
F0.0
I0
F0.0
I365
I1
I344
tp344
a(I345
I37484
I37484
F0.16
I0
F0.0
I0
F0.0
I0
F0.0
I367
I1
I345
tp345
a(I346
I37500
I37500
F0.16
I0
F0.0
I0
F0.0
I0
F0.0
I368
I0
I346
tp346
a(I347
I37563
I37563
F0.16
I0
F0.0
I0
F0.0
I0
F0.0
I370
I1
I347
tp347
a(I348
I38063
I38063
F0.16
I0
F0.0
I0
F0.0
I0
F0.0
I371
I0
I348
tp348
a(I349
I38210
I38210
F0.17
I0
F0.0
I0
F0.0
I0
F0.0
I373
I1
I349
tp349
a(I350
I38357
I38357
F0.18
I0
F0.0
I0
F0.0
I0
F0.0
I375
I1
I350
tp350
a(I351
I38416
I38416
F0.19
I0
F0.0
I0
F0.0
I0
F0.0
I377
I1
I351
tp351
a(I352
I38497
I38497
F0.2
I0
F0.0
I0
F0.0
I0
F0.0
I379
I1
I352
tp352
a(I353
I38653
I38653
F0.21
I0
F0.0
I0
F0.0
I0
F0.0
I381
I1
I353
tp353
a(I354
I38699
I38699
F0.22
I0
F0.0
I0
F0.0
I0
F0.0
I383
I1
I354
tp354
a(I355
I38794
I38794
F0.23
I0
F0.0
I0
F0.0
I0
F0.0
I385
I1
I355
tp355
a(I356
I38918
I38918
F0.24
I0
F0.0
I0
F0.0
I0
F0.0
I387
I1
I356
tp356
a(I357
I39418
I39418
F0.23
I0
F0.0
I0
F0.0
I0
F0.0
I388
I0
I357
tp357
a(I358
I39581
I39581
F0.24
I0
F0.0
I0
F0.0
I0
F0.0
I390
I1
I358
tp358
a(I359
I39681
I39681
F0.25
I0
F0.0
I0
F0.0
I0
F0.0
I392
I1
I359
tp359
a(I360
I39940
I39940
F0.26
I0
F0.0
I0
F0.0
I0
F0.0
I394
I1
I360
tp360
a(I361
I40008
I40008
F0.26
I0
F0.0
I0
F0.0
I0
F0.0
I395
I0
I361
tp361
a(I362
I40076
I40076
F0.27
I0
F0.0
I0
F0.0
I0
F0.0
I397
I1
I362
tp362
a(I363
I40223
I40223
F0.28
I0
F0.0
I0
F0.0
I0
F0.0
I399
I1
I363
tp363
a(I364
I40288
I40288
F0.29
I0
F0.0
I0
F0.0
I0
F0.0
I401
I1
I364
tp364
a(I365
I40354
I40354
F0.3
I0
F0.0
I0
F0.0
I0
F0.0
I403
I1
I365
tp365
a(I366
I40618
I40618
F0.3
I0
F0.0
I0
F0.0
I0
F0.0
I405
I1
I366
tp366
a(I367
I40780
I40780
F0.31
I0
F0.0
I0
F0.0
I0
F0.0
I407
I1
I367
tp367
a(I368
I40831
I40831
F0.32
I0
F0.0
I0
F0.0
I0
F0.0
I409
I1
I368
tp368
a(I369
I40979
I40979
F0.33
I0
F0.0
I0
F0.0
I0
F0.0
I411
I1
I369
tp369
a(I370
I41033
I41033
F0.34
I0
F0.0
I0
F0.0
I0
F0.0
I413
I1
I370
tp370
a(I371
I41068
I41068
F0.34
I0
F0.0
I0
F0.0
I0
F0.0
I414
I0
I371
tp371
a(I372
I41123
I41123
F0.35
I0
F0.0
I0
F0.0
I0
F0.0
I416
I1
I372
tp372
a(I373
I41270
I41270
F0.36
I0
F0.0
I0
F0.0
I0
F0.0
I418
I1
I373
tp373
a(I374
I41600
I41600
F0.36
I0
F0.0
I0
F0.0
I0
F0.0
I419
I0
I374
tp374
a(I375
I41698
I41698
F0.37
I0
F0.0
I0
F0.0
I0
F0.0
I421
I1
I375
tp375
a(I376
I41764
I41764
F0.37
I0
F0.0
I0
F0.0
I0
F0.0
I422
I0
I376
tp376
a(I377
I41888
I41888
F0.38
I0
F0.0
I0
F0.0
I0
F0.0
I424
I1
I377
tp377
a(I378
I41935
I41935
F0.39
I0
F0.0
I0
F0.0
I0
F0.0
I426
I1
I378
tp378
a(I379
I41989
I41989
F0.4
I0
F0.0
I0
F0.0
I0
F0.0
I428
I1
I379
tp379
a(I380
I42489
I42489
F0.4
I0
F0.0
I0
F0.0
I0
F0.0
I429
I0
I380
tp380
a(I381
I42534
I42534
F0.41
I0
F0.0
I0
F0.0
I0
F0.0
I431
I1
I381
tp381
a(I382
I42710
I42710
F0.42
I0
F0.0
I0
F0.0
I0
F0.0
I433
I1
I382
tp382
a(I383
I43210
I43210
F0.42
I0
F0.0
I0
F0.0
I0
F0.0
I434
I0
I383
tp383
a(I384
I43233
I43233
F0.42
I0
F0.0
I0
F0.0
I0
F0.0
I435
I0
I384
tp384
a(I385
I43733
I43733
F0.42
I0
F0.0
I0
F0.0
I0
F0.0
I436
I0
I385
tp385
a(I386
I43791
I43791
F0.42
I0
F0.0
I0
F0.0
I0
F0.0
I438
I1
I386
tp386
a(I387
I43900
I43900
F0.42
I0
F0.0
I0
F0.0
I0
F0.0
I439
I0
I387
tp387
a(I388
I44400
I44400
F0.42
I0
F0.0
I0
F0.0
I0
F0.0
I440
I0
I388
tp388
a(I389
I44460
I44460
F0.43
I0
F0.0
I0
F0.0
I0
F0.0
I442
I1
I389
tp389
a(I390
I44511
I44511
F0.44
I0
F0.0
I0
F0.0
I0
F0.0
I444
I1
I390
tp390
a(I391
I44577
I44577
F0.45
I0
F0.0
I0
F0.0
I0
F0.0
I446
I1
I391
tp391
a(I392
I44598
I44598
F0.45
I0
F0.0
I0
F0.0
I0
F0.0
I447
I0
I392
tp392
a(I393
I44646
I44646
F0.46
I0
F0.0
I0
F0.0
I0
F0.0
I449
I1
I393
tp393
a(I394
I44677
I44677
F0.46
I0
F0.0
I0
F0.0
I0
F0.0
I450
I0
I394
tp394
a(I395
I44753
I44753
F0.47
I0
F0.0
I0
F0.0
I0
F0.0
I452
I1
I395
tp395
a(I396
I44773
I44773
F0.46
I0
F0.0
I0
F0.0
I0
F0.0
I453
I0
I396
tp396
a(I397
I44821
I44821
F0.47
I0
F0.0
I0
F0.0
I0
F0.0
I455
I1
I397
tp397
a(I398
I44878
I44878
F0.48
I0
F0.0
I0
F0.0
I0
F0.0
I457
I1
I398
tp398
a(I399
I44896
I44896
F0.48
I0
F0.0
I0
F0.0
I0
F0.0
I458
I0
I399
tp399
a(I400
I45047
I45047
F0.49
I0
F0.0
I0
F0.0
I0
F0.0
I460
I1
I400
tp400
a(I401
I45092
I45092
F0.5
I0
F0.0
I0
F0.0
I0
F0.0
I462
I1
I401
tp401
a(I402
I45115
I45115
F0.5
I0
F0.0
I0
F0.0
I0
F0.0
I463
I0
I402
tp402
a(I403
I45182
I45182
F0.51
I0
F0.0
I0
F0.0
I0
F0.0
I465
I1
I403
tp403
a(I404
I45242
I45242
F0.52
I0
F0.0
I0
F0.0
I0
F0.0
I467
I1
I404
tp404
a(I405
I45273
I45273
F0.52
I0
F0.0
I0
F0.0
I0
F0.0
I469
I1
I405
tp405
a(I406
I45330
I45330
F0.53
I0
F0.0
I0
F0.0
I0
F0.0
I471
I1
I406
tp406
a(I407
I45383
I45383
F0.54
I0
F0.0
I0
F0.0
I0
F0.0
I473
I1
I407
tp407
a(I408
I45440
I45440
F0.55
I0
F0.0
I0
F0.0
I0
F0.0
I475
I1
I408
tp408
a(I409
I45496
I45496
F0.56
I0
F0.0
I0
F0.0
I0
F0.0
I477
I1
I409
tp409
a(I410
I45545
I45545
F0.57
I0
F0.0
I0
F0.0
I0
F0.0
I479
I1
I410
tp410
a(I411
I45594
I45594
F0.58
I0
F0.0
I0
F0.0
I0
F0.0
I481
I1
I411
tp411
a(I412
I45656
I45656
F0.59
I0
F0.0
I0
F0.0
I0
F0.0
I483
I1
I412
tp412
a(I413
I45706
I45706
F0.6
I0
F0.0
I0
F0.0
I0
F0.0
I485
I1
I413
tp413
a(I414
I45768
I45768
F0.61
I0
F0.0
I0
F0.0
I0
F0.0
I487
I1
I414
tp414
a(I415
I45824
I45824
F0.62
I0
F0.0
I0
F0.0
I0
F0.0
I489
I1
I415
tp415
a(I416
I45873
I45873
F0.62
I0
F0.0
I0
F0.0
I0
F0.0
I491
I1
I416
tp416
a(I417
I45932
I45932
F0.63
I0
F0.0
I0
F0.0
I0
F0.0
I493
I1
I417
tp417
a(I418
I45994
I45994
F0.64
I0
F0.0
I0
F0.0
I0
F0.0
I495
I1
I418
tp418
a(I419
I46054
I46054
F0.65
I0
F0.0
I0
F0.0
I0
F0.0
I497
I1
I419
tp419
a(I420
I46106
I46106
F0.66
I0
F0.0
I0
F0.0
I0
F0.0
I499
I1
I420
tp420
a(I421
I46179
I46179
F0.66
I0
F0.0
I0
F0.0
I0
F0.0
I500
I0
I421
tp421
a(I422
I46221
I46221
F0.67
I0
F0.0
I0
F0.0
I0
F0.0
I502
I1
I422
tp422
a(I423
I46281
I46281
F0.68
I0
F0.0
I0
F0.0
I0
F0.0
I504
I1
I423
tp423
a(I424
I46340
I46340
F0.69
I0
F0.0
I0
F0.0
I0
F0.0
I506
I1
I424
tp424
a(I425
I46383
I46383
F0.7
I0
F0.0
I0
F0.0
I0
F0.0
I508
I1
I425
tp425
a(I426
I46435
I46435
F0.71
I0
F0.0
I0
F0.0
I0
F0.0
I510
I1
I426
tp426
a(I427
I46489
I46489
F0.72
I0
F0.0
I0
F0.0
I0
F0.0
I512
I1
I427
tp427
a(I428
I46530
I46530
F0.73
I0
F0.0
I0
F0.0
I0
F0.0
I514
I1
I428
tp428
a(I429
I46576
I46576
F0.74
I0
F0.0
I0
F0.0
I0
F0.0
I516
I1
I429
tp429
a(I430
I46620
I46620
F0.75
I0
F0.0
I0
F0.0
I0
F0.0
I518
I1
I430
tp430
a(I431
I46682
I46682
F0.76
I0
F0.0
I0
F0.0
I0
F0.0
I520
I1
I431
tp431
a(I432
I46736
I46736
F0.77
I0
F0.0
I0
F0.0
I0
F0.0
I522
I1
I432
tp432
a(I433
I46791
I46791
F0.78
I0
F0.0
I0
F0.0
I0
F0.0
I524
I1
I433
tp433
a(I434
I46835
I46835
F0.79
I0
F0.0
I0
F0.0
I0
F0.0
I526
I1
I434
tp434
a(I435
I46986
I46986
F0.8
I0
F0.0
I0
F0.0
I0
F0.0
I528
I1
I435
tp435
a(I436
I47050
I47050
F0.8
I0
F0.0
I0
F0.0
I0
F0.0
I530
I1
I436
tp436
a(I437
I47199
I47199
F0.8
I0
F0.0
I0
F0.0
I0
F0.0
I532
I1
I437
tp437
a(I438
I47246
I47246
F0.81
I0
F0.0
I0
F0.0
I0
F0.0
I534
I1
I438
tp438
a(I439
I47295
I47295
F0.81
I0
F0.0
I0
F0.0
I0
F0.0
I536
I1
I439
tp439
a(I440
I47326
I47326
F0.81
I0
F0.0
I0
F0.0
I0
F0.0
I538
I1
I440
tp440
a(I441
I47362
I47362
F0.81
I0
F0.0
I0
F0.0
I0
F0.0
I540
I1
I441
tp441
a(I442
I47393
I47393
F0.81
I0
F0.0
I0
F0.0
I0
F0.0
I542
I1
I442
tp442
a(I443
I47393
I47393
F0.81
I0
F0.0
I0
F0.0
I0
F0.0
I543
I0
I443
tp443
a(I444
I47393
I47393
F0.81
I0
F0.0
I0
F0.0
I0
F0.0
I544
I0
I444
tp444
a(I445
I47393
I47393
F0.81
I0
F0.0
I0
F0.0
I0
F0.0
I545
I0
I445
tp445
a(I446
I47393
I47393
F0.81
I0
F0.0
I0
F0.0
I0
F0.0
I546
I0
I446
tp446
a(I447
I47393
I47393
F0.81
I0
F0.0
I0
F0.0
I0
F0.0
I547
I0
I447
tp447
a(I448
I47393
I47393
F0.81
I0
F0.0
I0
F0.0
I0
F0.0
I548
I0
I448
tp448
a(I449
I47393
I47393
F0.81
I0
F0.0
I0
F0.0
I0
F0.0
I549
I0
I449
tp449
a(I450
I47393
I47393
F0.81
I0
F0.0
I0
F0.0
I0
F0.0
I550
I0
I450
tp450
a(I451
I47393
I47393
F0.81
I0
F0.0
I0
F0.0
I0
F0.0
I551
I0
I451
tp451
a(I452
I47393
I47393
F0.81
I0
F0.0
I0
F0.0
I0
F0.0
I552
I0
I452
tp452
a(I453
I47393
I47393
F0.81
I0
F0.0
I0
F0.0
I0
F0.0
I553
I0
I453
tp453
a(I454
I47393
I47393
F0.81
I0
F0.0
I0
F0.0
I0
F0.0
I554
I0
I454
tp454
a(I455
I47393
I47393
F0.81
I0
F0.0
I0
F0.0
I0
F0.0
I555
I0
I455
tp455
a(I456
I47393
I47393
F0.81
I0
F0.0
I0
F0.0
I0
F0.0
I556
I0
I456
tp456
a(I457
I47393
I47393
F0.81
I0
F0.0
I0
F0.0
I0
F0.0
I557
I0
I457
tp457
a(I458
I47393
I47393
F0.81
I0
F0.0
I0
F0.0
I0
F0.0
I558
I0
I458
tp458
a(I459
I47393
I47393
F0.81
I0
F0.0
I0
F0.0
I0
F0.0
I559
I0
I459
tp459
a(I460
I47393
I47393
F0.81
I0
F0.0
I0
F0.0
I0
F0.0
I560
I0
I460
tp460
a(I461
I47447
I47447
F0.81
I0
F0.0
I0
F0.0
I0
F0.0
I562
I1
I461
tp461
a(I462
I47499
I47499
F0.81
I0
F0.0
I0
F0.0
I0
F0.0
I564
I1
I462
tp462
a(I463
I47545
I47545
F0.81
I0
F0.0
I0
F0.0
I0
F0.0
I566
I1
I463
tp463
a(I464
I47591
I47591
F0.82
I0
F0.0
I0
F0.0
I0
F0.0
I568
I1
I464
tp464
a(I465
I47640
I47640
F0.82
I0
F0.0
I0
F0.0
I0
F0.0
I570
I1
I465
tp465
a(I466
I47688
I47688
F0.83
I0
F0.0
I0
F0.0
I0
F0.0
I572
I1
I466
tp466
a(I467
I47732
I47732
F0.83
I0
F0.0
I0
F0.0
I0
F0.0
I574
I1
I467
tp467
a(I468
I47779
I47779
F0.83
I0
F0.0
I0
F0.0
I0
F0.0
I576
I1
I468
tp468
a(I469
I47828
I47828
F0.83
I0
F0.0
I0
F0.0
I0
F0.0
I578
I1
I469
tp469
a(I470
I47876
I47876
F0.83
I0
F0.0
I0
F0.0
I0
F0.0
I580
I1
I470
tp470
a(I471
I47923
I47923
F0.83
I0
F0.0
I0
F0.0
I0
F0.0
I582
I1
I471
tp471
a(I472
I47967
I47967
F0.83
I0
F0.0
I0
F0.0
I0
F0.0
I584
I1
I472
tp472
a(I473
I48039
I48039
F0.83
I0
F0.0
I0
F0.0
I0
F0.0
I586
I1
I473
tp473
a(I474
I48074
I48074
F0.83
I0
F0.0
I0
F0.0
I0
F0.0
I588
I1
I474
tp474
a(I475
I48124
I48124
F0.84
I0
F0.0
I0
F0.0
I0
F0.0
I590
I1
I475
tp475
a(I476
I48166
I48166
F0.84
I0
F0.0
I0
F0.0
I0
F0.0
I592
I1
I476
tp476
a(I477
I48194
I48194
F0.84
I0
F0.0
I0
F0.0
I0
F0.0
I594
I1
I477
tp477
a(I478
I48234
I48234
F0.84
I0
F0.0
I0
F0.0
I0
F0.0
I596
I1
I478
tp478
a(I479
I48271
I48271
F0.85
I0
F0.0
I0
F0.0
I0
F0.0
I598
I1
I479
tp479
a(I480
I48325
I48325
F0.85
I0
F0.0
I0
F0.0
I0
F0.0
I600
I1
I480
tp480
a(I481
I48367
I48367
F0.85
I0
F0.0
I0
F0.0
I0
F0.0
I602
I1
I481
tp481
a(I482
I48402
I48402
F0.85
I0
F0.0
I0
F0.0
I0
F0.0
I604
I1
I482
tp482
a(I483
I48439
I48439
F0.85
I0
F0.0
I0
F0.0
I0
F0.0
I606
I1
I483
tp483
a(I484
I48483
I48483
F0.85
I0
F0.0
I0
F0.0
I0
F0.0
I608
I1
I484
tp484
a(I485
I48546
I48546
F0.85
I0
F0.0
I0
F0.0
I0
F0.0
I610
I1
I485
tp485
a(I486
I48581
I48581
F0.85
I0
F0.0
I0
F0.0
I0
F0.0
I612
I1
I486
tp486
a(I487
I48614
I48614
F0.85
I0
F0.0
I0
F0.0
I0
F0.0
I614
I1
I487
tp487
a(I488
I48747
I48747
F0.85
I0
F0.0
I0
F0.0
I0
F0.0
I616
I1
I488
tp488
a(I489
I48791
I48791
F0.86
I0
F0.0
I0
F0.0
I0
F0.0
I618
I1
I489
tp489
a(I490
I48817
I48817
F0.86
I0
F0.0
I0
F0.0
I0
F0.0
I620
I1
I490
tp490
a(I491
I48854
I48854
F0.86
I0
F0.0
I0
F0.0
I0
F0.0
I622
I1
I491
tp491
a(I492
I48916
I48916
F0.87
I0
F0.0
I0
F0.0
I0
F0.0
I624
I1
I492
tp492
a(I493
I48979
I48979
F0.87
I0
F0.0
I0
F0.0
I0
F0.0
I626
I1
I493
tp493
a(I494
I49010
I49010
F0.88
I0
F0.0
I0
F0.0
I0
F0.0
I628
I1
I494
tp494
a(I495
I49048
I49048
F0.88
I0
F0.0
I0
F0.0
I0
F0.0
I630
I1
I495
tp495
a(I496
I49084
I49084
F0.88
I0
F0.0
I0
F0.0
I0
F0.0
I632
I1
I496
tp496
a(I497
I49114
I49114
F0.88
I0
F0.0
I0
F0.0
I0
F0.0
I634
I1
I497
tp497
a(I498
I49151
I49151
F0.89
I0
F0.0
I0
F0.0
I0
F0.0
I636
I1
I498
tp498
a(I499
I49180
I49180
F0.89
I0
F0.0
I0
F0.0
I0
F0.0
I638
I1
I499
tp499
a(I500
I49285
I49285
F0.89
I0
F0.0
I0
F0.0
I0
F0.0
I640
I1
I500
tp500
a(I501
I49346
I49346
F0.9
I0
F0.0
I0
F0.0
I0
F0.0
I642
I1
I501
tp501
a(I502
I49470
I49470
F0.91
I0
F0.0
I0
F0.0
I0
F0.0
I644
I1
I502
tp502
a(I503
I49497
I49497
F0.92
I0
F0.0
I0
F0.0
I0
F0.0
I646
I1
I503
tp503
a(I504
I49525
I49525
F0.92
I0
F0.0
I0
F0.0
I0
F0.0
I648
I1
I504
tp504
a(I505
I49557
I49557
F0.93
I0
F0.0
I0
F0.0
I0
F0.0
I650
I1
I505
tp505
a(I506
I49666
I49666
F0.94
I0
F0.0
I0
F0.0
I0
F0.0
I652
I1
I506
tp506
a(I507
I49757
I49757
F0.94
I0
F0.0
I0
F0.0
I0
F0.0
I654
I1
I507
tp507
a(I508
I49818
I49818
F0.94
I0
F0.0
I0
F0.0
I0
F0.0
I656
I1
I508
tp508
a(I509
I49847
I49847
F0.94
I0
F0.0
I0
F0.0
I0
F0.0
I658
I1
I509
tp509
a(I510
I49949
I49949
F0.95
I0
F0.0
I0
F0.0
I0
F0.0
I660
I1
I510
tp510
a(I511
I50012
I50012
F0.95
I0
F0.0
I0
F0.0
I0
F0.0
I662
I1
I511
tp511
a(I512
I50122
I50122
F0.96
I0
F0.0
I0
F0.0
I0
F0.0
I664
I1
I512
tp512
a(I513
I50149
I50149
F0.96
I0
F0.0
I0
F0.0
I0
F0.0
I666
I1
I513
tp513
a(I514
I50183
I50183
F0.97
I0
F0.0
I0
F0.0
I0
F0.0
I668
I1
I514
tp514
a(I515
I50183
I50183
F0.97
I0
F0.0
I0
F0.0
I0
F0.0
I670
I1
I515
tp515
a(I516
I50183
I50183
F0.97
I0
F0.0
I0
F0.0
I0
F0.0
I672
I1
I516
tp516
a(I517
I50183
I50183
F0.98
I0
F0.0
I0
F0.0
I0
F0.0
I674
I1
I517
tp517
a(I518
I50183
I50183
F0.98
I0
F0.0
I0
F0.0
I0
F0.0
I676
I1
I518
tp518
a(I519
I50183
I50183
F0.98
I0
F0.0
I0
F0.0
I0
F0.0
I678
I1
I519
tp519
a(I520
I50183
I50183
F0.99
I0
F0.0
I0
F0.0
I0
F0.0
I680
I1
I520
tp520
a(I521
I50183
I50183
F0.99
I0
F0.0
I0
F0.0
I0
F0.0
I682
I1
I521
tp521
a(I522
I50183
I50183
F0.99
I0
F0.0
I0
F0.0
I0
F0.0
I684
I1
I522
tp522
a(I523
I50183
I50183
F0.99
I0
F0.0
I0
F0.0
I0
F0.0
I686
I1
I523
tp523
a(I524
I50183
I50183
F0.99
I0
F0.0
I0
F0.0
I0
F0.0
I688
I1
I524
tp524
a(I525
I50183
I50183
F0.99
I0
F0.0
I0
F0.0
I0
F0.0
I690
I1
I525
tp525
a(I526
I50183
I50183
F0.99
I0
F0.0
I0
F0.0
I0
F0.0
I692
I1
I526
tp526
a(I527
I50183
I50183
F0.99
I0
F0.0
I0
F0.0
I0
F0.0
I694
I1
I527
tp527
a(I528
I50183
I50183
F0.99
I0
F0.0
I0
F0.0
I0
F0.0
I696
I1
I528
tp528
a(I529
I50183
I50183
F0.99
I0
F0.0
I0
F0.0
I0
F0.0
I698
I1
I529
tp529
a(I530
I50183
I50183
F0.99
I0
F0.0
I0
F0.0
I0
F0.0
I700
I1
I530
tp530
a(I531
I50183
I50183
F0.99
I0
F0.0
I0
F0.0
I0
F0.0
I702
I1
I531
tp531
a(I532
I50183
I50183
F0.99
I0
F0.0
I0
F0.0
I0
F0.0
I704
I1
I532
tp532
a(I533
I50183
I50183
F0.99
I0
F0.0
I0
F0.0
I0
F0.0
I706
I1
I533
tp533
a(I534
I50183
I50183
F0.99
I0
F0.0
I0
F0.0
I0
F0.0
I708
I1
I534
tp534
a(I535
I50183
I50183
F0.99
I0
F0.0
I0
F0.0
I0
F0.0
I710
I1
I535
tp535
a(I536
I50183
I50183
F0.99
I0
F0.0
I0
F0.0
I0
F0.0
I712
I1
I536
tp536
a(I537
I50183
I50183
F0.99
I0
F0.0
I0
F0.0
I0
F0.0
I714
I1
I537
tp537
a(I538
I50183
I50183
F0.99
I0
F0.0
I0
F0.0
I0
F0.0
I716
I1
I538
tp538
a(I539
I50183
I50183
F1.0
I0
F0.0
I0
F0.0
I0
F0.0
I718
I1
I539
tp539
a(I540
I50183
I50183
F1.0
I0
F0.0
I0
F0.0
I0
F0.0
I720
I1
I540
tp540
a(I541
I50183
I50183
F1.0
I0
F0.0
I0
F0.0
I0
F0.0
I722
I1
I541
tp541
a(I542
I50183
I50183
F1.0
I0
F0.0
I0
F0.0
I0
F0.0
I724
I1
I542
tp542
a(I543
I50183
I50183
F1.0
I0
F0.0
I0
F0.0
I0
F0.0
I725
I0
I543
tp543
a(I544
I50183
I50183
F1.0
I0
F0.0
I0
F0.0
I0
F0.0
I726
I0
I544
tp544
a(I545
I50183
I50183
F1.0
I0
F0.0
I0
F0.0
I0
F0.0
I727
I0
I545
tp545
a(I546
I50183
I50183
F1.0
I0
F0.0
I0
F0.0
I0
F0.0
I728
I0
I546
tp546
a(I547
I50183
I50183
F1.0
I0
F0.0
I0
F0.0
I0
F0.0
I729
I0
I547
tp547
a(I548
I50183
I50183
F1.0
I0
F0.0
I0
F0.0
I0
F0.0
I730
I0
I548
tp548
a(I549
I50183
I50183
F1.0
I0
F0.0
I0
F0.0
I0
F0.0
I731
I0
I549
tp549
a(I550
I50183
I50183
F1.0
I0
F0.0
I0
F0.0
I0
F0.0
I732
I0
I550
tp550
a(I551
I50183
I50183
F1.0
I0
F0.0
I0
F0.0
I0
F0.0
I733
I0
I551
tp551
a(I552
I50183
I50183
F1.0
I0
F0.0
I0
F0.0
I0
F0.0
I734
I0
I552
tp552
a(I553
I50183
I50183
F1.0
I0
F0.0
I0
F0.0
I0
F0.0
I735
I0
I553
tp553
a(I554
I50183
I50183
F1.0
I0
F0.0
I0
F0.0
I0
F0.0
I736
I0
I554
tp554
a(I555
I50183
I50183
F1.0
I0
F0.0
I0
F0.0
I0
F0.0
I737
I0
I555
tp555
a(I556
I50183
I50183
F1.0
I0
F0.0
I0
F0.0
I0
F0.0
I738
I0
I556
tp556
a(I557
I50183
I50183
F1.0
I0
F0.0
I0
F0.0
I0
F0.0
I739
I0
I557
tp557
a(I558
I50183
I50183
F1.0
I0
F0.0
I0
F0.0
I0
F0.0
I740
I0
I558
tp558
a(I559
I50183
I50183
F1.0
I0
F0.0
I0
F0.0
I0
F0.0
I741
I0
I559
tp559
a(I560
I50183
I50183
F1.0
I0
F0.0
I0
F0.0
I0
F0.0
I742
I0
I560
tp560
a(I561
I50183
I50183
F1.0
I0
F0.0
I0
F0.0
I0
F0.0
I744
I1
I561
tp561
a(I562
I50183
I50183
F1.0
I0
F0.0
I0
F0.0
I0
F0.0
I746
I1
I562
tp562
a(I563
I50183
I50183
F1.0
I0
F0.0
I0
F0.0
I0
F0.0
I748
I1
I563
tp563
a(I564
I50183
I50183
F1.0
I0
F0.0
I0
F0.0
I0
F0.0
I750
I1
I564
tp564
a(I565
I50183
I50183
F1.0
I0
F0.0
I0
F0.0
I0
F0.0
I752
I1
I565
tp565
a(I566
I50183
I50183
F1.0
I0
F0.0
I0
F0.0
I0
F0.0
I754
I1
I566
tp566
a(I567
I50183
I50183
F1.0
I0
F0.0
I0
F0.0
I0
F0.0
I756
I1
I567
tp567
a(I568
I50183
I50183
F1.0
I0
F0.0
I0
F0.0
I0
F0.0
I758
I1
I568
tp568
a(I569
I50183
I50183
F1.0
I0
F0.0
I0
F0.0
I0
F0.0
I760
I1
I569
tp569
a(I570
I50183
I50183
F1.0
I0
F0.0
I0
F0.0
I0
F0.0
I762
I1
I570
tp570
a(I571
I50183
I50183
F1.0
I0
F0.0
I0
F0.0
I0
F0.0
I764
I1
I571
tp571
a(I572
I50183
I50183
F1.0
I0
F0.0
I0
F0.0
I0
F0.0
I766
I1
I572
tp572
a(I573
I50183
I50183
F1.0
I0
F0.0
I0
F0.0
I0
F0.0
I768
I1
I573
tp573
a(I574
I50183
I50183
F1.0
I0
F0.0
I0
F0.0
I0
F0.0
I770
I1
I574
tp574
a(I575
I50183
I50183
F1.0
I0
F0.0
I0
F0.0
I0
F0.0
I772
I1
I575
tp575
a(I576
I50183
I50183
F1.0
I0
F0.0
I0
F0.0
I0
F0.0
I774
I1
I576
tp576
a(I577
I50183
I50183
F1.0
I0
F0.0
I0
F0.0
I0
F0.0
I776
I1
I577
tp577
a(I578
I50183
I50183
F1.0
I0
F0.0
I0
F0.0
I0
F0.0
I778
I1
I578
tp578
a(I579
I50183
I50183
F1.0
I0
F0.0
I0
F0.0
I0
F0.0
I780
I1
I579
tp579
a(I580
I50183
I50183
F1.0
I0
F0.0
I0
F0.0
I0
F0.0
I782
I1
I580
tp580
a(I581
I50183
I50183
F1.0
I0
F0.0
I0
F0.0
I0
F0.0
I784
I1
I581
tp581
a(I582
I50183
I50183
F1.0
I0
F0.0
I0
F0.0
I0
F0.0
I786
I1
I582
tp582
a(I583
I50183
I50183
F1.0
I0
F0.0
I0
F0.0
I0
F0.0
I788
I1
I583
tp583
a(I584
I50183
I50183
F1.0
I0
F0.0
I0
F0.0
I0
F0.0
I790
I1
I584
tp584
a(I585
I50183
I50183
F1.0
I0
F0.0
I0
F0.0
I0
F0.0
I792
I1
I585
tp585
a(I586
I50183
I50183
F1.0
I0
F0.0
I0
F0.0
I0
F0.0
I794
I1
I586
tp586
a(I587
I50183
I50183
F1.0
I0
F0.0
I0
F0.0
I0
F0.0
I796
I1
I587
tp587
a(I588
I50183
I50183
F1.0
I0
F0.0
I0
F0.0
I0
F0.0
I798
I1
I588
tp588
a(I589
I50183
I50183
F1.0
I0
F0.0
I0
F0.0
I0
F0.0
I800
I1
I589
tp589
a(I590
I50183
I50183
F1.0
I0
F0.0
I0
F0.0
I0
F0.0
I802
I1
I590
tp590
a(I591
I50183
I50183
F1.0
I0
F0.0
I0
F0.0
I0
F0.0
I804
I1
I591
tp591
a(I592
I50183
I50183
F1.0
I0
F0.0
I0
F0.0
I0
F0.0
I806
I1
I592
tp592
a(I593
I50183
I50183
F1.0
I0
F0.0
I0
F0.0
I0
F0.0
I808
I1
I593
tp593
a(I594
I50183
I50183
F1.0
I0
F0.0
I0
F0.0
I0
F0.0
I810
I1
I594
tp594
a(I595
I50183
I50183
F1.0
I0
F0.0
I0
F0.0
I0
F0.0
I812
I1
I595
tp595
a(I596
I50183
I50183
F1.0
I0
F0.0
I0
F0.0
I0
F0.0
I814
I1
I596
tp596
a(I597
I50183
I50183
F1.0
I0
F0.0
I0
F0.0
I0
F0.0
I816
I1
I597
tp597
a(I598
I50183
I50183
F1.0
I0
F0.0
I0
F0.0
I0
F0.0
I818
I1
I598
tp598
a(I599
I50183
I50183
F1.0
I0
F0.0
I0
F0.0
I0
F0.0
I820
I1
I599
tp599
a(I600
I50183
I50183
F1.0
I0
F0.0
I0
F0.0
I0
F0.0
I822
I1
I600
tp600
a(I601
I50183
I50183
F1.0
I0
F0.0
I0
F0.0
I0
F0.0
I824
I1
I601
tp601
a(I602
I50183
I50183
F1.0
I0
F0.0
I0
F0.0
I0
F0.0
I826
I1
I602
tp602
a(I603
I50183
I50183
F1.0
I0
F0.0
I0
F0.0
I0
F0.0
I828
I1
I603
tp603
a(I604
I50183
I50183
F1.0
I0
F0.0
I0
F0.0
I0
F0.0
I830
I1
I604
tp604
a(I605
I50183
I50183
F1.0
I0
F0.0
I0
F0.0
I0
F0.0
I832
I1
I605
tp605
a(I606
I50183
I50183
F1.0
I0
F0.0
I0
F0.0
I0
F0.0
I834
I1
I606
tp606
a(I607
I50183
I50183
F1.0
I0
F0.0
I0
F0.0
I0
F0.0
I836
I1
I607
tp607
a(I608
I50183
I50183
F1.0
I0
F0.0
I0
F0.0
I0
F0.0
I838
I1
I608
tp608
a(I609
I50183
I50183
F1.0
I0
F0.0
I0
F0.0
I0
F0.0
I840
I1
I609
tp609
a(I610
I50183
I50183
F1.0
I0
F0.0
I0
F0.0
I0
F0.0
I842
I1
I610
tp610
a(I611
I50183
I50183
F1.0
I0
F0.0
I0
F0.0
I0
F0.0
I844
I1
I611
tp611
a(I612
I50183
I50183
F1.0
I0
F0.0
I0
F0.0
I0
F0.0
I846
I1
I612
tp612
a(I613
I50183
I50183
F1.0
I0
F0.0
I0
F0.0
I0
F0.0
I848
I1
I613
tp613
a(I614
I50183
I50183
F1.0
I0
F0.0
I0
F0.0
I0
F0.0
I850
I1
I614
tp614
a(I615
I50183
I50183
F1.0
I0
F0.0
I0
F0.0
I0
F0.0
I852
I1
I615
tp615
a(I616
I50183
I50183
F1.0
I0
F0.0
I0
F0.0
I0
F0.0
I854
I1
I616
tp616
a(I617
I50183
I50183
F1.0
I0
F0.0
I0
F0.0
I0
F0.0
I856
I1
I617
tp617
a(I618
I50183
I50183
F1.0
I0
F0.0
I0
F0.0
I0
F0.0
I858
I1
I618
tp618
a(I619
I50183
I50183
F1.0
I0
F0.0
I0
F0.0
I0
F0.0
I860
I1
I619
tp619
a(I620
I50183
I50183
F1.0
I0
F0.0
I0
F0.0
I0
F0.0
I862
I1
I620
tp620
a(I621
I50183
I50183
F1.0
I0
F0.0
I0
F0.0
I0
F0.0
I864
I1
I621
tp621
a(I622
I50183
I50183
F1.0
I0
F0.0
I0
F0.0
I0
F0.0
I866
I1
I622
tp622
a(I623
I50183
I50183
F1.0
I0
F0.0
I0
F0.0
I0
F0.0
I868
I1
I623
tp623
a(I624
I50183
I50183
F1.0
I0
F0.0
I0
F0.0
I0
F0.0
I870
I1
I624
tp624
a(I625
I50183
I50183
F1.0
I0
F0.0
I0
F0.0
I0
F0.0
I872
I1
I625
tp625
a(I626
I50183
I50183
F1.0
I0
F0.0
I0
F0.0
I0
F0.0
I874
I1
I626
tp626
a(I627
I50183
I50183
F1.0
I0
F0.0
I0
F0.0
I0
F0.0
I876
I1
I627
tp627
a(I628
I50183
I50183
F1.0
I0
F0.0
I0
F0.0
I0
F0.0
I878
I1
I628
tp628
a(I629
I50183
I50183
F1.0
I0
F0.0
I0
F0.0
I0
F0.0
I880
I1
I629
tp629
a(I630
I50183
I50183
F1.0
I0
F0.0
I0
F0.0
I0
F0.0
I882
I1
I630
tp630
a(I631
I50183
I50183
F1.0
I0
F0.0
I0
F0.0
I0
F0.0
I884
I1
I631
tp631
a(I632
I50183
I50183
F1.0
I0
F0.0
I0
F0.0
I0
F0.0
I886
I1
I632
tp632
a(I633
I50183
I50183
F1.0
I0
F0.0
I0
F0.0
I0
F0.0
I888
I1
I633
tp633
a(I634
I50183
I50183
F1.0
I0
F0.0
I0
F0.0
I0
F0.0
I890
I1
I634
tp634
a(I635
I50183
I50183
F1.0
I0
F0.0
I0
F0.0
I0
F0.0
I892
I1
I635
tp635
a(I636
I50183
I50183
F1.0
I0
F0.0
I0
F0.0
I0
F0.0
I894
I1
I636
tp636
a(I637
I50183
I50183
F1.0
I0
F0.0
I0
F0.0
I0
F0.0
I896
I1
I637
tp637
a(I638
I50183
I50183
F1.0
I0
F0.0
I0
F0.0
I0
F0.0
I898
I1
I638
tp638
a(I639
I50183
I50183
F1.0
I0
F0.0
I0
F0.0
I0
F0.0
I900
I1
I639
tp639
a(I640
I50183
I50183
F1.0
I0
F0.0
I0
F0.0
I0
F0.0
I902
I1
I640
tp640
a(I641
I50183
I50183
F1.0
I0
F0.0
I0
F0.0
I0
F0.0
I904
I1
I641
tp641
a(I642
I50183
I50183
F1.0
I0
F0.0
I0
F0.0
I0
F0.0
I906
I1
I642
tp642
a(I643
I50183
I50183
F1.0
I0
F0.0
I0
F0.0
I0
F0.0
I907
I0
I643
tp643
a(I644
I50183
I50183
F1.0
I0
F0.0
I0
F0.0
I0
F0.0
I908
I0
I644
tp644
a(I645
I50183
I50183
F1.0
I0
F0.0
I0
F0.0
I0
F0.0
I909
I0
I645
tp645
a(I646
I50183
I50183
F1.0
I0
F0.0
I0
F0.0
I0
F0.0
I910
I0
I646
tp646
a(I647
I50183
I50183
F1.0
I0
F0.0
I0
F0.0
I0
F0.0
I911
I0
I647
tp647
a(I648
I50183
I50183
F1.0
I0
F0.0
I0
F0.0
I0
F0.0
I912
I0
I648
tp648
a(I649
I50183
I50183
F1.0
I0
F0.0
I0
F0.0
I0
F0.0
I913
I0
I649
tp649
a(I650
I50183
I50183
F1.0
I0
F0.0
I0
F0.0
I0
F0.0
I914
I0
I650
tp650
a(I651
I50183
I50183
F1.0
I0
F0.0
I0
F0.0
I0
F0.0
I915
I0
I651
tp651
a(I652
I50183
I50183
F1.0
I0
F0.0
I0
F0.0
I0
F0.0
I916
I0
I652
tp652
a(I653
I50183
I50183
F1.0
I0
F0.0
I0
F0.0
I0
F0.0
I917
I0
I653
tp653
a(I654
I50183
I50183
F1.0
I0
F0.0
I0
F0.0
I0
F0.0
I918
I0
I654
tp654
a(I655
I50183
I50183
F1.0
I0
F0.0
I0
F0.0
I0
F0.0
I919
I0
I655
tp655
a(I656
I50183
I50183
F1.0
I0
F0.0
I0
F0.0
I0
F0.0
I920
I0
I656
tp656
a(I657
I50183
I50183
F1.0
I0
F0.0
I0
F0.0
I0
F0.0
I921
I0
I657
tp657
a(I658
I50183
I50183
F1.0
I0
F0.0
I0
F0.0
I0
F0.0
I922
I0
I658
tp658
a(I659
I50183
I50183
F1.0
I0
F0.0
I0
F0.0
I0
F0.0
I923
I0
I659
tp659
a(I660
I50183
I50183
F1.0
I0
F0.0
I0
F0.0
I0
F0.0
I924
I0
I660
tp660
a(I661
I50183
I50183
F1.0
I0
F0.0
I0
F0.0
I0
F0.0
I926
I1
I661
tp661
a(I662
I50183
I50183
F1.0
I0
F0.0
I0
F0.0
I0
F0.0
I928
I1
I662
tp662
a(I663
I50183
I50183
F1.0
I0
F0.0
I0
F0.0
I0
F0.0
I930
I1
I663
tp663
a(I664
I50183
I50183
F1.0
I0
F0.0
I0
F0.0
I0
F0.0
I932
I1
I664
tp664
a(I665
I50183
I50183
F1.0
I0
F0.0
I0
F0.0
I0
F0.0
I934
I1
I665
tp665
a(I666
I50183
I50183
F1.0
I0
F0.0
I0
F0.0
I0
F0.0
I936
I1
I666
tp666
a(I667
I50183
I50183
F1.0
I0
F0.0
I0
F0.0
I0
F0.0
I938
I1
I667
tp667
a(I668
I50183
I50183
F1.0
I0
F0.0
I0
F0.0
I0
F0.0
I940
I1
I668
tp668
a(I669
I50183
I50183
F1.0
I0
F0.0
I0
F0.0
I0
F0.0
I942
I1
I669
tp669
a(I670
I50183
I50183
F1.0
I0
F0.0
I0
F0.0
I0
F0.0
I944
I1
I670
tp670
a(I671
I50183
I50183
F1.0
I0
F0.0
I0
F0.0
I0
F0.0
I946
I1
I671
tp671
a(I672
I50183
I50183
F1.0
I0
F0.0
I0
F0.0
I0
F0.0
I948
I1
I672
tp672
a(I673
I50183
I50183
F1.0
I0
F0.0
I0
F0.0
I0
F0.0
I950
I1
I673
tp673
a(I674
I50183
I50183
F1.0
I0
F0.0
I0
F0.0
I0
F0.0
I952
I1
I674
tp674
a(I675
I50183
I50183
F1.0
I0
F0.0
I0
F0.0
I0
F0.0
I954
I1
I675
tp675
a(I676
I50183
I50183
F1.0
I0
F0.0
I0
F0.0
I0
F0.0
I956
I1
I676
tp676
a(I677
I50183
I50183
F1.0
I0
F0.0
I0
F0.0
I0
F0.0
I958
I1
I677
tp677
a(I678
I50183
I50183
F1.0
I0
F0.0
I0
F0.0
I0
F0.0
I960
I1
I678
tp678
a(I679
I50183
I50183
F1.0
I0
F0.0
I0
F0.0
I0
F0.0
I962
I1
I679
tp679
a(I680
I50183
I50183
F1.0
I0
F0.0
I0
F0.0
I0
F0.0
I964
I1
I680
tp680
a(I681
I50183
I50183
F1.0
I0
F0.0
I0
F0.0
I0
F0.0
I966
I1
I681
tp681
a(I682
I50183
I50183
F1.0
I0
F0.0
I0
F0.0
I0
F0.0
I968
I1
I682
tp682
a(I683
I50183
I50183
F1.0
I0
F0.0
I0
F0.0
I0
F0.0
I970
I1
I683
tp683
a(I684
I50183
I50183
F1.0
I0
F0.0
I0
F0.0
I0
F0.0
I972
I1
I684
tp684
a(I685
I50183
I50183
F1.0
I0
F0.0
I0
F0.0
I0
F0.0
I974
I1
I685
tp685
a(I686
I50183
I50183
F1.0
I0
F0.0
I0
F0.0
I0
F0.0
I976
I1
I686
tp686
a(I687
I50183
I50183
F1.0
I0
F0.0
I0
F0.0
I0
F0.0
I978
I1
I687
tp687
a(I688
I50183
I50183
F1.0
I0
F0.0
I0
F0.0
I0
F0.0
I980
I1
I688
tp688
a(I689
I50183
I50183
F1.0
I0
F0.0
I0
F0.0
I0
F0.0
I982
I1
I689
tp689
a(I690
I50183
I50183
F1.0
I0
F0.0
I0
F0.0
I0
F0.0
I984
I1
I690
tp690
a(I691
I50183
I50183
F1.0
I0
F0.0
I0
F0.0
I0
F0.0
I986
I1
I691
tp691
a(I692
I50183
I50183
F1.0
I0
F0.0
I0
F0.0
I0
F0.0
I988
I1
I692
tp692
a(I693
I50183
I50183
F1.0
I0
F0.0
I0
F0.0
I0
F0.0
I990
I1
I693
tp693
a(I694
I50183
I50183
F1.0
I0
F0.0
I0
F0.0
I0
F0.0
I992
I1
I694
tp694
a(I695
I50183
I50183
F1.0
I0
F0.0
I0
F0.0
I0
F0.0
I994
I1
I695
tp695
a(I696
I50183
I50183
F1.0
I0
F0.0
I0
F0.0
I0
F0.0
I996
I1
I696
tp696
a(I697
I50183
I50183
F1.0
I0
F0.0
I0
F0.0
I0
F0.0
I998
I1
I697
tp697
a(I698
I50183
I50183
F1.0
I0
F0.0
I0
F0.0
I0
F0.0
I1000
I1
I698
tp698
a(I699
I50183
I50183
F1.0
I0
F0.0
I0
F0.0
I0
F0.0
I1002
I1
I699
tp699
a(I700
I50183
I50183
F1.0
I0
F0.0
I0
F0.0
I0
F0.0
I1004
I1
I700
tp700
a(I701
I50183
I50183
F1.0
I0
F0.0
I0
F0.0
I0
F0.0
I1006
I1
I701
tp701
a(I702
I50183
I50183
F1.0
I0
F0.0
I0
F0.0
I0
F0.0
I1008
I1
I702
tp702
a(I703
I50183
I50183
F1.0
I0
F0.0
I0
F0.0
I0
F0.0
I1010
I1
I703
tp703
a(I704
I50183
I50183
F1.0
I0
F0.0
I0
F0.0
I0
F0.0
I1012
I1
I704
tp704
a(I705
I50183
I50183
F1.0
I0
F0.0
I0
F0.0
I0
F0.0
I1014
I1
I705
tp705
a(I706
I50183
I50183
F1.0
I0
F0.0
I0
F0.0
I0
F0.0
I1016
I1
I706
tp706
a(I707
I50183
I50183
F1.0
I0
F0.0
I0
F0.0
I0
F0.0
I1018
I1
I707
tp707
a(I708
I50183
I50183
F1.0
I0
F0.0
I0
F0.0
I0
F0.0
I1020
I1
I708
tp708
a(I709
I50183
I50183
F1.0
I0
F0.0
I0
F0.0
I0
F0.0
I1022
I1
I709
tp709
a(I710
I50183
I50183
F1.0
I0
F0.0
I0
F0.0
I0
F0.0
I1024
I1
I710
tp710
a(I711
I50183
I50183
F1.0
I0
F0.0
I0
F0.0
I0
F0.0
I1026
I1
I711
tp711
a(I712
I50183
I50183
F1.0
I0
F0.0
I0
F0.0
I0
F0.0
I1028
I1
I712
tp712
a(I713
I50183
I50183
F1.0
I0
F0.0
I0
F0.0
I0
F0.0
I1030
I1
I713
tp713
a(I714
I50183
I50183
F1.0
I0
F0.0
I0
F0.0
I0
F0.0
I1032
I1
I714
tp714
a(I715
I50183
I50183
F1.0
I0
F0.0
I0
F0.0
I0
F0.0
I1034
I1
I715
tp715
a(I716
I50183
I50183
F1.0
I0
F0.0
I0
F0.0
I0
F0.0
I1036
I1
I716
tp716
a(I717
I50183
I50183
F1.0
I0
F0.0
I0
F0.0
I0
F0.0
I1038
I1
I717
tp717
a(I718
I50183
I50183
F1.0
I0
F0.0
I0
F0.0
I0
F0.0
I1040
I1
I718
tp718
a(I719
I50183
I50183
F1.0
I0
F0.0
I0
F0.0
I0
F0.0
I1042
I1
I719
tp719
a(I720
I50183
I50183
F1.0
I0
F0.0
I0
F0.0
I0
F0.0
I1044
I1
I720
tp720
a(I721
I50183
I50183
F1.0
I0
F0.0
I0
F0.0
I0
F0.0
I1046
I1
I721
tp721
a(I722
I50183
I50183
F1.0
I0
F0.0
I0
F0.0
I0
F0.0
I1048
I1
I722
tp722
a(I723
I50183
I50183
F1.0
I0
F0.0
I0
F0.0
I0
F0.0
I1050
I1
I723
tp723
a(I724
I50183
I50183
F1.0
I0
F0.0
I0
F0.0
I0
F0.0
I1052
I1
I724
tp724
a(I725
I50183
I50183
F1.0
I0
F0.0
I0
F0.0
I0
F0.0
I1054
I1
I725
tp725
a(I726
I50183
I50183
F1.0
I0
F0.0
I0
F0.0
I0
F0.0
I1056
I1
I726
tp726
a(I727
I50183
I50183
F1.0
I0
F0.0
I0
F0.0
I0
F0.0
I1058
I1
I727
tp727
a(I728
I50183
I50183
F1.0
I0
F0.0
I0
F0.0
I0
F0.0
I1060
I1
I728
tp728
a(I729
I50183
I50183
F1.0
I0
F0.0
I0
F0.0
I0
F0.0
I1062
I1
I729
tp729
a(I730
I50183
I50183
F1.0
I0
F0.0
I0
F0.0
I0
F0.0
I1064
I1
I730
tp730
a(I731
I50183
I50183
F1.0
I0
F0.0
I0
F0.0
I0
F0.0
I1066
I1
I731
tp731
a(I732
I50183
I50183
F1.0
I0
F0.0
I0
F0.0
I0
F0.0
I1068
I1
I732
tp732
a(I733
I50183
I50183
F1.0
I0
F0.0
I0
F0.0
I0
F0.0
I1070
I1
I733
tp733
a(I734
I50183
I50183
F1.0
I0
F0.0
I0
F0.0
I0
F0.0
I1072
I1
I734
tp734
a(I735
I50183
I50183
F1.0
I0
F0.0
I0
F0.0
I0
F0.0
I1074
I1
I735
tp735
a(I736
I50183
I50183
F1.0
I0
F0.0
I0
F0.0
I0
F0.0
I1076
I1
I736
tp736
a(I737
I50183
I50183
F1.0
I0
F0.0
I0
F0.0
I0
F0.0
I1078
I1
I737
tp737
a(I738
I50183
I50183
F1.0
I0
F0.0
I0
F0.0
I0
F0.0
I1080
I1
I738
tp738
a(I739
I50183
I50183
F1.0
I0
F0.0
I0
F0.0
I0
F0.0
I1082
I1
I739
tp739
a(I740
I50183
I50183
F1.0
I0
F0.0
I0
F0.0
I0
F0.0
I1084
I1
I740
tp740
a(I741
I50183
I50183
F1.0
I0
F0.0
I0
F0.0
I0
F0.0
I1086
I1
I741
tp741
a(I742
I50183
I50183
F1.0
I0
F0.0
I0
F0.0
I0
F0.0
I1088
I1
I742
tp742
a(I743
I50183
I50183
F1.0
I0
F0.0
I0
F0.0
I0
F0.0
I1089
I0
I743
tp743
a(I744
I50183
I50183
F1.0
I0
F0.0
I0
F0.0
I0
F0.0
I1090
I0
I744
tp744
a(I745
I50183
I50183
F1.0
I0
F0.0
I0
F0.0
I0
F0.0
I1091
I0
I745
tp745
a(I746
I50183
I50183
F1.0
I0
F0.0
I0
F0.0
I0
F0.0
I1092
I0
I746
tp746
a(I747
I50183
I50183
F1.0
I0
F0.0
I0
F0.0
I0
F0.0
I1093
I0
I747
tp747
a(I748
I50183
I50183
F1.0
I0
F0.0
I0
F0.0
I0
F0.0
I1094
I0
I748
tp748
a(I749
I50183
I50183
F1.0
I0
F0.0
I0
F0.0
I0
F0.0
I1095
I0
I749
tp749
a(I750
I50183
I50183
F1.0
I0
F0.0
I0
F0.0
I0
F0.0
I1096
I0
I750
tp750
a(I751
I50183
I50183
F1.0
I0
F0.0
I0
F0.0
I0
F0.0
I1097
I0
I751
tp751
a(I752
I50183
I50183
F1.0
I0
F0.0
I0
F0.0
I0
F0.0
I1098
I0
I752
tp752
a(I753
I50183
I50183
F1.0
I0
F0.0
I0
F0.0
I0
F0.0
I1099
I0
I753
tp753
a(I754
I50183
I50183
F1.0
I0
F0.0
I0
F0.0
I0
F0.0
I1100
I0
I754
tp754
a(I755
I50183
I50183
F1.0
I0
F0.0
I0
F0.0
I0
F0.0
I1101
I0
I755
tp755
a(I756
I50183
I50183
F1.0
I0
F0.0
I0
F0.0
I0
F0.0
I1102
I0
I756
tp756
a(I757
I50183
I50183
F1.0
I0
F0.0
I0
F0.0
I0
F0.0
I1103
I0
I757
tp757
a(I758
I50183
I50183
F1.0
I0
F0.0
I0
F0.0
I0
F0.0
I1104
I0
I758
tp758
a(I759
I50183
I50183
F1.0
I0
F0.0
I0
F0.0
I0
F0.0
I1105
I0
I759
tp759
a(I760
I50183
I50183
F1.0
I0
F0.0
I0
F0.0
I0
F0.0
I1106
I0
I760
tp760
a(I761
I50183
I50183
F1.0
I0
F0.0
I0
F0.0
I0
F0.0
I1108
I1
I761
tp761
a(I762
I50183
I50183
F1.0
I0
F0.0
I0
F0.0
I0
F0.0
I1110
I1
I762
tp762
a(I763
I50183
I50183
F1.0
I0
F0.0
I0
F0.0
I0
F0.0
I1112
I1
I763
tp763
a(I764
I50183
I50183
F1.0
I0
F0.0
I0
F0.0
I0
F0.0
I1114
I1
I764
tp764
a(I765
I50183
I50183
F1.0
I0
F0.0
I0
F0.0
I0
F0.0
I1116
I1
I765
tp765
a(I766
I50183
I50183
F1.0
I0
F0.0
I0
F0.0
I0
F0.0
I1118
I1
I766
tp766
a(I767
I50183
I50183
F1.0
I0
F0.0
I0
F0.0
I0
F0.0
I1120
I1
I767
tp767
a(I768
I50183
I50183
F1.0
I0
F0.0
I0
F0.0
I0
F0.0
I1122
I1
I768
tp768
a(I769
I50183
I50183
F1.0
I0
F0.0
I0
F0.0
I0
F0.0
I1124
I1
I769
tp769
a(I770
I50183
I50183
F1.0
I0
F0.0
I0
F0.0
I0
F0.0
I1126
I1
I770
tp770
a(I771
I50183
I50183
F1.0
I0
F0.0
I0
F0.0
I0
F0.0
I1128
I1
I771
tp771
a(I772
I50183
I50183
F1.0
I0
F0.0
I0
F0.0
I0
F0.0
I1130
I1
I772
tp772
a(I773
I50183
I50183
F1.0
I0
F0.0
I0
F0.0
I0
F0.0
I1132
I1
I773
tp773
a(I774
I50183
I50183
F1.0
I0
F0.0
I0
F0.0
I0
F0.0
I1134
I1
I774
tp774
a(I775
I50183
I50183
F1.0
I0
F0.0
I0
F0.0
I0
F0.0
I1136
I1
I775
tp775
a(I776
I50183
I50183
F1.0
I0
F0.0
I0
F0.0
I0
F0.0
I1138
I1
I776
tp776
a(I777
I50183
I50183
F1.0
I0
F0.0
I0
F0.0
I0
F0.0
I1140
I1
I777
tp777
a(I778
I50183
I50183
F1.0
I0
F0.0
I0
F0.0
I0
F0.0
I1142
I1
I778
tp778
a(I779
I50183
I50183
F1.0
I0
F0.0
I0
F0.0
I0
F0.0
I1144
I1
I779
tp779
a(I780
I50183
I50183
F1.0
I0
F0.0
I0
F0.0
I0
F0.0
I1146
I1
I780
tp780
a(I781
I50183
I50183
F1.0
I0
F0.0
I0
F0.0
I0
F0.0
I1148
I1
I781
tp781
a(I782
I50183
I50183
F1.0
I0
F0.0
I0
F0.0
I0
F0.0
I1150
I1
I782
tp782
a(I783
I50183
I50183
F1.0
I0
F0.0
I0
F0.0
I0
F0.0
I1152
I1
I783
tp783
a(I784
I50183
I50183
F1.0
I0
F0.0
I0
F0.0
I0
F0.0
I1154
I1
I784
tp784
a(I785
I50183
I50183
F1.0
I0
F0.0
I0
F0.0
I0
F0.0
I1156
I1
I785
tp785
a(I786
I50183
I50183
F1.0
I0
F0.0
I0
F0.0
I0
F0.0
I1158
I1
I786
tp786
a(I787
I50183
I50183
F1.0
I0
F0.0
I0
F0.0
I0
F0.0
I1160
I1
I787
tp787
a(I788
I50183
I50183
F1.0
I0
F0.0
I0
F0.0
I0
F0.0
I1162
I1
I788
tp788
a(I789
I50183
I50183
F1.0
I0
F0.0
I0
F0.0
I0
F0.0
I1164
I1
I789
tp789
a(I790
I50183
I50183
F1.0
I0
F0.0
I0
F0.0
I0
F0.0
I1166
I1
I790
tp790
a(I791
I50183
I50183
F1.0
I0
F0.0
I0
F0.0
I0
F0.0
I1168
I1
I791
tp791
a(I792
I50183
I50183
F1.0
I0
F0.0
I0
F0.0
I0
F0.0
I1170
I1
I792
tp792
a(I793
I50183
I50183
F1.0
I0
F0.0
I0
F0.0
I0
F0.0
I1172
I1
I793
tp793
a(I794
I50183
I50183
F1.0
I0
F0.0
I0
F0.0
I0
F0.0
I1174
I1
I794
tp794
a(I795
I50183
I50183
F1.0
I0
F0.0
I0
F0.0
I0
F0.0
I1176
I1
I795
tp795
a(I796
I50183
I50183
F1.0
I0
F0.0
I0
F0.0
I0
F0.0
I1178
I1
I796
tp796
a(I797
I50183
I50183
F1.0
I0
F0.0
I0
F0.0
I0
F0.0
I1180
I1
I797
tp797
a(I798
I50183
I50183
F1.0
I0
F0.0
I0
F0.0
I0
F0.0
I1182
I1
I798
tp798
a(I799
I50183
I50183
F1.0
I0
F0.0
I0
F0.0
I0
F0.0
I1184
I1
I799
tp799
a(I800
I50183
I50183
F1.0
I0
F0.0
I0
F0.0
I0
F0.0
I1186
I1
I800
tp800
a(I801
I50183
I50183
F1.0
I0
F0.0
I0
F0.0
I0
F0.0
I1188
I1
I801
tp801
a(I802
I50183
I50183
F1.0
I0
F0.0
I0
F0.0
I0
F0.0
I1190
I1
I802
tp802
a(I803
I50183
I50183
F1.0
I0
F0.0
I0
F0.0
I0
F0.0
I1192
I1
I803
tp803
a(I804
I50183
I50183
F1.0
I0
F0.0
I0
F0.0
I0
F0.0
I1194
I1
I804
tp804
a(I805
I50183
I50183
F1.0
I0
F0.0
I0
F0.0
I0
F0.0
I1196
I1
I805
tp805
a(I806
I50183
I50183
F1.0
I0
F0.0
I0
F0.0
I0
F0.0
I1198
I1
I806
tp806
a(I807
I50183
I50183
F1.0
I0
F0.0
I0
F0.0
I0
F0.0
I1200
I1
I807
tp807
a(I808
I50183
I50183
F1.0
I0
F0.0
I0
F0.0
I0
F0.0
I1202
I1
I808
tp808
a(I809
I50183
I50183
F1.0
I0
F0.0
I0
F0.0
I0
F0.0
I1204
I1
I809
tp809
a(I810
I50183
I50183
F1.0
I0
F0.0
I0
F0.0
I0
F0.0
I1206
I1
I810
tp810
a(I811
I50183
I50183
F1.0
I0
F0.0
I0
F0.0
I0
F0.0
I1208
I1
I811
tp811
a(I812
I50183
I50183
F1.0
I0
F0.0
I0
F0.0
I0
F0.0
I1210
I1
I812
tp812
a(I813
I50183
I50183
F1.0
I0
F0.0
I0
F0.0
I0
F0.0
I1212
I1
I813
tp813
a(I814
I50183
I50183
F1.0
I0
F0.0
I0
F0.0
I0
F0.0
I1214
I1
I814
tp814
a(I815
I50183
I50183
F1.0
I0
F0.0
I0
F0.0
I0
F0.0
I1216
I1
I815
tp815
a(I816
I50183
I50183
F1.0
I0
F0.0
I0
F0.0
I0
F0.0
I1218
I1
I816
tp816
a(I817
I50183
I50183
F1.0
I0
F0.0
I0
F0.0
I0
F0.0
I1220
I1
I817
tp817
a(I818
I50183
I50183
F1.0
I0
F0.0
I0
F0.0
I0
F0.0
I1222
I1
I818
tp818
a(I819
I50183
I50183
F1.0
I0
F0.0
I0
F0.0
I0
F0.0
I1224
I1
I819
tp819
a(I820
I50183
I50183
F1.0
I0
F0.0
I0
F0.0
I0
F0.0
I1226
I1
I820
tp820
a(I821
I50183
I50183
F1.0
I0
F0.0
I0
F0.0
I0
F0.0
I1228
I1
I821
tp821
a(I822
I50183
I50183
F1.0
I0
F0.0
I0
F0.0
I0
F0.0
I1230
I1
I822
tp822
a(I823
I50183
I50183
F1.0
I0
F0.0
I0
F0.0
I0
F0.0
I1232
I1
I823
tp823
a(I824
I50183
I50183
F1.0
I0
F0.0
I0
F0.0
I0
F0.0
I1234
I1
I824
tp824
a(I825
I50183
I50183
F1.0
I0
F0.0
I0
F0.0
I0
F0.0
I1236
I1
I825
tp825
a(I826
I50183
I50183
F1.0
I0
F0.0
I0
F0.0
I0
F0.0
I1238
I1
I826
tp826
a(I827
I50183
I50183
F1.0
I0
F0.0
I0
F0.0
I0
F0.0
I1240
I1
I827
tp827
a(I828
I50183
I50183
F1.0
I0
F0.0
I0
F0.0
I0
F0.0
I1242
I1
I828
tp828
a(I829
I50183
I50183
F1.0
I0
F0.0
I0
F0.0
I0
F0.0
I1244
I1
I829
tp829
a(I830
I50183
I50183
F1.0
I0
F0.0
I0
F0.0
I0
F0.0
I1246
I1
I830
tp830
a(I831
I50183
I50183
F1.0
I0
F0.0
I0
F0.0
I0
F0.0
I1248
I1
I831
tp831
a(I832
I50183
I50183
F1.0
I0
F0.0
I0
F0.0
I0
F0.0
I1250
I1
I832
tp832
a(I833
I50183
I50183
F1.0
I0
F0.0
I0
F0.0
I0
F0.0
I1252
I1
I833
tp833
a(I834
I50183
I50183
F1.0
I0
F0.0
I0
F0.0
I0
F0.0
I1254
I1
I834
tp834
a(I835
I50183
I50183
F1.0
I0
F0.0
I0
F0.0
I0
F0.0
I1256
I1
I835
tp835
a(I836
I50183
I50183
F1.0
I0
F0.0
I0
F0.0
I0
F0.0
I1258
I1
I836
tp836
a(I837
I50183
I50183
F1.0
I0
F0.0
I0
F0.0
I0
F0.0
I1260
I1
I837
tp837
a(I838
I50183
I50183
F1.0
I0
F0.0
I0
F0.0
I0
F0.0
I1262
I1
I838
tp838
a(I839
I50183
I50183
F1.0
I0
F0.0
I0
F0.0
I0
F0.0
I1264
I1
I839
tp839
a(I840
I50183
I50183
F1.0
I0
F0.0
I0
F0.0
I0
F0.0
I1266
I1
I840
tp840
a(I841
I50183
I50183
F1.0
I0
F0.0
I0
F0.0
I0
F0.0
I1268
I1
I841
tp841
a(I842
I50183
I50183
F1.0
I0
F0.0
I0
F0.0
I0
F0.0
I1270
I1
I842
tp842
a(I843
I50183
I50183
F1.0
I0
F0.0
I0
F0.0
I0
F0.0
I1271
I0
I843
tp843
a(I844
I50183
I50183
F1.0
I0
F0.0
I0
F0.0
I0
F0.0
I1272
I0
I844
tp844
a(I845
I50183
I50183
F1.0
I0
F0.0
I0
F0.0
I0
F0.0
I1273
I0
I845
tp845
a(I846
I50183
I50183
F1.0
I0
F0.0
I0
F0.0
I0
F0.0
I1274
I0
I846
tp846
a(I847
I50183
I50183
F1.0
I0
F0.0
I0
F0.0
I0
F0.0
I1275
I0
I847
tp847
a(I848
I50183
I50183
F1.0
I0
F0.0
I0
F0.0
I0
F0.0
I1276
I0
I848
tp848
a(I849
I50183
I50183
F1.0
I0
F0.0
I0
F0.0
I0
F0.0
I1277
I0
I849
tp849
a(I850
I50183
I50183
F1.0
I0
F0.0
I0
F0.0
I0
F0.0
I1278
I0
I850
tp850
a(I851
I50183
I50183
F1.0
I0
F0.0
I0
F0.0
I0
F0.0
I1279
I0
I851
tp851
a(I852
I50183
I50183
F1.0
I0
F0.0
I0
F0.0
I0
F0.0
I1280
I0
I852
tp852
a(I853
I50183
I50183
F1.0
I0
F0.0
I0
F0.0
I0
F0.0
I1281
I0
I853
tp853
a(I854
I50183
I50183
F1.0
I0
F0.0
I0
F0.0
I0
F0.0
I1282
I0
I854
tp854
a(I855
I50183
I50183
F1.0
I0
F0.0
I0
F0.0
I0
F0.0
I1283
I0
I855
tp855
a(I856
I50183
I50183
F1.0
I0
F0.0
I0
F0.0
I0
F0.0
I1284
I0
I856
tp856
a(I857
I50183
I50183
F1.0
I0
F0.0
I0
F0.0
I0
F0.0
I1285
I0
I857
tp857
a(I858
I50183
I50183
F1.0
I0
F0.0
I0
F0.0
I0
F0.0
I1286
I0
I858
tp858
a(I859
I50183
I50183
F1.0
I0
F0.0
I0
F0.0
I0
F0.0
I1287
I0
I859
tp859
a(I860
I50183
I50183
F1.0
I0
F0.0
I0
F0.0
I0
F0.0
I1288
I0
I860
tp860
a(I861
I50183
I50183
F1.0
I0
F0.0
I0
F0.0
I0
F0.0
I1290
I1
I861
tp861
a(I862
I50183
I50183
F1.0
I0
F0.0
I0
F0.0
I0
F0.0
I1292
I1
I862
tp862
a(I863
I50183
I50183
F1.0
I0
F0.0
I0
F0.0
I0
F0.0
I1294
I1
I863
tp863
a(I864
I50183
I50183
F1.0
I0
F0.0
I0
F0.0
I0
F0.0
I1296
I1
I864
tp864
a(I865
I50183
I50183
F1.0
I0
F0.0
I0
F0.0
I0
F0.0
I1298
I1
I865
tp865
a(I866
I50183
I50183
F1.0
I0
F0.0
I0
F0.0
I0
F0.0
I1300
I1
I866
tp866
a(I867
I50183
I50183
F1.0
I0
F0.0
I0
F0.0
I0
F0.0
I1302
I1
I867
tp867
a(I868
I50183
I50183
F1.0
I0
F0.0
I0
F0.0
I0
F0.0
I1304
I1
I868
tp868
a(I869
I50183
I50183
F1.0
I0
F0.0
I0
F0.0
I0
F0.0
I1306
I1
I869
tp869
a(I870
I50183
I50183
F1.0
I0
F0.0
I0
F0.0
I0
F0.0
I1308
I1
I870
tp870
a(I871
I50183
I50183
F1.0
I0
F0.0
I0
F0.0
I0
F0.0
I1310
I1
I871
tp871
a(I872
I50183
I50183
F1.0
I0
F0.0
I0
F0.0
I0
F0.0
I1312
I1
I872
tp872
a(I873
I50183
I50183
F1.0
I0
F0.0
I0
F0.0
I0
F0.0
I1314
I1
I873
tp873
a(I874
I50183
I50183
F1.0
I0
F0.0
I0
F0.0
I0
F0.0
I1316
I1
I874
tp874
a(I875
I50183
I50183
F1.0
I0
F0.0
I0
F0.0
I0
F0.0
I1318
I1
I875
tp875
a(I876
I50183
I50183
F1.0
I0
F0.0
I0
F0.0
I0
F0.0
I1320
I1
I876
tp876
a(I877
I50183
I50183
F1.0
I0
F0.0
I0
F0.0
I0
F0.0
I1322
I1
I877
tp877
a(I878
I50183
I50183
F1.0
I0
F0.0
I0
F0.0
I0
F0.0
I1324
I1
I878
tp878
a(I879
I50183
I50183
F1.0
I0
F0.0
I0
F0.0
I0
F0.0
I1326
I1
I879
tp879
a(I880
I50183
I50183
F1.0
I0
F0.0
I0
F0.0
I0
F0.0
I1328
I1
I880
tp880
a(I881
I50183
I50183
F1.0
I0
F0.0
I0
F0.0
I0
F0.0
I1330
I1
I881
tp881
a(I882
I50183
I50183
F1.0
I0
F0.0
I0
F0.0
I0
F0.0
I1332
I1
I882
tp882
a(I883
I50183
I50183
F1.0
I0
F0.0
I0
F0.0
I0
F0.0
I1334
I1
I883
tp883
a(I884
I50183
I50183
F1.0
I0
F0.0
I0
F0.0
I0
F0.0
I1336
I1
I884
tp884
a(I885
I50183
I50183
F1.0
I0
F0.0
I0
F0.0
I0
F0.0
I1338
I1
I885
tp885
a(I886
I50183
I50183
F1.0
I0
F0.0
I0
F0.0
I0
F0.0
I1340
I1
I886
tp886
a(I887
I50183
I50183
F1.0
I0
F0.0
I0
F0.0
I0
F0.0
I1342
I1
I887
tp887
a(I888
I50183
I50183
F1.0
I0
F0.0
I0
F0.0
I0
F0.0
I1344
I1
I888
tp888
a(I889
I50183
I50183
F1.0
I0
F0.0
I0
F0.0
I0
F0.0
I1346
I1
I889
tp889
a(I890
I50183
I50183
F1.0
I0
F0.0
I0
F0.0
I0
F0.0
I1348
I1
I890
tp890
a(I891
I50183
I50183
F1.0
I0
F0.0
I0
F0.0
I0
F0.0
I1350
I1
I891
tp891
a(I892
I50183
I50183
F1.0
I0
F0.0
I0
F0.0
I0
F0.0
I1352
I1
I892
tp892
a(I893
I50183
I50183
F1.0
I0
F0.0
I0
F0.0
I0
F0.0
I1354
I1
I893
tp893
a(I894
I50183
I50183
F1.0
I0
F0.0
I0
F0.0
I0
F0.0
I1356
I1
I894
tp894
a(I895
I50183
I50183
F1.0
I0
F0.0
I0
F0.0
I0
F0.0
I1358
I1
I895
tp895
a(I896
I50183
I50183
F1.0
I0
F0.0
I0
F0.0
I0
F0.0
I1360
I1
I896
tp896
a(I897
I50183
I50183
F1.0
I0
F0.0
I0
F0.0
I0
F0.0
I1362
I1
I897
tp897
a(I898
I50183
I50183
F1.0
I0
F0.0
I0
F0.0
I0
F0.0
I1364
I1
I898
tp898
a(I899
I50183
I50183
F1.0
I0
F0.0
I0
F0.0
I0
F0.0
I1366
I1
I899
tp899
a(I900
I50183
I50183
F1.0
I0
F0.0
I0
F0.0
I0
F0.0
I1368
I1
I900
tp900
a(I901
I50183
I50183
F1.0
I0
F0.0
I0
F0.0
I0
F0.0
I1370
I1
I901
tp901
a(I902
I50183
I50183
F1.0
I0
F0.0
I0
F0.0
I0
F0.0
I1372
I1
I902
tp902
a(I903
I50183
I50183
F1.0
I0
F0.0
I0
F0.0
I0
F0.0
I1374
I1
I903
tp903
a(I904
I50183
I50183
F1.0
I0
F0.0
I0
F0.0
I0
F0.0
I1376
I1
I904
tp904
a(I905
I50183
I50183
F1.0
I0
F0.0
I0
F0.0
I0
F0.0
I1378
I1
I905
tp905
a(I906
I50183
I50183
F1.0
I0
F0.0
I0
F0.0
I0
F0.0
I1380
I1
I906
tp906
a(I907
I50183
I50183
F1.0
I0
F0.0
I0
F0.0
I0
F0.0
I1382
I1
I907
tp907
a(I908
I50183
I50183
F1.0
I0
F0.0
I0
F0.0
I0
F0.0
I1384
I1
I908
tp908
a(I909
I50183
I50183
F1.0
I0
F0.0
I0
F0.0
I0
F0.0
I1386
I1
I909
tp909
a(I910
I50183
I50183
F1.0
I0
F0.0
I0
F0.0
I0
F0.0
I1388
I1
I910
tp910
a(I911
I50183
I50183
F1.0
I0
F0.0
I0
F0.0
I0
F0.0
I1390
I1
I911
tp911
a(I912
I50183
I50183
F1.0
I0
F0.0
I0
F0.0
I0
F0.0
I1392
I1
I912
tp912
a(I913
I50183
I50183
F1.0
I0
F0.0
I0
F0.0
I0
F0.0
I1394
I1
I913
tp913
a(I914
I50183
I50183
F1.0
I0
F0.0
I0
F0.0
I0
F0.0
I1396
I1
I914
tp914
a(I915
I50183
I50183
F1.0
I0
F0.0
I0
F0.0
I0
F0.0
I1398
I1
I915
tp915
a(I916
I50183
I50183
F1.0
I0
F0.0
I0
F0.0
I0
F0.0
I1400
I1
I916
tp916
a(I917
I50183
I50183
F1.0
I0
F0.0
I0
F0.0
I0
F0.0
I1402
I1
I917
tp917
a(I918
I50183
I50183
F1.0
I0
F0.0
I0
F0.0
I0
F0.0
I1404
I1
I918
tp918
a(I919
I50183
I50183
F1.0
I0
F0.0
I0
F0.0
I0
F0.0
I1406
I1
I919
tp919
a(I920
I50183
I50183
F1.0
I0
F0.0
I0
F0.0
I0
F0.0
I1408
I1
I920
tp920
a(I921
I50183
I50183
F1.0
I0
F0.0
I0
F0.0
I0
F0.0
I1410
I1
I921
tp921
a(I922
I50183
I50183
F1.0
I0
F0.0
I0
F0.0
I0
F0.0
I1412
I1
I922
tp922
a(I923
I50183
I50183
F1.0
I0
F0.0
I0
F0.0
I0
F0.0
I1414
I1
I923
tp923
a(I924
I50183
I50183
F1.0
I0
F0.0
I0
F0.0
I0
F0.0
I1416
I1
I924
tp924
a(I925
I50183
I50183
F1.0
I0
F0.0
I0
F0.0
I0
F0.0
I1418
I1
I925
tp925
a(I926
I50183
I50183
F1.0
I0
F0.0
I0
F0.0
I0
F0.0
I1420
I1
I926
tp926
a(I927
I50183
I50183
F1.0
I0
F0.0
I0
F0.0
I0
F0.0
I1422
I1
I927
tp927
a(I928
I50183
I50183
F1.0
I0
F0.0
I0
F0.0
I0
F0.0
I1424
I1
I928
tp928
a(I929
I50183
I50183
F1.0
I0
F0.0
I0
F0.0
I0
F0.0
I1426
I1
I929
tp929
a(I930
I50183
I50183
F1.0
I0
F0.0
I0
F0.0
I0
F0.0
I1428
I1
I930
tp930
a(I931
I50183
I50183
F1.0
I0
F0.0
I0
F0.0
I0
F0.0
I1430
I1
I931
tp931
a(I932
I50183
I50183
F1.0
I0
F0.0
I0
F0.0
I0
F0.0
I1432
I1
I932
tp932
a(I933
I50183
I50183
F1.0
I0
F0.0
I0
F0.0
I0
F0.0
I1434
I1
I933
tp933
a(I934
I50183
I50183
F1.0
I0
F0.0
I0
F0.0
I0
F0.0
I1436
I1
I934
tp934
a(I935
I50183
I50183
F1.0
I0
F0.0
I0
F0.0
I0
F0.0
I1438
I1
I935
tp935
a(I936
I50183
I50183
F1.0
I0
F0.0
I0
F0.0
I0
F0.0
I1440
I1
I936
tp936
a(I937
I50183
I50183
F1.0
I0
F0.0
I0
F0.0
I0
F0.0
I1442
I1
I937
tp937
a(I938
I50183
I50183
F1.0
I0
F0.0
I0
F0.0
I0
F0.0
I1444
I1
I938
tp938
a(I939
I50183
I50183
F1.0
I0
F0.0
I0
F0.0
I0
F0.0
I1446
I1
I939
tp939
a(I940
I50183
I50183
F1.0
I0
F0.0
I0
F0.0
I0
F0.0
I1448
I1
I940
tp940
a(I941
I50183
I50183
F1.0
I0
F0.0
I0
F0.0
I0
F0.0
I1450
I1
I941
tp941
a(I942
I50183
I50183
F1.0
I0
F0.0
I0
F0.0
I0
F0.0
I1452
I1
I942
tp942
a(I943
I50183
I50183
F1.0
I0
F0.0
I0
F0.0
I0
F0.0
I1453
I0
I943
tp943
a(I944
I50183
I50183
F1.0
I0
F0.0
I0
F0.0
I0
F0.0
I1454
I0
I944
tp944
a(I945
I50183
I50183
F1.0
I0
F0.0
I0
F0.0
I0
F0.0
I1455
I0
I945
tp945
a(I946
I50183
I50183
F1.0
I0
F0.0
I0
F0.0
I0
F0.0
I1456
I0
I946
tp946
a(I947
I50183
I50183
F1.0
I0
F0.0
I0
F0.0
I0
F0.0
I1457
I0
I947
tp947
a(I948
I50183
I50183
F1.0
I0
F0.0
I0
F0.0
I0
F0.0
I1458
I0
I948
tp948
a(I949
I50183
I50183
F1.0
I0
F0.0
I0
F0.0
I0
F0.0
I1459
I0
I949
tp949
a(I950
I50183
I50183
F1.0
I0
F0.0
I0
F0.0
I0
F0.0
I1460
I0
I950
tp950
a(I951
I50183
I50183
F1.0
I0
F0.0
I0
F0.0
I0
F0.0
I1461
I0
I951
tp951
a(I952
I50183
I50183
F1.0
I0
F0.0
I0
F0.0
I0
F0.0
I1462
I0
I952
tp952
a(I953
I50183
I50183
F1.0
I0
F0.0
I0
F0.0
I0
F0.0
I1463
I0
I953
tp953
a(I954
I50183
I50183
F1.0
I0
F0.0
I0
F0.0
I0
F0.0
I1464
I0
I954
tp954
a(I955
I50183
I50183
F1.0
I0
F0.0
I0
F0.0
I0
F0.0
I1465
I0
I955
tp955
a(I956
I50183
I50183
F1.0
I0
F0.0
I0
F0.0
I0
F0.0
I1466
I0
I956
tp956
a(I957
I50183
I50183
F1.0
I0
F0.0
I0
F0.0
I0
F0.0
I1467
I0
I957
tp957
a(I958
I50183
I50183
F1.0
I0
F0.0
I0
F0.0
I0
F0.0
I1468
I0
I958
tp958
a(I959
I50183
I50183
F1.0
I0
F0.0
I0
F0.0
I0
F0.0
I1469
I0
I959
tp959
a(I960
I50183
I50183
F1.0
I0
F0.0
I0
F0.0
I0
F0.0
I1470
I0
I960
tp960
a(I961
I50183
I50183
F1.0
I0
F0.0
I0
F0.0
I0
F0.0
I1472
I1
I961
tp961
a(I962
I50183
I50183
F1.0
I0
F0.0
I0
F0.0
I0
F0.0
I1474
I1
I962
tp962
a(I963
I50183
I50183
F1.0
I0
F0.0
I0
F0.0
I0
F0.0
I1476
I1
I963
tp963
a(I964
I50183
I50183
F1.0
I0
F0.0
I0
F0.0
I0
F0.0
I1478
I1
I964
tp964
a(I965
I50183
I50183
F1.0
I0
F0.0
I0
F0.0
I0
F0.0
I1480
I1
I965
tp965
a(I966
I50183
I50183
F1.0
I0
F0.0
I0
F0.0
I0
F0.0
I1482
I1
I966
tp966
a(I967
I50183
I50183
F1.0
I0
F0.0
I0
F0.0
I0
F0.0
I1484
I1
I967
tp967
a(I968
I50183
I50183
F1.0
I0
F0.0
I0
F0.0
I0
F0.0
I1486
I1
I968
tp968
a(I969
I50183
I50183
F1.0
I0
F0.0
I0
F0.0
I0
F0.0
I1488
I1
I969
tp969
a(I970
I50183
I50183
F1.0
I0
F0.0
I0
F0.0
I0
F0.0
I1490
I1
I970
tp970
a(I971
I50183
I50183
F1.0
I0
F0.0
I0
F0.0
I0
F0.0
I1492
I1
I971
tp971
a(I972
I50183
I50183
F1.0
I0
F0.0
I0
F0.0
I0
F0.0
I1494
I1
I972
tp972
a(I973
I50183
I50183
F1.0
I0
F0.0
I0
F0.0
I0
F0.0
I1496
I1
I973
tp973
a(I974
I50183
I50183
F1.0
I0
F0.0
I0
F0.0
I0
F0.0
I1498
I1
I974
tp974
a(I975
I50183
I50183
F1.0
I0
F0.0
I0
F0.0
I0
F0.0
I1500
I1
I975
tp975
a(I976
I50183
I50183
F1.0
I0
F0.0
I0
F0.0
I0
F0.0
I1502
I1
I976
tp976
a(I977
I50183
I50183
F1.0
I0
F0.0
I0
F0.0
I0
F0.0
I1504
I1
I977
tp977
a(I978
I50183
I50183
F1.0
I0
F0.0
I0
F0.0
I0
F0.0
I1506
I1
I978
tp978
a(I979
I50183
I50183
F1.0
I0
F0.0
I0
F0.0
I0
F0.0
I1508
I1
I979
tp979
a(I980
I50183
I50183
F1.0
I0
F0.0
I0
F0.0
I0
F0.0
I1510
I1
I980
tp980
a(I981
I50183
I50183
F1.0
I0
F0.0
I0
F0.0
I0
F0.0
I1512
I1
I981
tp981
a(I982
I50183
I50183
F1.0
I0
F0.0
I0
F0.0
I0
F0.0
I1514
I1
I982
tp982
a(I983
I50183
I50183
F1.0
I0
F0.0
I0
F0.0
I0
F0.0
I1516
I1
I983
tp983
a(I984
I50183
I50183
F1.0
I0
F0.0
I0
F0.0
I0
F0.0
I1518
I1
I984
tp984
a(I985
I50183
I50183
F1.0
I0
F0.0
I0
F0.0
I0
F0.0
I1520
I1
I985
tp985
a(I986
I50183
I50183
F1.0
I0
F0.0
I0
F0.0
I0
F0.0
I1522
I1
I986
tp986
a(I987
I50183
I50183
F1.0
I0
F0.0
I0
F0.0
I0
F0.0
I1524
I1
I987
tp987
a(I988
I50183
I50183
F1.0
I0
F0.0
I0
F0.0
I0
F0.0
I1526
I1
I988
tp988
a(I989
I50183
I50183
F1.0
I0
F0.0
I0
F0.0
I0
F0.0
I1528
I1
I989
tp989
a(I990
I50183
I50183
F1.0
I0
F0.0
I0
F0.0
I0
F0.0
I1530
I1
I990
tp990
a(I991
I50183
I50183
F1.0
I0
F0.0
I0
F0.0
I0
F0.0
I1532
I1
I991
tp991
a(I992
I50183
I50183
F1.0
I0
F0.0
I0
F0.0
I0
F0.0
I1534
I1
I992
tp992
a(I993
I50183
I50183
F1.0
I0
F0.0
I0
F0.0
I0
F0.0
I1536
I1
I993
tp993
a(I994
I50183
I50183
F1.0
I0
F0.0
I0
F0.0
I0
F0.0
I1538
I1
I994
tp994
a(I995
I50183
I50183
F1.0
I0
F0.0
I0
F0.0
I0
F0.0
I1540
I1
I995
tp995
a(I996
I50183
I50183
F1.0
I0
F0.0
I0
F0.0
I0
F0.0
I1542
I1
I996
tp996
a(I997
I50183
I50183
F1.0
I0
F0.0
I0
F0.0
I0
F0.0
I1544
I1
I997
tp997
a(I998
I50183
I50183
F1.0
I0
F0.0
I0
F0.0
I0
F0.0
I1546
I1
I998
tp998
a(I999
I50183
I50183
F1.0
I0
F0.0
I0
F0.0
I0
F0.0
I1548
I1
I999
tp999
a(I1000
I50183
I50183
F1.0
I0
F0.0
I0
F0.0
I0
F0.0
I1550
I1
I1000
tp1000
a(I1001
I50183
I50183
F1.0
I0
F0.0
I0
F0.0
I0
F0.0
I1552
I1
I1001
tp1001
a(I1002
I50183
I50183
F1.0
I0
F0.0
I0
F0.0
I0
F0.0
I1554
I1
I1002
tp1002
a(I1003
I50183
I50183
F1.0
I0
F0.0
I0
F0.0
I0
F0.0
I1556
I1
I1003
tp1003
a(I1004
I50183
I50183
F1.0
I0
F0.0
I0
F0.0
I0
F0.0
I1558
I1
I1004
tp1004
a(I1005
I50183
I50183
F1.0
I0
F0.0
I0
F0.0
I0
F0.0
I1560
I1
I1005
tp1005
a(I1006
I50183
I50183
F1.0
I0
F0.0
I0
F0.0
I0
F0.0
I1562
I1
I1006
tp1006
a(I1007
I50183
I50183
F1.0
I0
F0.0
I0
F0.0
I0
F0.0
I1564
I1
I1007
tp1007
a(I1008
I50183
I50183
F1.0
I0
F0.0
I0
F0.0
I0
F0.0
I1566
I1
I1008
tp1008
a(I1009
I50183
I50183
F1.0
I0
F0.0
I0
F0.0
I0
F0.0
I1568
I1
I1009
tp1009
a(I1010
I50183
I50183
F1.0
I0
F0.0
I0
F0.0
I0
F0.0
I1570
I1
I1010
tp1010
a(I1011
I50183
I50183
F1.0
I0
F0.0
I0
F0.0
I0
F0.0
I1572
I1
I1011
tp1011
a(I1012
I50183
I50183
F1.0
I0
F0.0
I0
F0.0
I0
F0.0
I1574
I1
I1012
tp1012
a(I1013
I50183
I50183
F1.0
I0
F0.0
I0
F0.0
I0
F0.0
I1576
I1
I1013
tp1013
a(I1014
I50183
I50183
F1.0
I0
F0.0
I0
F0.0
I0
F0.0
I1578
I1
I1014
tp1014
a(I1015
I50183
I50183
F1.0
I0
F0.0
I0
F0.0
I0
F0.0
I1580
I1
I1015
tp1015
a(I1016
I50183
I50183
F1.0
I0
F0.0
I0
F0.0
I0
F0.0
I1582
I1
I1016
tp1016
a(I1017
I50183
I50183
F1.0
I0
F0.0
I0
F0.0
I0
F0.0
I1584
I1
I1017
tp1017
a(I1018
I50183
I50183
F1.0
I0
F0.0
I0
F0.0
I0
F0.0
I1586
I1
I1018
tp1018
a(I1019
I50183
I50183
F1.0
I0
F0.0
I0
F0.0
I0
F0.0
I1588
I1
I1019
tp1019
a(I1020
I50183
I50183
F1.0
I0
F0.0
I0
F0.0
I0
F0.0
I1590
I1
I1020
tp1020
a(I1021
I50183
I50183
F1.0
I0
F0.0
I0
F0.0
I0
F0.0
I1592
I1
I1021
tp1021
a(I1022
I50183
I50183
F1.0
I0
F0.0
I0
F0.0
I0
F0.0
I1594
I1
I1022
tp1022
a(I1023
I50183
I50183
F1.0
I0
F0.0
I0
F0.0
I0
F0.0
I1596
I1
I1023
tp1023
a(I1024
I50183
I50183
F1.0
I0
F0.0
I0
F0.0
I0
F0.0
I1598
I1
I1024
tp1024
a(I1025
I50183
I50183
F1.0
I0
F0.0
I0
F0.0
I0
F0.0
I1600
I1
I1025
tp1025
a(I1026
I50183
I50183
F1.0
I0
F0.0
I0
F0.0
I0
F0.0
I1602
I1
I1026
tp1026
a(I1027
I50183
I50183
F1.0
I0
F0.0
I0
F0.0
I0
F0.0
I1604
I1
I1027
tp1027
a(I1028
I50183
I50183
F1.0
I0
F0.0
I0
F0.0
I0
F0.0
I1606
I1
I1028
tp1028
a(I1029
I50183
I50183
F1.0
I0
F0.0
I0
F0.0
I0
F0.0
I1608
I1
I1029
tp1029
a(I1030
I50183
I50183
F1.0
I0
F0.0
I0
F0.0
I0
F0.0
I1610
I1
I1030
tp1030
a(I1031
I50183
I50183
F1.0
I0
F0.0
I0
F0.0
I0
F0.0
I1612
I1
I1031
tp1031
a(I1032
I50183
I50183
F1.0
I0
F0.0
I0
F0.0
I0
F0.0
I1614
I1
I1032
tp1032
a(I1033
I50183
I50183
F1.0
I0
F0.0
I0
F0.0
I0
F0.0
I1616
I1
I1033
tp1033
a(I1034
I50183
I50183
F1.0
I0
F0.0
I0
F0.0
I0
F0.0
I1618
I1
I1034
tp1034
a(I1035
I50183
I50183
F1.0
I0
F0.0
I0
F0.0
I0
F0.0
I1620
I1
I1035
tp1035
a(I1036
I50183
I50183
F1.0
I0
F0.0
I0
F0.0
I0
F0.0
I1622
I1
I1036
tp1036
a(I1037
I50183
I50183
F1.0
I0
F0.0
I0
F0.0
I0
F0.0
I1624
I1
I1037
tp1037
a(I1038
I50183
I50183
F1.0
I0
F0.0
I0
F0.0
I0
F0.0
I1626
I1
I1038
tp1038
a(I1039
I50183
I50183
F1.0
I0
F0.0
I0
F0.0
I0
F0.0
I1628
I1
I1039
tp1039
a(I1040
I50183
I50183
F1.0
I0
F0.0
I0
F0.0
I0
F0.0
I1630
I1
I1040
tp1040
a(I1041
I50183
I50183
F1.0
I0
F0.0
I0
F0.0
I0
F0.0
I1632
I1
I1041
tp1041
a(I1042
I50183
I50183
F1.0
I0
F0.0
I0
F0.0
I0
F0.0
I1634
I1
I1042
tp1042
a(I1043
I50183
I50183
F1.0
I0
F0.0
I0
F0.0
I0
F0.0
I1635
I0
I1043
tp1043
a(I1044
I50183
I50183
F1.0
I0
F0.0
I0
F0.0
I0
F0.0
I1636
I0
I1044
tp1044
a(I1045
I50183
I50183
F1.0
I0
F0.0
I0
F0.0
I0
F0.0
I1637
I0
I1045
tp1045
a(I1046
I50183
I50183
F1.0
I0
F0.0
I0
F0.0
I0
F0.0
I1638
I0
I1046
tp1046
a(I1047
I50183
I50183
F1.0
I0
F0.0
I0
F0.0
I0
F0.0
I1639
I0
I1047
tp1047
a(I1048
I50183
I50183
F1.0
I0
F0.0
I0
F0.0
I0
F0.0
I1640
I0
I1048
tp1048
a(I1049
I50183
I50183
F1.0
I0
F0.0
I0
F0.0
I0
F0.0
I1641
I0
I1049
tp1049
a(I1050
I50183
I50183
F1.0
I0
F0.0
I0
F0.0
I0
F0.0
I1642
I0
I1050
tp1050
a(I1051
I50183
I50183
F1.0
I0
F0.0
I0
F0.0
I0
F0.0
I1643
I0
I1051
tp1051
a(I1052
I50183
I50183
F1.0
I0
F0.0
I0
F0.0
I0
F0.0
I1644
I0
I1052
tp1052
a(I1053
I50183
I50183
F1.0
I0
F0.0
I0
F0.0
I0
F0.0
I1645
I0
I1053
tp1053
a(I1054
I50183
I50183
F1.0
I0
F0.0
I0
F0.0
I0
F0.0
I1646
I0
I1054
tp1054
a(I1055
I50183
I50183
F1.0
I0
F0.0
I0
F0.0
I0
F0.0
I1647
I0
I1055
tp1055
a(I1056
I50183
I50183
F1.0
I0
F0.0
I0
F0.0
I0
F0.0
I1648
I0
I1056
tp1056
a(I1057
I50183
I50183
F1.0
I0
F0.0
I0
F0.0
I0
F0.0
I1649
I0
I1057
tp1057
a(I1058
I50183
I50183
F1.0
I0
F0.0
I0
F0.0
I0
F0.0
I1650
I0
I1058
tp1058
a(I1059
I50183
I50183
F1.0
I0
F0.0
I0
F0.0
I0
F0.0
I1651
I0
I1059
tp1059
a(I1060
I50183
I50183
F1.0
I0
F0.0
I0
F0.0
I0
F0.0
I1652
I0
I1060
tp1060
a(I1061
I50183
I50183
F1.0
I0
F0.0
I0
F0.0
I0
F0.0
I1654
I1
I1061
tp1061
a(I1062
I50183
I50183
F1.0
I0
F0.0
I0
F0.0
I0
F0.0
I1656
I1
I1062
tp1062
a(I1063
I50183
I50183
F1.0
I0
F0.0
I0
F0.0
I0
F0.0
I1658
I1
I1063
tp1063
a(I1064
I50183
I50183
F1.0
I0
F0.0
I0
F0.0
I0
F0.0
I1660
I1
I1064
tp1064
a(I1065
I50183
I50183
F1.0
I0
F0.0
I0
F0.0
I0
F0.0
I1662
I1
I1065
tp1065
a(I1066
I50183
I50183
F1.0
I0
F0.0
I0
F0.0
I0
F0.0
I1664
I1
I1066
tp1066
a(I1067
I50183
I50183
F1.0
I0
F0.0
I0
F0.0
I0
F0.0
I1666
I1
I1067
tp1067
a(I1068
I50183
I50183
F1.0
I0
F0.0
I0
F0.0
I0
F0.0
I1668
I1
I1068
tp1068
a(I1069
I50183
I50183
F1.0
I0
F0.0
I0
F0.0
I0
F0.0
I1670
I1
I1069
tp1069
a(I1070
I50183
I50183
F1.0
I0
F0.0
I0
F0.0
I0
F0.0
I1672
I1
I1070
tp1070
a(I1071
I50183
I50183
F1.0
I0
F0.0
I0
F0.0
I0
F0.0
I1674
I1
I1071
tp1071
a(I1072
I50183
I50183
F1.0
I0
F0.0
I0
F0.0
I0
F0.0
I1676
I1
I1072
tp1072
a(I1073
I50183
I50183
F1.0
I0
F0.0
I0
F0.0
I0
F0.0
I1678
I1
I1073
tp1073
a(I1074
I50183
I50183
F1.0
I0
F0.0
I0
F0.0
I0
F0.0
I1680
I1
I1074
tp1074
a(I1075
I50183
I50183
F1.0
I0
F0.0
I0
F0.0
I0
F0.0
I1682
I1
I1075
tp1075
a(I1076
I50183
I50183
F1.0
I0
F0.0
I0
F0.0
I0
F0.0
I1684
I1
I1076
tp1076
a(I1077
I50183
I50183
F1.0
I0
F0.0
I0
F0.0
I0
F0.0
I1686
I1
I1077
tp1077
a(I1078
I50183
I50183
F1.0
I0
F0.0
I0
F0.0
I0
F0.0
I1688
I1
I1078
tp1078
a(I1079
I50183
I50183
F1.0
I0
F0.0
I0
F0.0
I0
F0.0
I1690
I1
I1079
tp1079
a(I1080
I50183
I50183
F1.0
I0
F0.0
I0
F0.0
I0
F0.0
I1692
I1
I1080
tp1080
a(I1081
I50183
I50183
F1.0
I0
F0.0
I0
F0.0
I0
F0.0
I1694
I1
I1081
tp1081
a(I1082
I50183
I50183
F1.0
I0
F0.0
I0
F0.0
I0
F0.0
I1696
I1
I1082
tp1082
a(I1083
I50183
I50183
F1.0
I0
F0.0
I0
F0.0
I0
F0.0
I1698
I1
I1083
tp1083
a(I1084
I50183
I50183
F1.0
I0
F0.0
I0
F0.0
I0
F0.0
I1700
I1
I1084
tp1084
a(I1085
I50183
I50183
F1.0
I0
F0.0
I0
F0.0
I0
F0.0
I1702
I1
I1085
tp1085
a(I1086
I50183
I50183
F1.0
I0
F0.0
I0
F0.0
I0
F0.0
I1704
I1
I1086
tp1086
a(I1087
I50183
I50183
F1.0
I0
F0.0
I0
F0.0
I0
F0.0
I1706
I1
I1087
tp1087
a(I1088
I50183
I50183
F1.0
I0
F0.0
I0
F0.0
I0
F0.0
I1708
I1
I1088
tp1088
a(I1089
I50183
I50183
F1.0
I0
F0.0
I0
F0.0
I0
F0.0
I1710
I1
I1089
tp1089
a(I1090
I50183
I50183
F1.0
I0
F0.0
I0
F0.0
I0
F0.0
I1712
I1
I1090
tp1090
a(I1091
I50183
I50183
F1.0
I0
F0.0
I0
F0.0
I0
F0.0
I1714
I1
I1091
tp1091
a(I1092
I50183
I50183
F1.0
I0
F0.0
I0
F0.0
I0
F0.0
I1716
I1
I1092
tp1092
a(I1093
I50183
I50183
F1.0
I0
F0.0
I0
F0.0
I0
F0.0
I1718
I1
I1093
tp1093
a(I1094
I50183
I50183
F1.0
I0
F0.0
I0
F0.0
I0
F0.0
I1720
I1
I1094
tp1094
a(I1095
I50183
I50183
F1.0
I0
F0.0
I0
F0.0
I0
F0.0
I1722
I1
I1095
tp1095
a(I1096
I50183
I50183
F1.0
I0
F0.0
I0
F0.0
I0
F0.0
I1724
I1
I1096
tp1096
a(I1097
I50183
I50183
F1.0
I0
F0.0
I0
F0.0
I0
F0.0
I1726
I1
I1097
tp1097
a(I1098
I50183
I50183
F1.0
I0
F0.0
I0
F0.0
I0
F0.0
I1728
I1
I1098
tp1098
a(I1099
I50183
I50183
F1.0
I0
F0.0
I0
F0.0
I0
F0.0
I1730
I1
I1099
tp1099
a(I1100
I50183
I50183
F1.0
I0
F0.0
I0
F0.0
I0
F0.0
I1732
I1
I1100
tp1100
a(I1101
I50183
I50183
F1.0
I0
F0.0
I0
F0.0
I0
F0.0
I1734
I1
I1101
tp1101
a(I1102
I50183
I50183
F1.0
I0
F0.0
I0
F0.0
I0
F0.0
I1736
I1
I1102
tp1102
a(I1103
I50183
I50183
F1.0
I0
F0.0
I0
F0.0
I0
F0.0
I1738
I1
I1103
tp1103
a(I1104
I50183
I50183
F1.0
I0
F0.0
I0
F0.0
I0
F0.0
I1740
I1
I1104
tp1104
a(I1105
I50183
I50183
F1.0
I0
F0.0
I0
F0.0
I0
F0.0
I1742
I1
I1105
tp1105
a(I1106
I50183
I50183
F1.0
I0
F0.0
I0
F0.0
I0
F0.0
I1744
I1
I1106
tp1106
a(I1107
I50183
I50183
F1.0
I0
F0.0
I0
F0.0
I0
F0.0
I1746
I1
I1107
tp1107
a(I1108
I50183
I50183
F1.0
I0
F0.0
I0
F0.0
I0
F0.0
I1748
I1
I1108
tp1108
a(I1109
I50183
I50183
F1.0
I0
F0.0
I0
F0.0
I0
F0.0
I1750
I1
I1109
tp1109
a(I1110
I50183
I50183
F1.0
I0
F0.0
I0
F0.0
I0
F0.0
I1752
I1
I1110
tp1110
a(I1111
I50183
I50183
F1.0
I0
F0.0
I0
F0.0
I0
F0.0
I1754
I1
I1111
tp1111
a(I1112
I50183
I50183
F1.0
I0
F0.0
I0
F0.0
I0
F0.0
I1756
I1
I1112
tp1112
a(I1113
I50183
I50183
F1.0
I0
F0.0
I0
F0.0
I0
F0.0
I1758
I1
I1113
tp1113
a(I1114
I50183
I50183
F1.0
I0
F0.0
I0
F0.0
I0
F0.0
I1760
I1
I1114
tp1114
a(I1115
I50183
I50183
F1.0
I0
F0.0
I0
F0.0
I0
F0.0
I1762
I1
I1115
tp1115
a(I1116
I50183
I50183
F1.0
I0
F0.0
I0
F0.0
I0
F0.0
I1764
I1
I1116
tp1116
a(I1117
I50183
I50183
F1.0
I0
F0.0
I0
F0.0
I0
F0.0
I1766
I1
I1117
tp1117
a(I1118
I50183
I50183
F1.0
I0
F0.0
I0
F0.0
I0
F0.0
I1768
I1
I1118
tp1118
a(I1119
I50183
I50183
F1.0
I0
F0.0
I0
F0.0
I0
F0.0
I1770
I1
I1119
tp1119
a(I1120
I50183
I50183
F1.0
I0
F0.0
I0
F0.0
I0
F0.0
I1772
I1
I1120
tp1120
a(I1121
I50183
I50183
F1.0
I0
F0.0
I0
F0.0
I0
F0.0
I1774
I1
I1121
tp1121
a(I1122
I50183
I50183
F1.0
I0
F0.0
I0
F0.0
I0
F0.0
I1776
I1
I1122
tp1122
a(I1123
I50183
I50183
F1.0
I0
F0.0
I0
F0.0
I0
F0.0
I1778
I1
I1123
tp1123
a(I1124
I50183
I50183
F1.0
I0
F0.0
I0
F0.0
I0
F0.0
I1780
I1
I1124
tp1124
a(I1125
I50183
I50183
F1.0
I0
F0.0
I0
F0.0
I0
F0.0
I1782
I1
I1125
tp1125
a(I1126
I50183
I50183
F1.0
I0
F0.0
I0
F0.0
I0
F0.0
I1784
I1
I1126
tp1126
a(I1127
I50183
I50183
F1.0
I0
F0.0
I0
F0.0
I0
F0.0
I1786
I1
I1127
tp1127
a(I1128
I50183
I50183
F1.0
I0
F0.0
I0
F0.0
I0
F0.0
I1788
I1
I1128
tp1128
a(I1129
I50183
I50183
F1.0
I0
F0.0
I0
F0.0
I0
F0.0
I1790
I1
I1129
tp1129
a(I1130
I50183
I50183
F1.0
I0
F0.0
I0
F0.0
I0
F0.0
I1792
I1
I1130
tp1130
a(I1131
I50183
I50183
F1.0
I0
F0.0
I0
F0.0
I0
F0.0
I1794
I1
I1131
tp1131
a(I1132
I50183
I50183
F1.0
I0
F0.0
I0
F0.0
I0
F0.0
I1796
I1
I1132
tp1132
a(I1133
I50183
I50183
F1.0
I0
F0.0
I0
F0.0
I0
F0.0
I1798
I1
I1133
tp1133
a(I1134
I50183
I50183
F1.0
I0
F0.0
I0
F0.0
I0
F0.0
I1800
I1
I1134
tp1134
a(I1135
I50183
I50183
F1.0
I0
F0.0
I0
F0.0
I0
F0.0
I1802
I1
I1135
tp1135
a(I1136
I50183
I50183
F1.0
I0
F0.0
I0
F0.0
I0
F0.0
I1804
I1
I1136
tp1136
a(I1137
I50183
I50183
F1.0
I0
F0.0
I0
F0.0
I0
F0.0
I1806
I1
I1137
tp1137
a(I1138
I50183
I50183
F1.0
I0
F0.0
I0
F0.0
I0
F0.0
I1808
I1
I1138
tp1138
a(I1139
I50183
I50183
F1.0
I0
F0.0
I0
F0.0
I0
F0.0
I1810
I1
I1139
tp1139
a(I1140
I50183
I50183
F1.0
I0
F0.0
I0
F0.0
I0
F0.0
I1812
I1
I1140
tp1140
a(I1141
I50183
I50183
F1.0
I0
F0.0
I0
F0.0
I0
F0.0
I1814
I1
I1141
tp1141
a(I1142
I50183
I50183
F1.0
I0
F0.0
I0
F0.0
I0
F0.0
I1816
I1
I1142
tp1142
a(I1143
I50183
I50183
F1.0
I0
F0.0
I0
F0.0
I0
F0.0
I1817
I0
I1143
tp1143
a(I1144
I50183
I50183
F1.0
I0
F0.0
I0
F0.0
I0
F0.0
I1818
I0
I1144
tp1144
a(I1145
I50183
I50183
F1.0
I0
F0.0
I0
F0.0
I0
F0.0
I1819
I0
I1145
tp1145
a(I1146
I50183
I50183
F1.0
I0
F0.0
I0
F0.0
I0
F0.0
I1820
I0
I1146
tp1146
a(I1147
I50183
I50183
F1.0
I0
F0.0
I0
F0.0
I0
F0.0
I1821
I0
I1147
tp1147
a(I1148
I50183
I50183
F1.0
I0
F0.0
I0
F0.0
I0
F0.0
I1822
I0
I1148
tp1148
a(I1149
I50183
I50183
F1.0
I0
F0.0
I0
F0.0
I0
F0.0
I1823
I0
I1149
tp1149
a(I1150
I50183
I50183
F1.0
I0
F0.0
I0
F0.0
I0
F0.0
I1824
I0
I1150
tp1150
a(I1151
I50183
I50183
F1.0
I0
F0.0
I0
F0.0
I0
F0.0
I1825
I0
I1151
tp1151
a(I1152
I50183
I50183
F1.0
I0
F0.0
I0
F0.0
I0
F0.0
I1826
I0
I1152
tp1152
a(I1153
I50183
I50183
F1.0
I0
F0.0
I0
F0.0
I0
F0.0
I1827
I0
I1153
tp1153
a(I1154
I50183
I50183
F1.0
I0
F0.0
I0
F0.0
I0
F0.0
I1828
I0
I1154
tp1154
a(I1155
I50183
I50183
F1.0
I0
F0.0
I0
F0.0
I0
F0.0
I1829
I0
I1155
tp1155
a(I1156
I50183
I50183
F1.0
I0
F0.0
I0
F0.0
I0
F0.0
I1830
I0
I1156
tp1156
a(I1157
I50183
I50183
F1.0
I0
F0.0
I0
F0.0
I0
F0.0
I1831
I0
I1157
tp1157
a(I1158
I50183
I50183
F1.0
I0
F0.0
I0
F0.0
I0
F0.0
I1832
I0
I1158
tp1158
a(I1159
I50183
I50183
F1.0
I0
F0.0
I0
F0.0
I0
F0.0
I1833
I0
I1159
tp1159
a(I1160
I50183
I50183
F1.0
I0
F0.0
I0
F0.0
I0
F0.0
I1834
I0
I1160
tp1160
a(I1161
I50183
I50183
F1.0
I0
F0.0
I0
F0.0
I0
F0.0
I1836
I1
I1161
tp1161
a(I1162
I50183
I50183
F1.0
I0
F0.0
I0
F0.0
I0
F0.0
I1838
I1
I1162
tp1162
a(I1163
I50183
I50183
F1.0
I0
F0.0
I0
F0.0
I0
F0.0
I1840
I1
I1163
tp1163
a(I1164
I50183
I50183
F1.0
I0
F0.0
I0
F0.0
I0
F0.0
I1842
I1
I1164
tp1164
a(I1165
I50183
I50183
F1.0
I0
F0.0
I0
F0.0
I0
F0.0
I1844
I1
I1165
tp1165
a(I1166
I50183
I50183
F1.0
I0
F0.0
I0
F0.0
I0
F0.0
I1846
I1
I1166
tp1166
a(I1167
I50183
I50183
F1.0
I0
F0.0
I0
F0.0
I0
F0.0
I1848
I1
I1167
tp1167
a(I1168
I50183
I50183
F1.0
I0
F0.0
I0
F0.0
I0
F0.0
I1850
I1
I1168
tp1168
a(I1169
I50183
I50183
F1.0
I0
F0.0
I0
F0.0
I0
F0.0
I1852
I1
I1169
tp1169
a(I1170
I50183
I50183
F1.0
I0
F0.0
I0
F0.0
I0
F0.0
I1854
I1
I1170
tp1170
a(I1171
I50183
I50183
F1.0
I0
F0.0
I0
F0.0
I0
F0.0
I1856
I1
I1171
tp1171
a(I1172
I50183
I50183
F1.0
I0
F0.0
I0
F0.0
I0
F0.0
I1858
I1
I1172
tp1172
a(I1173
I50183
I50183
F1.0
I0
F0.0
I0
F0.0
I0
F0.0
I1860
I1
I1173
tp1173
a(I1174
I50183
I50183
F1.0
I0
F0.0
I0
F0.0
I0
F0.0
I1862
I1
I1174
tp1174
a(I1175
I50183
I50183
F1.0
I0
F0.0
I0
F0.0
I0
F0.0
I1864
I1
I1175
tp1175
a(I1176
I50183
I50183
F1.0
I0
F0.0
I0
F0.0
I0
F0.0
I1866
I1
I1176
tp1176
a(I1177
I50183
I50183
F1.0
I0
F0.0
I0
F0.0
I0
F0.0
I1868
I1
I1177
tp1177
a(I1178
I50183
I50183
F1.0
I0
F0.0
I0
F0.0
I0
F0.0
I1870
I1
I1178
tp1178
a(I1179
I50183
I50183
F1.0
I0
F0.0
I0
F0.0
I0
F0.0
I1872
I1
I1179
tp1179
a(I1180
I50183
I50183
F1.0
I0
F0.0
I0
F0.0
I0
F0.0
I1874
I1
I1180
tp1180
a(I1181
I50183
I50183
F1.0
I0
F0.0
I0
F0.0
I0
F0.0
I1876
I1
I1181
tp1181
a(I1182
I50183
I50183
F1.0
I0
F0.0
I0
F0.0
I0
F0.0
I1878
I1
I1182
tp1182
a(I1183
I50183
I50183
F1.0
I0
F0.0
I0
F0.0
I0
F0.0
I1880
I1
I1183
tp1183
a(I1184
I50183
I50183
F1.0
I0
F0.0
I0
F0.0
I0
F0.0
I1882
I1
I1184
tp1184
a(I1185
I50183
I50183
F1.0
I0
F0.0
I0
F0.0
I0
F0.0
I1884
I1
I1185
tp1185
a(I1186
I50183
I50183
F1.0
I0
F0.0
I0
F0.0
I0
F0.0
I1886
I1
I1186
tp1186
a(I1187
I50183
I50183
F1.0
I0
F0.0
I0
F0.0
I0
F0.0
I1888
I1
I1187
tp1187
a(I1188
I50183
I50183
F1.0
I0
F0.0
I0
F0.0
I0
F0.0
I1890
I1
I1188
tp1188
a(I1189
I50183
I50183
F1.0
I0
F0.0
I0
F0.0
I0
F0.0
I1892
I1
I1189
tp1189
a(I1190
I50183
I50183
F1.0
I0
F0.0
I0
F0.0
I0
F0.0
I1894
I1
I1190
tp1190
a(I1191
I50183
I50183
F1.0
I0
F0.0
I0
F0.0
I0
F0.0
I1896
I1
I1191
tp1191
a(I1192
I50183
I50183
F1.0
I0
F0.0
I0
F0.0
I0
F0.0
I1898
I1
I1192
tp1192
a(I1193
I50183
I50183
F1.0
I0
F0.0
I0
F0.0
I0
F0.0
I1900
I1
I1193
tp1193
a(I1194
I50183
I50183
F1.0
I0
F0.0
I0
F0.0
I0
F0.0
I1902
I1
I1194
tp1194
a(I1195
I50183
I50183
F1.0
I0
F0.0
I0
F0.0
I0
F0.0
I1904
I1
I1195
tp1195
a(I1196
I50183
I50183
F1.0
I0
F0.0
I0
F0.0
I0
F0.0
I1906
I1
I1196
tp1196
a(I1197
I50183
I50183
F1.0
I0
F0.0
I0
F0.0
I0
F0.0
I1908
I1
I1197
tp1197
a(I1198
I50183
I50183
F1.0
I0
F0.0
I0
F0.0
I0
F0.0
I1910
I1
I1198
tp1198
a(I1199
I50183
I50183
F1.0
I0
F0.0
I0
F0.0
I0
F0.0
I1912
I1
I1199
tp1199
a(I1200
I50183
I50183
F1.0
I0
F0.0
I0
F0.0
I0
F0.0
I1914
I1
I1200
tp1200
a(I1201
I50183
I50183
F1.0
I0
F0.0
I0
F0.0
I0
F0.0
I1916
I1
I1201
tp1201
a(I1202
I50183
I50183
F1.0
I0
F0.0
I0
F0.0
I0
F0.0
I1918
I1
I1202
tp1202
a(I1203
I50183
I50183
F1.0
I0
F0.0
I0
F0.0
I0
F0.0
I1920
I1
I1203
tp1203
a(I1204
I50183
I50183
F1.0
I0
F0.0
I0
F0.0
I0
F0.0
I1922
I1
I1204
tp1204
a(I1205
I50183
I50183
F1.0
I0
F0.0
I0
F0.0
I0
F0.0
I1924
I1
I1205
tp1205
a(I1206
I50183
I50183
F1.0
I0
F0.0
I0
F0.0
I0
F0.0
I1926
I1
I1206
tp1206
a(I1207
I50183
I50183
F1.0
I0
F0.0
I0
F0.0
I0
F0.0
I1928
I1
I1207
tp1207
a(I1208
I50183
I50183
F1.0
I0
F0.0
I0
F0.0
I0
F0.0
I1930
I1
I1208
tp1208
a(I1209
I50183
I50183
F1.0
I0
F0.0
I0
F0.0
I0
F0.0
I1932
I1
I1209
tp1209
a(I1210
I50183
I50183
F1.0
I0
F0.0
I0
F0.0
I0
F0.0
I1934
I1
I1210
tp1210
a(I1211
I50183
I50183
F1.0
I0
F0.0
I0
F0.0
I0
F0.0
I1936
I1
I1211
tp1211
a(I1212
I50183
I50183
F1.0
I0
F0.0
I0
F0.0
I0
F0.0
I1938
I1
I1212
tp1212
a(I1213
I50183
I50183
F1.0
I0
F0.0
I0
F0.0
I0
F0.0
I1940
I1
I1213
tp1213
a(I1214
I50183
I50183
F1.0
I0
F0.0
I0
F0.0
I0
F0.0
I1942
I1
I1214
tp1214
a(I1215
I50183
I50183
F1.0
I0
F0.0
I0
F0.0
I0
F0.0
I1944
I1
I1215
tp1215
a(I1216
I50183
I50183
F1.0
I0
F0.0
I0
F0.0
I0
F0.0
I1946
I1
I1216
tp1216
a(I1217
I50183
I50183
F1.0
I0
F0.0
I0
F0.0
I0
F0.0
I1948
I1
I1217
tp1217
a(I1218
I50183
I50183
F1.0
I0
F0.0
I0
F0.0
I0
F0.0
I1950
I1
I1218
tp1218
a(I1219
I50183
I50183
F1.0
I0
F0.0
I0
F0.0
I0
F0.0
I1952
I1
I1219
tp1219
a(I1220
I50183
I50183
F1.0
I0
F0.0
I0
F0.0
I0
F0.0
I1954
I1
I1220
tp1220
a(I1221
I50183
I50183
F1.0
I0
F0.0
I0
F0.0
I0
F0.0
I1956
I1
I1221
tp1221
a(I1222
I50183
I50183
F1.0
I0
F0.0
I0
F0.0
I0
F0.0
I1958
I1
I1222
tp1222
a(I1223
I50183
I50183
F1.0
I0
F0.0
I0
F0.0
I0
F0.0
I1960
I1
I1223
tp1223
a(I1224
I50183
I50183
F1.0
I0
F0.0
I0
F0.0
I0
F0.0
I1962
I1
I1224
tp1224
a(I1225
I50183
I50183
F1.0
I0
F0.0
I0
F0.0
I0
F0.0
I1964
I1
I1225
tp1225
a(I1226
I50183
I50183
F1.0
I0
F0.0
I0
F0.0
I0
F0.0
I1966
I1
I1226
tp1226
a(I1227
I50183
I50183
F1.0
I0
F0.0
I0
F0.0
I0
F0.0
I1968
I1
I1227
tp1227
a(I1228
I50183
I50183
F1.0
I0
F0.0
I0
F0.0
I0
F0.0
I1970
I1
I1228
tp1228
a(I1229
I50183
I50183
F1.0
I0
F0.0
I0
F0.0
I0
F0.0
I1972
I1
I1229
tp1229
a(I1230
I50183
I50183
F1.0
I0
F0.0
I0
F0.0
I0
F0.0
I1974
I1
I1230
tp1230
a(I1231
I50183
I50183
F1.0
I0
F0.0
I0
F0.0
I0
F0.0
I1976
I1
I1231
tp1231
a(I1232
I50183
I50183
F1.0
I0
F0.0
I0
F0.0
I0
F0.0
I1978
I1
I1232
tp1232
a(I1233
I50183
I50183
F1.0
I0
F0.0
I0
F0.0
I0
F0.0
I1980
I1
I1233
tp1233
a(I1234
I50183
I50183
F1.0
I0
F0.0
I0
F0.0
I0
F0.0
I1982
I1
I1234
tp1234
a(I1235
I50183
I50183
F1.0
I0
F0.0
I0
F0.0
I0
F0.0
I1984
I1
I1235
tp1235
a(I1236
I50183
I50183
F1.0
I0
F0.0
I0
F0.0
I0
F0.0
I1986
I1
I1236
tp1236
a(I1237
I50183
I50183
F1.0
I0
F0.0
I0
F0.0
I0
F0.0
I1988
I1
I1237
tp1237
a(I1238
I50183
I50183
F1.0
I0
F0.0
I0
F0.0
I0
F0.0
I1990
I1
I1238
tp1238
a(I1239
I50183
I50183
F1.0
I0
F0.0
I0
F0.0
I0
F0.0
I1992
I1
I1239
tp1239
a(I1240
I50183
I50183
F1.0
I0
F0.0
I0
F0.0
I0
F0.0
I1994
I1
I1240
tp1240
a(I1241
I50183
I50183
F1.0
I0
F0.0
I0
F0.0
I0
F0.0
I1996
I1
I1241
tp1241
a(I1242
I50183
I50183
F1.0
I0
F0.0
I0
F0.0
I0
F0.0
I1998
I1
I1242
tp1242
a(I1243
I50183
I50183
F1.0
I0
F0.0
I0
F0.0
I0
F0.0
I2000
I1
I1243
tp1243
a(I1244
I50183
I50183
F1.0
I0
F0.0
I0
F0.0
I0
F0.0
I2002
I1
I1244
tp1244
a(I1245
I50183
I50183
F1.0
I0
F0.0
I0
F0.0
I0
F0.0
I2004
I1
I1245
tp1245
a(I1246
I50183
I50183
F1.0
I0
F0.0
I0
F0.0
I0
F0.0
I2006
I1
I1246
tp1246
a(I1247
I50183
I50183
F1.0
I0
F0.0
I0
F0.0
I0
F0.0
I2008
I1
I1247
tp1247
a(I1248
I50183
I50183
F1.0
I0
F0.0
I0
F0.0
I0
F0.0
I2010
I1
I1248
tp1248
a(I1249
I50183
I50183
F1.0
I0
F0.0
I0
F0.0
I0
F0.0
I2012
I1
I1249
tp1249
a(I1250
I50183
I50183
F1.0
I0
F0.0
I0
F0.0
I0
F0.0
I2014
I1
I1250
tp1250
a(I1251
I50183
I50183
F1.0
I0
F0.0
I0
F0.0
I0
F0.0
I2016
I1
I1251
tp1251
a(I1252
I50183
I50183
F1.0
I0
F0.0
I0
F0.0
I0
F0.0
I2018
I1
I1252
tp1252
a(I1253
I50183
I50183
F1.0
I0
F0.0
I0
F0.0
I0
F0.0
I2020
I1
I1253
tp1253
a(I1254
I50183
I50183
F1.0
I0
F0.0
I0
F0.0
I0
F0.0
I2022
I1
I1254
tp1254
a(I1255
I50183
I50183
F1.0
I0
F0.0
I0
F0.0
I0
F0.0
I2024
I1
I1255
tp1255
a(I1256
I50183
I50183
F1.0
I0
F0.0
I0
F0.0
I0
F0.0
I2026
I1
I1256
tp1256
a(I1257
I50183
I50183
F1.0
I0
F0.0
I0
F0.0
I0
F0.0
I2028
I1
I1257
tp1257
a(I1258
I50183
I50183
F1.0
I0
F0.0
I0
F0.0
I0
F0.0
I2030
I1
I1258
tp1258
a(I1259
I50183
I50183
F1.0
I0
F0.0
I0
F0.0
I0
F0.0
I2032
I1
I1259
tp1259
a(I1260
I50183
I50183
F1.0
I0
F0.0
I0
F0.0
I0
F0.0
I2034
I1
I1260
tp1260
a(I1261
I50183
I50183
F1.0
I0
F0.0
I0
F0.0
I0
F0.0
I2036
I1
I1261
tp1261
a(I1262
I50183
I50183
F1.0
I0
F0.0
I0
F0.0
I0
F0.0
I2038
I1
I1262
tp1262
a(I1263
I50183
I50183
F1.0
I0
F0.0
I0
F0.0
I0
F0.0
I2040
I1
I1263
tp1263
a(I1264
I50183
I50183
F1.0
I0
F0.0
I0
F0.0
I0
F0.0
I2042
I1
I1264
tp1264
a(I1265
I50183
I50183
F1.0
I0
F0.0
I0
F0.0
I0
F0.0
I2044
I1
I1265
tp1265
a(I1266
I50183
I50183
F1.0
I0
F0.0
I0
F0.0
I0
F0.0
I2046
I1
I1266
tp1266
a(I1267
I50183
I50183
F1.0
I0
F0.0
I0
F0.0
I0
F0.0
I2048
I1
I1267
tp1267
a(I1268
I50183
I50183
F1.0
I0
F0.0
I0
F0.0
I0
F0.0
I2050
I1
I1268
tp1268
a(I1269
I50183
I50183
F1.0
I0
F0.0
I0
F0.0
I0
F0.0
I2052
I1
I1269
tp1269
a(I1270
I50183
I50183
F1.0
I0
F0.0
I0
F0.0
I0
F0.0
I2054
I1
I1270
tp1270
a(I1271
I50183
I50183
F1.0
I0
F0.0
I0
F0.0
I0
F0.0
I2056
I1
I1271
tp1271
a(I1272
I50183
I50183
F1.0
I0
F0.0
I0
F0.0
I0
F0.0
I2058
I1
I1272
tp1272
a(I1273
I50183
I50183
F1.0
I0
F0.0
I0
F0.0
I0
F0.0
I2060
I1
I1273
tp1273
a(I1274
I50183
I50183
F1.0
I0
F0.0
I0
F0.0
I0
F0.0
I2062
I1
I1274
tp1274
a(I1275
I50183
I50183
F1.0
I0
F0.0
I0
F0.0
I0
F0.0
I2064
I1
I1275
tp1275
a(I1276
I50183
I50183
F1.0
I0
F0.0
I0
F0.0
I0
F0.0
I2066
I1
I1276
tp1276
a(I1277
I50183
I50183
F1.0
I0
F0.0
I0
F0.0
I0
F0.0
I2068
I1
I1277
tp1277
a(I1278
I50183
I50183
F1.0
I0
F0.0
I0
F0.0
I0
F0.0
I2070
I1
I1278
tp1278
a(I1279
I50183
I50183
F1.0
I0
F0.0
I0
F0.0
I0
F0.0
I2072
I1
I1279
tp1279
a(I1280
I50183
I50183
F1.0
I0
F0.0
I0
F0.0
I0
F0.0
I2074
I1
I1280
tp1280
a(I1281
I50183
I50183
F1.0
I0
F0.0
I0
F0.0
I0
F0.0
I2076
I1
I1281
tp1281
a(I1282
I50183
I50183
F1.0
I0
F0.0
I0
F0.0
I0
F0.0
I2078
I1
I1282
tp1282
a(I1283
I50183
I50183
F1.0
I0
F0.0
I0
F0.0
I0
F0.0
I2080
I1
I1283
tp1283
a(I1284
I50183
I50183
F1.0
I0
F0.0
I0
F0.0
I0
F0.0
I2082
I1
I1284
tp1284
a(I1285
I50183
I50183
F1.0
I0
F0.0
I0
F0.0
I0
F0.0
I2084
I1
I1285
tp1285
a(I1286
I50183
I50183
F1.0
I0
F0.0
I0
F0.0
I0
F0.0
I2086
I1
I1286
tp1286
a(I1287
I50183
I50183
F1.0
I0
F0.0
I0
F0.0
I0
F0.0
I2088
I1
I1287
tp1287
a(I1288
I50183
I50183
F1.0
I0
F0.0
I0
F0.0
I0
F0.0
I2090
I1
I1288
tp1288
a(I1289
I50183
I50183
F1.0
I0
F0.01
I0
F0.0
I0
F0.0
I2093
I2
I1289
tp1289
a(I1290
I70564
I50183
F1.0
I20381
F0.01
I0
F0.0
I0
F0.0
I2095
I1
I1290
tp1290
a(I1291
I70817
I50183
F1.0
I20634
F0.01
I0
F0.0
I0
F0.0
I2097
I1
I1291
tp1291
a(I1292
I70952
I50183
F1.0
I20769
F0.01
I0
F0.0
I0
F0.0
I2099
I1
I1292
tp1292
a(I1293
I71297
I50183
F1.0
I21114
F0.01
I0
F0.0
I0
F0.0
I2101
I1
I1293
tp1293
a(I1294
I71325
I50183
F1.0
I21142
F0.01
I0
F0.0
I0
F0.0
I2103
I1
I1294
tp1294
a(I1295
I71825
I50183
F1.0
I21642
F0.01
I0
F0.0
I0
F0.0
I2105
I1
I1295
tp1295
a(I1296
I72036
I50183
F1.0
I21853
F0.01
I0
F0.0
I0
F0.0
I2107
I1
I1296
tp1296
a(I1297
I72082
I50183
F1.0
I21899
F0.01
I0
F0.0
I0
F0.0
I2109
I1
I1297
tp1297
a(I1298
I72132
I50183
F1.0
I21949
F0.01
I0
F0.0
I0
F0.0
I2111
I1
I1298
tp1298
a(I1299
I72363
I50183
F1.0
I22180
F0.01
I0
F0.0
I0
F0.0
I2113
I1
I1299
tp1299
a(I1300
I72394
I50183
F1.0
I22211
F0.01
I0
F0.0
I0
F0.0
I2115
I1
I1300
tp1300
a(I1301
I72581
I50183
F1.0
I22398
F0.01
I0
F0.0
I0
F0.0
I2117
I1
I1301
tp1301
a(I1302
I72830
I50183
F1.0
I22647
F0.01
I0
F0.0
I0
F0.0
I2119
I1
I1302
tp1302
a(I1303
I72938
I50183
F1.0
I22755
F0.01
I0
F0.0
I0
F0.0
I2121
I1
I1303
tp1303
a(I1304
I73060
I50183
F1.0
I22877
F0.01
I0
F0.0
I0
F0.0
I2123
I1
I1304
tp1304
a(I1305
I73560
I50183
F1.0
I23377
F0.01
I0
F0.0
I0
F0.0
I2125
I1
I1305
tp1305
a(I1306
I73878
I50183
F1.0
I23695
F0.01
I0
F0.0
I0
F0.0
I2127
I1
I1306
tp1306
a(I1307
I74165
I50183
F1.0
I23982
F0.01
I0
F0.0
I0
F0.0
I2129
I1
I1307
tp1307
a(I1308
I74204
I50183
F1.0
I24021
F0.01
I0
F0.0
I0
F0.0
I2131
I1
I1308
tp1308
a(I1309
I74242
I50183
F1.0
I24059
F0.01
I0
F0.0
I0
F0.0
I2133
I1
I1309
tp1309
a(I1310
I74280
I50183
F1.0
I24097
F0.01
I0
F0.0
I0
F0.0
I2135
I1
I1310
tp1310
a(I1311
I74305
I50183
F1.0
I24122
F0.01
I0
F0.0
I0
F0.0
I2137
I1
I1311
tp1311
a(I1312
I74805
I50183
F1.0
I24622
F0.01
I0
F0.0
I0
F0.0
I2139
I1
I1312
tp1312
a(I1313
I74843
I50183
F1.0
I24660
F0.01
I0
F0.0
I0
F0.0
I2141
I1
I1313
tp1313
a(I1314
I74905
I50183
F1.0
I24722
F0.01
I0
F0.0
I0
F0.0
I2143
I1
I1314
tp1314
a(I1315
I75405
I50183
F1.0
I25222
F0.01
I0
F0.0
I0
F0.0
I2145
I1
I1315
tp1315
a(I1316
I75543
I50183
F1.0
I25360
F0.01
I0
F0.0
I0
F0.0
I2147
I1
I1316
tp1316
a(I1317
I75682
I50183
F1.0
I25499
F0.01
I0
F0.0
I0
F0.0
I2149
I1
I1317
tp1317
a(I1318
I75727
I50183
F1.0
I25544
F0.01
I0
F0.0
I0
F0.0
I2151
I1
I1318
tp1318
a(I1319
I75768
I50183
F1.0
I25585
F0.01
I0
F0.0
I0
F0.0
I2153
I1
I1319
tp1319
a(I1320
I76268
I50183
F1.0
I26085
F0.01
I0
F0.0
I0
F0.0
I2155
I1
I1320
tp1320
a(I1321
I76360
I50183
F1.0
I26177
F0.01
I0
F0.0
I0
F0.0
I2157
I1
I1321
tp1321
a(I1322
I76409
I50183
F1.0
I26226
F0.01
I0
F0.0
I0
F0.0
I2159
I1
I1322
tp1322
a(I1323
I76428
I50183
F1.0
I26245
F0.01
I0
F0.0
I0
F0.0
I2161
I1
I1323
tp1323
a(I1324
I76595
I50183
F1.0
I26412
F0.01
I0
F0.0
I0
F0.0
I2163
I1
I1324
tp1324
a(I1325
I76613
I50183
F1.0
I26430
F0.01
I0
F0.0
I0
F0.0
I2165
I1
I1325
tp1325
a(I1326
I76750
I50183
F1.0
I26567
F0.01
I0
F0.0
I0
F0.0
I2167
I1
I1326
tp1326
a(I1327
I76804
I50183
F1.0
I26621
F0.01
I0
F0.0
I0
F0.0
I2169
I1
I1327
tp1327
a(I1328
I76843
I50183
F1.0
I26660
F0.01
I0
F0.0
I0
F0.0
I2171
I1
I1328
tp1328
a(I1329
I76982
I50183
F1.0
I26799
F0.01
I0
F0.0
I0
F0.0
I2173
I1
I1329
tp1329
a(I1330
I77085
I50183
F1.0
I26902
F0.01
I0
F0.0
I0
F0.0
I2175
I1
I1330
tp1330
a(I1331
I77221
I50183
F1.0
I27038
F0.01
I0
F0.0
I0
F0.0
I2177
I1
I1331
tp1331
a(I1332
I77310
I50183
F1.0
I27127
F0.01
I0
F0.0
I0
F0.0
I2179
I1
I1332
tp1332
a(I1333
I77810
I50183
F1.0
I27627
F0.01
I0
F0.0
I0
F0.0
I2181
I1
I1333
tp1333
a(I1334
I77841
I50183
F1.0
I27658
F0.01
I0
F0.0
I0
F0.0
I2183
I1
I1334
tp1334
a(I1335
I77993
I50183
F1.0
I27810
F0.01
I0
F0.0
I0
F0.0
I2185
I1
I1335
tp1335
a(I1336
I78493
I50183
F1.0
I28310
F0.01
I0
F0.0
I0
F0.0
I2187
I1
I1336
tp1336
a(I1337
I78515
I50183
F1.0
I28332
F0.01
I0
F0.0
I0
F0.0
I2189
I1
I1337
tp1337
a(I1338
I78913
I50183
F1.0
I28730
F0.01
I0
F0.0
I0
F0.0
I2191
I1
I1338
tp1338
a(I1339
I79203
I50183
F1.0
I29020
F0.01
I0
F0.0
I0
F0.0
I2193
I1
I1339
tp1339
a(I1340
I79703
I50183
F1.0
I29520
F0.01
I0
F0.0
I0
F0.0
I2195
I1
I1340
tp1340
a(I1341
I80203
I50183
F1.0
I30020
F0.01
I0
F0.0
I0
F0.0
I2197
I1
I1341
tp1341
a(I1342
I80413
I50183
F1.0
I30230
F0.01
I0
F0.0
I0
F0.0
I2199
I1
I1342
tp1342
a(I1343
I80664
I50183
F1.0
I30481
F0.01
I0
F0.0
I0
F0.0
I2201
I1
I1343
tp1343
a(I1344
I80694
I50183
F1.0
I30511
F0.01
I0
F0.0
I0
F0.0
I2203
I1
I1344
tp1344
a(I1345
I81194
I50183
F1.0
I31011
F0.01
I0
F0.0
I0
F0.0
I2205
I1
I1345
tp1345
a(I1346
I81227
I50183
F1.0
I31044
F0.01
I0
F0.0
I0
F0.0
I2207
I1
I1346
tp1346
a(I1347
I81509
I50183
F1.0
I31326
F0.01
I0
F0.0
I0
F0.0
I2209
I1
I1347
tp1347
a(I1348
I81641
I50183
F1.0
I31458
F0.01
I0
F0.0
I0
F0.0
I2211
I1
I1348
tp1348
a(I1349
I81847
I50183
F1.0
I31664
F0.01
I0
F0.0
I0
F0.0
I2213
I1
I1349
tp1349
a(I1350
I82324
I50183
F1.0
I32141
F0.01
I0
F0.0
I0
F0.0
I2215
I1
I1350
tp1350
a(I1351
I82653
I50183
F1.0
I32470
F0.01
I0
F0.0
I0
F0.0
I2217
I1
I1351
tp1351
a(I1352
I82905
I50183
F1.0
I32722
F0.01
I0
F0.0
I0
F0.0
I2219
I1
I1352
tp1352
a(I1353
I83146
I50183
F1.0
I32963
F0.01
I0
F0.0
I0
F0.0
I2221
I1
I1353
tp1353
a(I1354
I83189
I50183
F1.0
I33006
F0.01
I0
F0.0
I0
F0.0
I2223
I1
I1354
tp1354
a(I1355
I83540
I50183
F1.0
I33357
F0.01
I0
F0.0
I0
F0.0
I2225
I1
I1355
tp1355
a(I1356
I83767
I50183
F1.0
I33584
F0.01
I0
F0.0
I0
F0.0
I2227
I1
I1356
tp1356
a(I1357
I83969
I50183
F1.0
I33786
F0.01
I0
F0.0
I0
F0.0
I2229
I1
I1357
tp1357
a(I1358
I84240
I50183
F1.0
I34057
F0.01
I0
F0.0
I0
F0.0
I2231
I1
I1358
tp1358
a(I1359
I84380
I50183
F1.0
I34197
F0.01
I0
F0.0
I0
F0.0
I2233
I1
I1359
tp1359
a(I1360
I84414
I50183
F1.0
I34231
F0.01
I0
F0.0
I0
F0.0
I2235
I1
I1360
tp1360
a(I1361
I84848
I50183
F1.0
I34665
F0.01
I0
F0.0
I0
F0.0
I2237
I1
I1361
tp1361
a(I1362
I85010
I50183
F1.0
I34827
F0.01
I0
F0.0
I0
F0.0
I2239
I1
I1362
tp1362
a(I1363
I85510
I50183
F1.0
I35327
F0.01
I0
F0.0
I0
F0.0
I2241
I1
I1363
tp1363
a(I1364
I85878
I50183
F1.0
I35695
F0.01
I0
F0.0
I0
F0.0
I2243
I1
I1364
tp1364
a(I1365
I85900
I50183
F1.0
I35717
F0.01
I0
F0.0
I0
F0.0
I2245
I1
I1365
tp1365
a(I1366
I86048
I50183
F1.0
I35865
F0.01
I0
F0.0
I0
F0.0
I2247
I1
I1366
tp1366
a(I1367
I86154
I50183
F1.0
I35971
F0.01
I0
F0.0
I0
F0.0
I2249
I1
I1367
tp1367
a(I1368
I86169
I50183
F1.0
I35986
F0.01
I0
F0.0
I0
F0.0
I2251
I1
I1368
tp1368
a(I1369
I86669
I50183
F1.0
I36486
F0.01
I0
F0.0
I0
F0.0
I2253
I1
I1369
tp1369
a(I1370
I87094
I50183
F1.0
I36911
F0.01
I0
F0.0
I0
F0.0
I2255
I1
I1370
tp1370
a(I1371
I87238
I50183
F1.0
I37055
F0.01
I0
F0.0
I0
F0.0
I2257
I1
I1371
tp1371
a(I1372
I87276
I50183
F1.0
I37093
F0.01
I0
F0.0
I0
F0.0
I2259
I1
I1372
tp1372
a(I1373
I87776
I50183
F1.0
I37593
F0.01
I0
F0.0
I0
F0.0
I2261
I1
I1373
tp1373
a(I1374
I87799
I50183
F1.0
I37616
F0.01
I0
F0.0
I0
F0.0
I2263
I1
I1374
tp1374
a(I1375
I87836
I50183
F1.0
I37653
F0.01
I0
F0.0
I0
F0.0
I2265
I1
I1375
tp1375
a(I1376
I87961
I50183
F1.0
I37778
F0.01
I0
F0.0
I0
F0.0
I2267
I1
I1376
tp1376
a(I1377
I87990
I50183
F1.0
I37807
F0.01
I0
F0.0
I0
F0.0
I2269
I1
I1377
tp1377
a(I1378
I88032
I50183
F1.0
I37849
F0.01
I0
F0.0
I0
F0.0
I2271
I1
I1378
tp1378
a(I1379
I88215
I50183
F1.0
I38032
F0.01
I0
F0.0
I0
F0.0
I2273
I1
I1379
tp1379
a(I1380
I88246
I50183
F1.0
I38063
F0.01
I0
F0.0
I0
F0.0
I2275
I1
I1380
tp1380
a(I1381
I88746
I50183
F1.0
I38563
F0.01
I0
F0.0
I0
F0.0
I2277
I1
I1381
tp1381
a(I1382
I89206
I50183
F1.0
I39023
F0.01
I0
F0.0
I0
F0.0
I2279
I1
I1382
tp1382
a(I1383
I89247
I50183
F1.0
I39064
F0.01
I0
F0.0
I0
F0.0
I2281
I1
I1383
tp1383
a(I1384
I89494
I50183
F1.0
I39311
F0.01
I0
F0.0
I0
F0.0
I2283
I1
I1384
tp1384
a(I1385
I89835
I50183
F1.0
I39652
F0.01
I0
F0.0
I0
F0.0
I2285
I1
I1385
tp1385
a(I1386
I90260
I50183
F1.0
I40077
F0.01
I0
F0.0
I0
F0.0
I2287
I1
I1386
tp1386
a(I1387
I90760
I50183
F1.0
I40577
F0.01
I0
F0.0
I0
F0.0
I2289
I1
I1387
tp1387
a(I1388
I91078
I50183
F1.0
I40895
F0.01
I0
F0.0
I0
F0.0
I2291
I1
I1388
tp1388
a(I1389
I91206
I50183
F1.0
I41023
F0.0
I0
F0.0
I0
F0.0
I2293
I1
I1389
tp1389
a(I1390
I91537
I50183
F1.0
I41354
F0.0
I0
F0.0
I0
F0.0
I2295
I1
I1390
tp1390
a(I1391
I91778
I50183
F1.0
I41595
F0.0
I0
F0.0
I0
F0.0
I2297
I1
I1391
tp1391
a(I1392
I91812
I50183
F1.0
I41629
F0.0
I0
F0.0
I0
F0.0
I2299
I1
I1392
tp1392
a(I1393
I92312
I50183
F1.0
I42129
F0.0
I0
F0.0
I0
F0.0
I2301
I1
I1393
tp1393
a(I1394
I92512
I50183
F1.0
I42329
F0.0
I0
F0.0
I0
F0.0
I2303
I1
I1394
tp1394
a(I1395
I92774
I50183
F1.0
I42591
F0.0
I0
F0.0
I0
F0.0
I2305
I1
I1395
tp1395
a(I1396
I93060
I50183
F1.0
I42877
F0.0
I0
F0.0
I0
F0.0
I2307
I1
I1396
tp1396
a(I1397
I93156
I50183
F1.0
I42973
F0.0
I0
F0.0
I0
F0.0
I2309
I1
I1397
tp1397
a(I1398
I93205
I50183
F1.0
I43022
F0.0
I0
F0.0
I0
F0.0
I2311
I1
I1398
tp1398
a(I1399
I93262
I50183
F1.0
I43079
F0.0
I0
F0.0
I0
F0.0
I2313
I1
I1399
tp1399
a(I1400
I93590
I50183
F1.0
I43407
F0.0
I0
F0.0
I0
F0.0
I2315
I1
I1400
tp1400
a(I1401
I93724
I50183
F1.0
I43541
F0.0
I0
F0.0
I0
F0.0
I2317
I1
I1401
tp1401
a(I1402
I94224
I50183
F1.0
I44041
F0.0
I0
F0.0
I0
F0.0
I2319
I1
I1402
tp1402
a(I1403
I94724
I50183
F1.0
I44541
F0.0
I0
F0.0
I0
F0.0
I2321
I1
I1403
tp1403
a(I1404
I94770
I50183
F1.0
I44587
F0.0
I0
F0.0
I0
F0.0
I2323
I1
I1404
tp1404
a(I1405
I94984
I50183
F1.0
I44801
F0.0
I0
F0.0
I0
F0.0
I2325
I1
I1405
tp1405
a(I1406
I95484
I50183
F1.0
I45301
F0.0
I0
F0.0
I0
F0.0
I2327
I1
I1406
tp1406
a(I1407
I95510
I50183
F1.0
I45327
F0.0
I0
F0.0
I0
F0.0
I2329
I1
I1407
tp1407
a(I1408
I96010
I50183
F1.0
I45827
F0.0
I0
F0.0
I0
F0.0
I2331
I1
I1408
tp1408
a(I1409
I96431
I50183
F1.0
I46248
F0.0
I0
F0.0
I0
F0.0
I2333
I1
I1409
tp1409
a(I1410
I96813
I50183
F1.0
I46630
F0.0
I0
F0.0
I0
F0.0
I2335
I1
I1410
tp1410
a(I1411
I97159
I50183
F1.0
I46976
F0.0
I0
F0.0
I0
F0.0
I2337
I1
I1411
tp1411
a(I1412
I97185
I50183
F1.0
I47002
F0.0
I0
F0.0
I0
F0.0
I2339
I1
I1412
tp1412
a(I1413
I97547
I50183
F1.0
I47364
F0.0
I0
F0.0
I0
F0.0
I2341
I1
I1413
tp1413
a(I1414
I97579
I50183
F1.0
I47396
F0.0
I0
F0.0
I0
F0.0
I2343
I1
I1414
tp1414
a(I1415
I97603
I50183
F1.0
I47420
F0.0
I0
F0.0
I0
F0.0
I2345
I1
I1415
tp1415
a(I1416
I98103
I50183
F1.0
I47920
F0.0
I0
F0.0
I0
F0.0
I2347
I1
I1416
tp1416
a(I1417
I98332
I50183
F1.0
I48149
F0.0
I0
F0.0
I0
F0.0
I2349
I1
I1417
tp1417
a(I1418
I98558
I50183
F1.0
I48375
F0.0
I0
F0.0
I0
F0.0
I2351
I1
I1418
tp1418
a(I1419
I98874
I50183
F1.0
I48691
F0.0
I0
F0.0
I0
F0.0
I2353
I1
I1419
tp1419
a(I1420
I99026
I50183
F1.0
I48843
F0.0
I0
F0.0
I0
F0.0
I2355
I1
I1420
tp1420
a(I1421
I99131
I50183
F1.0
I48948
F0.0
I0
F0.0
I0
F0.0
I2357
I1
I1421
tp1421
a(I1422
I99631
I50183
F1.0
I49448
F0.0
I0
F0.0
I0
F0.0
I2359
I1
I1422
tp1422
a(I1423
I99770
I50183
F1.0
I49587
F0.0
I0
F0.0
I0
F0.0
I2361
I1
I1423
tp1423
a(I1424
I100270
I50183
F1.0
I50087
F0.0
I0
F0.0
I0
F0.0
I2363
I1
I1424
tp1424
a(I1425
I100463
I50183
F1.0
I50280
F0.0
I0
F0.0
I0
F0.0
I2365
I1
I1425
tp1425
a(I1426
I100491
I50183
F1.0
I50308
F0.0
I0
F0.0
I0
F0.0
I2367
I1
I1426
tp1426
a(I1427
I100522
I50183
F1.0
I50339
F0.0
I0
F0.0
I0
F0.0
I2369
I1
I1427
tp1427
a(I1428
I101022
I50183
F1.0
I50839
F0.0
I0
F0.0
I0
F0.0
I2371
I1
I1428
tp1428
a(I1429
I101049
I50183
F1.0
I50866
F0.0
I0
F0.0
I0
F0.0
I2373
I1
I1429
tp1429
a(I1430
I101081
I50183
F1.0
I50898
F0.0
I0
F0.0
I0
F0.0
I2375
I1
I1430
tp1430
a(I1431
I101131
I50183
F1.0
I50948
F0.0
I0
F0.0
I0
F0.0
I2377
I1
I1431
tp1431
a(I1432
I101631
I50183
F1.0
I51448
F0.0
I0
F0.0
I0
F0.0
I2379
I1
I1432
tp1432
a(I1433
I101878
I50183
F1.0
I51695
F0.0
I0
F0.0
I0
F0.0
I2381
I1
I1433
tp1433
a(I1434
I102115
I50183
F1.0
I51932
F0.0
I0
F0.0
I0
F0.0
I2383
I1
I1434
tp1434
a(I1435
I102147
I50183
F1.0
I51964
F0.0
I0
F0.0
I0
F0.0
I2385
I1
I1435
tp1435
a(I1436
I102328
I50183
F1.0
I52145
F0.0
I0
F0.0
I0
F0.0
I2387
I1
I1436
tp1436
a(I1437
I102479
I50183
F1.0
I52296
F0.0
I0
F0.0
I0
F0.0
I2389
I1
I1437
tp1437
a(I1438
I102979
I50183
F1.0
I52796
F0.0
I0
F0.0
I0
F0.0
I2391
I1
I1438
tp1438
a(I1439
I103078
I50183
F1.0
I52895
F0.0
I0
F0.0
I0
F0.0
I2393
I1
I1439
tp1439
a(I1440
I103128
I50183
F1.0
I52945
F0.0
I0
F0.0
I0
F0.0
I2395
I1
I1440
tp1440
a(I1441
I103372
I50183
F1.0
I53189
F0.0
I0
F0.0
I0
F0.0
I2397
I1
I1441
tp1441
a(I1442
I103650
I50183
F1.0
I53467
F0.0
I0
F0.0
I0
F0.0
I2399
I1
I1442
tp1442
a(I1443
I103883
I50183
F1.0
I53700
F0.0
I0
F0.0
I0
F0.0
I2401
I1
I1443
tp1443
a(I1444
I103928
I50183
F1.0
I53745
F0.0
I0
F0.0
I0
F0.0
I2403
I1
I1444
tp1444
a(I1445
I103974
I50183
F1.0
I53791
F0.0
I0
F0.0
I0
F0.0
I2405
I1
I1445
tp1445
a(I1446
I104111
I50183
F1.0
I53928
F0.0
I0
F0.0
I0
F0.0
I2407
I1
I1446
tp1446
a(I1447
I104424
I50183
F1.0
I54241
F0.0
I0
F0.0
I0
F0.0
I2409
I1
I1447
tp1447
a(I1448
I104462
I50183
F1.0
I54279
F0.0
I0
F0.0
I0
F0.0
I2411
I1
I1448
tp1448
a(I1449
I104502
I50183
F1.0
I54319
F0.0
I0
F0.0
I0
F0.0
I2413
I1
I1449
tp1449
a(I1450
I104833
I50183
F1.0
I54650
F0.0
I0
F0.0
I0
F0.0
I2415
I1
I1450
tp1450
a(I1451
I105150
I50183
F1.0
I54967
F0.0
I0
F0.0
I0
F0.0
I2417
I1
I1451
tp1451
a(I1452
I105176
I50183
F1.0
I54993
F0.0
I0
F0.0
I0
F0.0
I2419
I1
I1452
tp1452
a(I1453
I105217
I50183
F1.0
I55034
F0.0
I0
F0.0
I0
F0.0
I2421
I1
I1453
tp1453
a(I1454
I105360
I50183
F1.0
I55177
F0.0
I0
F0.0
I0
F0.0
I2423
I1
I1454
tp1454
a(I1455
I105860
I50183
F1.0
I55677
F0.0
I0
F0.0
I0
F0.0
I2425
I1
I1455
tp1455
a(I1456
I106152
I50183
F1.0
I55969
F0.0
I0
F0.0
I0
F0.0
I2427
I1
I1456
tp1456
a(I1457
I106179
I50183
F1.0
I55996
F0.0
I0
F0.0
I0
F0.0
I2429
I1
I1457
tp1457
a(I1458
I106679
I50183
F1.0
I56496
F0.0
I0
F0.0
I0
F0.0
I2431
I1
I1458
tp1458
a(I1459
I107156
I50183
F1.0
I56973
F0.0
I0
F0.0
I0
F0.0
I2433
I1
I1459
tp1459
a(I1460
I107656
I50183
F1.0
I57473
F0.0
I0
F0.0
I0
F0.0
I2435
I1
I1460
tp1460
a(I1461
I108156
I50183
F1.0
I57973
F0.0
I0
F0.0
I0
F0.0
I2437
I1
I1461
tp1461
a(I1462
I108198
I50183
F1.0
I58015
F0.0
I0
F0.0
I0
F0.0
I2439
I1
I1462
tp1462
a(I1463
I108305
I50183
F1.0
I58122
F0.0
I0
F0.0
I0
F0.0
I2441
I1
I1463
tp1463
a(I1464
I108805
I50183
F1.0
I58622
F0.0
I0
F0.0
I0
F0.0
I2443
I1
I1464
tp1464
a(I1465
I109305
I50183
F1.0
I59122
F0.0
I0
F0.0
I0
F0.0
I2445
I1
I1465
tp1465
a(I1466
I109340
I50183
F1.0
I59157
F0.0
I0
F0.0
I0
F0.0
I2447
I1
I1466
tp1466
a(I1467
I109696
I50183
F1.0
I59513
F0.0
I0
F0.0
I0
F0.0
I2449
I1
I1467
tp1467
a(I1468
I110196
I50183
F1.0
I60013
F0.0
I0
F0.0
I0
F0.0
I2451
I1
I1468
tp1468
a(I1469
I110591
I50183
F1.0
I60408
F0.0
I0
F0.0
I0
F0.0
I2453
I1
I1469
tp1469
a(I1470
I110719
I50183
F1.0
I60536
F0.0
I0
F0.0
I0
F0.0
I2455
I1
I1470
tp1470
a(I1471
I110940
I50183
F1.0
I60757
F0.0
I0
F0.0
I0
F0.0
I2457
I1
I1471
tp1471
a(I1472
I111440
I50183
F1.0
I61257
F0.0
I0
F0.0
I0
F0.0
I2459
I1
I1472
tp1472
a(I1473
I111503
I50183
F1.0
I61320
F0.0
I0
F0.0
I0
F0.0
I2461
I1
I1473
tp1473
a(I1474
I112003
I50183
F1.0
I61820
F0.0
I0
F0.0
I0
F0.0
I2463
I1
I1474
tp1474
a(I1475
I112503
I50183
F1.0
I62320
F0.0
I0
F0.0
I0
F0.0
I2465
I1
I1475
tp1475
a(I1476
I113003
I50183
F1.0
I62820
F0.0
I0
F0.0
I0
F0.0
I2467
I1
I1476
tp1476
a(I1477
I113435
I50183
F1.0
I63252
F0.0
I0
F0.0
I0
F0.0
I2469
I1
I1477
tp1477
a(I1478
I113478
I50183
F1.0
I63295
F0.0
I0
F0.0
I0
F0.0
I2471
I1
I1478
tp1478
a(I1479
I113681
I50183
F1.0
I63498
F0.0
I0
F0.0
I0
F0.0
I2473
I1
I1479
tp1479
a(I1480
I113724
I50183
F1.0
I63541
F0.0
I0
F0.0
I0
F0.0
I2475
I1
I1480
tp1480
a(I1481
I113856
I50183
F1.0
I63673
F0.0
I0
F0.0
I0
F0.0
I2477
I1
I1481
tp1481
a(I1482
I114356
I50183
F1.0
I64173
F0.0
I0
F0.0
I0
F0.0
I2479
I1
I1482
tp1482
a(I1483
I114856
I50183
F1.0
I64673
F0.0
I0
F0.0
I0
F0.0
I2481
I1
I1483
tp1483
a(I1484
I115067
I50183
F1.0
I64884
F0.0
I0
F0.0
I0
F0.0
I2483
I1
I1484
tp1484
a(I1485
I115092
I50183
F1.0
I64909
F0.0
I0
F0.0
I0
F0.0
I2485
I1
I1485
tp1485
a(I1486
I115592
I50183
F1.0
I65409
F0.0
I0
F0.0
I0
F0.0
I2487
I1
I1486
tp1486
a(I1487
I115637
I50183
F1.0
I65454
F0.0
I0
F0.0
I0
F0.0
I2489
I1
I1487
tp1487
a(I1488
I116137
I50183
F1.0
I65954
F0.0
I0
F0.0
I0
F0.0
I2491
I1
I1488
tp1488
a(I1489
I116637
I50183
F1.0
I66454
F0.0
I0
F0.0
I0
F0.0
I2493
I1
I1489
tp1489
a(I1490
I116712
I50183
F1.0
I66529
F0.0
I0
F0.0
I0
F0.0
I2495
I1
I1490
tp1490
a(I1491
I116769
I50183
F1.0
I66586
F0.0
I0
F0.0
I0
F0.0
I2497
I1
I1491
tp1491
a(I1492
I116814
I50183
F1.0
I66631
F0.0
I0
F0.0
I0
F0.0
I2499
I1
I1492
tp1492
a(I1493
I117314
I50183
F1.0
I67131
F0.0
I0
F0.0
I0
F0.0
I2501
I1
I1493
tp1493
a(I1494
I117814
I50183
F1.0
I67631
F0.0
I0
F0.0
I0
F0.0
I2503
I1
I1494
tp1494
a(I1495
I117955
I50183
F1.0
I67772
F0.0
I0
F0.0
I0
F0.0
I2505
I1
I1495
tp1495
a(I1496
I118333
I50183
F1.0
I68150
F0.0
I0
F0.0
I0
F0.0
I2507
I1
I1496
tp1496
a(I1497
I118833
I50183
F1.0
I68650
F0.0
I0
F0.0
I0
F0.0
I2509
I1
I1497
tp1497
a(I1498
I119333
I50183
F1.0
I69150
F0.0
I0
F0.0
I0
F0.0
I2511
I1
I1498
tp1498
a(I1499
I119833
I50183
F1.0
I69650
F0.0
I0
F0.0
I0
F0.0
I2513
I1
I1499
tp1499
a(I1500
I120172
I50183
F1.0
I69989
F0.0
I0
F0.0
I0
F0.0
I2515
I1
I1500
tp1500
a(I1501
I120431
I50183
F1.0
I70248
F0.0
I0
F0.0
I0
F0.0
I2517
I1
I1501
tp1501
a(I1502
I120751
I50183
F1.0
I70568
F0.0
I0
F0.0
I0
F0.0
I2519
I1
I1502
tp1502
a(I1503
I120839
I50183
F1.0
I70656
F0.0
I0
F0.0
I0
F0.0
I2521
I1
I1503
tp1503
a(I1504
I121339
I50183
F1.0
I71156
F0.0
I0
F0.0
I0
F0.0
I2523
I1
I1504
tp1504
a(I1505
I121839
I50183
F1.0
I71656
F0.0
I0
F0.0
I0
F0.0
I2525
I1
I1505
tp1505
a(I1506
I121877
I50183
F1.0
I71694
F0.0
I0
F0.0
I0
F0.0
I2527
I1
I1506
tp1506
a(I1507
I122220
I50183
F1.0
I72037
F0.0
I0
F0.0
I0
F0.0
I2529
I1
I1507
tp1507
a(I1508
I122720
I50183
F1.0
I72537
F0.0
I0
F0.0
I0
F0.0
I2531
I1
I1508
tp1508
a(I1509
I122751
I50183
F1.0
I72568
F0.0
I0
F0.0
I0
F0.0
I2533
I1
I1509
tp1509
a(I1510
I123251
I50183
F1.0
I73068
F0.0
I0
F0.0
I0
F0.0
I2535
I1
I1510
tp1510
a(I1511
I123751
I50183
F1.0
I73568
F0.0
I0
F0.0
I0
F0.0
I2537
I1
I1511
tp1511
a(I1512
I124030
I50183
F1.0
I73847
F0.0
I0
F0.0
I0
F0.0
I2539
I1
I1512
tp1512
a(I1513
I124530
I50183
F1.0
I74347
F0.0
I0
F0.0
I0
F0.0
I2541
I1
I1513
tp1513
a(I1514
I124939
I50183
F1.0
I74756
F0.0
I0
F0.0
I0
F0.0
I2543
I1
I1514
tp1514
a(I1515
I125439
I50183
F1.0
I75256
F0.0
I0
F0.0
I0
F0.0
I2545
I1
I1515
tp1515
a(I1516
I125500
I50183
F1.0
I75317
F0.0
I0
F0.0
I0
F0.0
I2547
I1
I1516
tp1516
a(I1517
I125735
I50183
F1.0
I75552
F0.0
I0
F0.0
I0
F0.0
I2549
I1
I1517
tp1517
a(I1518
I126235
I50183
F1.0
I76052
F0.0
I0
F0.0
I0
F0.0
I2551
I1
I1518
tp1518
a(I1519
I126735
I50183
F1.0
I76552
F0.0
I0
F0.0
I0
F0.0
I2553
I1
I1519
tp1519
a(I1520
I126751
I50183
F1.0
I76568
F0.0
I0
F0.0
I0
F0.0
I2555
I1
I1520
tp1520
a(I1521
I127251
I50183
F1.0
I77068
F0.0
I0
F0.0
I0
F0.0
I2557
I1
I1521
tp1521
a(I1522
I127623
I50183
F1.0
I77440
F0.0
I0
F0.0
I0
F0.0
I2559
I1
I1522
tp1522
a(I1523
I128123
I50183
F1.0
I77940
F0.0
I0
F0.0
I0
F0.0
I2561
I1
I1523
tp1523
a(I1524
I128157
I50183
F1.0
I77974
F0.0
I0
F0.0
I0
F0.0
I2563
I1
I1524
tp1524
a(I1525
I128497
I50183
F1.0
I78314
F0.0
I0
F0.0
I0
F0.0
I2565
I1
I1525
tp1525
a(I1526
I128749
I50183
F1.0
I78566
F0.0
I0
F0.0
I0
F0.0
I2567
I1
I1526
tp1526
a(I1527
I129164
I50183
F1.0
I78981
F0.0
I0
F0.0
I0
F0.0
I2569
I1
I1527
tp1527
a(I1528
I129194
I50183
F1.0
I79011
F0.0
I0
F0.0
I0
F0.0
I2571
I1
I1528
tp1528
a(I1529
I129233
I50183
F1.0
I79050
F0.0
I0
F0.0
I0
F0.0
I2573
I1
I1529
tp1529
a(I1530
I129333
I50183
F1.0
I79150
F0.0
I0
F0.0
I0
F0.0
I2575
I1
I1530
tp1530
a(I1531
I129477
I50183
F1.0
I79294
F0.0
I0
F0.0
I0
F0.0
I2577
I1
I1531
tp1531
a(I1532
I129977
I50183
F1.0
I79794
F0.0
I0
F0.0
I0
F0.0
I2579
I1
I1532
tp1532
a(I1533
I130477
I50183
F1.0
I80294
F0.0
I0
F0.0
I0
F0.0
I2581
I1
I1533
tp1533
a(I1534
I130584
I50183
F1.0
I80401
F0.0
I0
F0.0
I0
F0.0
I2583
I1
I1534
tp1534
a(I1535
I130703
I50183
F1.0
I80520
F0.0
I0
F0.0
I0
F0.0
I2585
I1
I1535
tp1535
a(I1536
I130729
I50183
F1.0
I80546
F0.0
I0
F0.0
I0
F0.0
I2587
I1
I1536
tp1536
a(I1537
I131229
I50183
F1.0
I81046
F0.0
I0
F0.0
I0
F0.0
I2589
I1
I1537
tp1537
a(I1538
I131729
I50183
F1.0
I81546
F0.0
I0
F0.0
I0
F0.0
I2591
I1
I1538
tp1538
a(I1539
I132093
I50183
F1.0
I81910
F0.0
I0
F0.0
I0
F0.0
I2593
I1
I1539
tp1539
a(I1540
I132593
I50183
F1.0
I82410
F0.0
I0
F0.0
I0
F0.0
I2595
I1
I1540
tp1540
a(I1541
I132816
I50183
F1.0
I82633
F0.0
I0
F0.0
I0
F0.0
I2597
I1
I1541
tp1541
a(I1542
I133316
I50183
F1.0
I83133
F0.0
I0
F0.0
I0
F0.0
I2599
I1
I1542
tp1542
a(I1543
I133796
I50183
F1.0
I83613
F0.0
I0
F0.0
I0
F0.0
I2601
I1
I1543
tp1543
a(I1544
I134296
I50183
F1.0
I84113
F0.0
I0
F0.0
I0
F0.0
I2603
I1
I1544
tp1544
a(I1545
I134796
I50183
F1.0
I84613
F0.0
I0
F0.0
I0
F0.0
I2605
I1
I1545
tp1545
a(I1546
I135296
I50183
F1.0
I85113
F0.0
I0
F0.0
I0
F0.0
I2607
I1
I1546
tp1546
a(I1547
I135364
I50183
F1.0
I85181
F0.0
I0
F0.0
I0
F0.0
I2609
I1
I1547
tp1547
a(I1548
I135715
I50183
F1.0
I85532
F0.0
I0
F0.0
I0
F0.0
I2611
I1
I1548
tp1548
a(I1549
I136215
I50183
F1.0
I86032
F0.0
I0
F0.0
I0
F0.0
I2613
I1
I1549
tp1549
a(I1550
I136715
I50183
F1.0
I86532
F0.0
I0
F0.0
I0
F0.0
I2615
I1
I1550
tp1550
a(I1551
I137215
I50183
F1.0
I87032
F0.0
I0
F0.0
I0
F0.0
I2617
I1
I1551
tp1551
a(I1552
I137447
I50183
F1.0
I87264
F0.0
I0
F0.0
I0
F0.0
I2619
I1
I1552
tp1552
a(I1553
I137580
I50183
F1.0
I87397
F0.0
I0
F0.0
I0
F0.0
I2621
I1
I1553
tp1553
a(I1554
I137614
I50183
F1.0
I87431
F0.0
I0
F0.0
I0
F0.0
I2623
I1
I1554
tp1554
a(I1555
I137669
I50183
F1.0
I87486
F0.0
I0
F0.0
I0
F0.0
I2625
I1
I1555
tp1555
a(I1556
I137859
I50183
F1.0
I87676
F0.0
I0
F0.0
I0
F0.0
I2627
I1
I1556
tp1556
a(I1557
I138359
I50183
F1.0
I88176
F0.0
I0
F0.0
I0
F0.0
I2629
I1
I1557
tp1557
a(I1558
I138638
I50183
F1.0
I88455
F0.01
I0
F0.0
I0
F0.0
I2632
I2
I1558
tp1558
a(I1559
I139033
I50183
F1.0
I88850
F0.01
I0
F0.0
I0
F0.0
I2634
I1
I1559
tp1559
a(I1560
I139434
I50183
F1.0
I89251
F0.01
I0
F0.0
I0
F0.0
I2636
I1
I1560
tp1560
a(I1561
I139921
I50183
F1.0
I89738
F0.01
I0
F0.0
I0
F0.0
I2638
I1
I1561
tp1561
a(I1562
I140421
I50183
F1.0
I90238
F0.01
I0
F0.0
I0
F0.0
I2640
I1
I1562
tp1562
a(I1563
I140921
I50183
F1.0
I90738
F0.01
I0
F0.0
I0
F0.0
I2642
I1
I1563
tp1563
a(I1564
I141340
I50183
F1.0
I91157
F0.01
I0
F0.0
I0
F0.0
I2644
I1
I1564
tp1564
a(I1565
I141628
I50183
F1.0
I91445
F0.01
I0
F0.0
I0
F0.0
I2646
I1
I1565
tp1565
a(I1566
I141670
I50183
F1.0
I91487
F0.01
I0
F0.0
I0
F0.0
I2648
I1
I1566
tp1566
a(I1567
I142170
I50183
F1.0
I91987
F0.01
I0
F0.0
I0
F0.0
I2650
I1
I1567
tp1567
a(I1568
I142323
I50183
F1.0
I92140
F0.01
I0
F0.0
I0
F0.0
I2652
I1
I1568
tp1568
a(I1569
I142823
I50183
F1.0
I92640
F0.01
I0
F0.0
I0
F0.0
I2654
I1
I1569
tp1569
a(I1570
I143047
I50183
F1.0
I92864
F0.01
I0
F0.0
I0
F0.0
I2656
I1
I1570
tp1570
a(I1571
I143547
I50183
F1.0
I93364
F0.01
I0
F0.0
I0
F0.0
I2658
I1
I1571
tp1571
a(I1572
I143641
I50183
F1.0
I93458
F0.01
I0
F0.0
I0
F0.0
I2660
I1
I1572
tp1572
a(I1573
I144141
I50183
F1.0
I93958
F0.01
I0
F0.0
I0
F0.0
I2662
I1
I1573
tp1573
a(I1574
I144641
I50183
F1.0
I94458
F0.01
I0
F0.0
I0
F0.0
I2664
I1
I1574
tp1574
a(I1575
I145141
I50183
F1.0
I94958
F0.01
I0
F0.0
I0
F0.0
I2666
I1
I1575
tp1575
a(I1576
I145641
I50183
F1.0
I95458
F0.01
I0
F0.0
I0
F0.0
I2668
I1
I1576
tp1576
a(I1577
I145998
I50183
F1.0
I95815
F0.01
I0
F0.0
I0
F0.0
I2670
I1
I1577
tp1577
a(I1578
I146498
I50183
F1.0
I96315
F0.01
I0
F0.0
I0
F0.0
I2672
I1
I1578
tp1578
a(I1579
I146998
I50183
F1.0
I96815
F0.01
I0
F0.0
I0
F0.0
I2674
I1
I1579
tp1579
a(I1580
I147498
I50183
F1.0
I97315
F0.01
I0
F0.0
I0
F0.0
I2676
I1
I1580
tp1580
a(I1581
I147998
I50183
F1.0
I97815
F0.01
I0
F0.0
I0
F0.0
I2678
I1
I1581
tp1581
a(I1582
I148498
I50183
F1.0
I98315
F0.01
I0
F0.0
I0
F0.0
I2680
I1
I1582
tp1582
a(I1583
I148998
I50183
F1.0
I98815
F0.01
I0
F0.0
I0
F0.0
I2682
I1
I1583
tp1583
a(I1584
I149118
I50183
F1.0
I98935
F0.01
I0
F0.0
I0
F0.0
I2684
I1
I1584
tp1584
a(I1585
I149213
I50183
F1.0
I99030
F0.01
I0
F0.0
I0
F0.0
I2686
I1
I1585
tp1585
a(I1586
I149638
I50183
F1.0
I99455
F0.01
I0
F0.0
I0
F0.0
I2688
I1
I1586
tp1586
a(I1587
I149778
I50183
F1.0
I99595
F0.01
I0
F0.0
I0
F0.0
I2690
I1
I1587
tp1587
a(I1588
I150278
I50183
F1.0
I100095
F0.01
I0
F0.0
I0
F0.0
I2692
I1
I1588
tp1588
a(I1589
I150643
I50183
F1.0
I100460
F0.01
I0
F0.0
I0
F0.0
I2694
I1
I1589
tp1589
a(I1590
I150865
I50183
F1.0
I100682
F0.01
I0
F0.0
I0
F0.0
I2696
I1
I1590
tp1590
a(I1591
I151281
I50183
F1.0
I101098
F0.01
I0
F0.0
I0
F0.0
I2698
I1
I1591
tp1591
a(I1592
I151549
I50183
F1.0
I101366
F0.01
I0
F0.0
I0
F0.0
I2700
I1
I1592
tp1592
a(I1593
I152049
I50183
F1.0
I101866
F0.01
I0
F0.0
I0
F0.0
I2702
I1
I1593
tp1593
a(I1594
I152549
I50183
F1.0
I102366
F0.01
I0
F0.0
I0
F0.0
I2704
I1
I1594
tp1594
a(I1595
I153049
I50183
F1.0
I102866
F0.01
I0
F0.0
I0
F0.0
I2706
I1
I1595
tp1595
a(I1596
I153549
I50183
F1.0
I103366
F0.01
I0
F0.0
I0
F0.0
I2708
I1
I1596
tp1596
a(I1597
I153786
I50183
F1.0
I103603
F0.01
I0
F0.0
I0
F0.0
I2710
I1
I1597
tp1597
a(I1598
I154286
I50183
F1.0
I104103
F0.01
I0
F0.0
I0
F0.0
I2712
I1
I1598
tp1598
a(I1599
I154786
I50183
F1.0
I104603
F0.01
I0
F0.0
I0
F0.0
I2714
I1
I1599
tp1599
a(I1600
I155071
I50183
F1.0
I104888
F0.01
I0
F0.0
I0
F0.0
I2716
I1
I1600
tp1600
a(I1601
I155571
I50183
F1.0
I105388
F0.01
I0
F0.0
I0
F0.0
I2718
I1
I1601
tp1601
a(I1602
I156071
I50183
F1.0
I105888
F0.01
I0
F0.0
I0
F0.0
I2720
I1
I1602
tp1602
a(I1603
I156571
I50183
F1.0
I106388
F0.01
I0
F0.0
I0
F0.0
I2722
I1
I1603
tp1603
a(I1604
I157071
I50183
F1.0
I106888
F0.01
I0
F0.0
I0
F0.0
I2724
I1
I1604
tp1604
a(I1605
I157571
I50183
F1.0
I107388
F0.01
I0
F0.0
I0
F0.0
I2726
I1
I1605
tp1605
a(I1606
I158071
I50183
F1.0
I107888
F0.01
I0
F0.0
I0
F0.0
I2728
I1
I1606
tp1606
a(I1607
I158395
I50183
F1.0
I108212
F0.01
I0
F0.0
I0
F0.0
I2730
I1
I1607
tp1607
a(I1608
I158439
I50183
F1.0
I108256
F0.01
I0
F0.0
I0
F0.0
I2732
I1
I1608
tp1608
a(I1609
I158939
I50183
F1.0
I108756
F0.01
I0
F0.0
I0
F0.0
I2734
I1
I1609
tp1609
a(I1610
I159053
I50183
F1.0
I108870
F0.01
I0
F0.0
I0
F0.0
I2736
I1
I1610
tp1610
a(I1611
I159518
I50183
F1.0
I109335
F0.01
I0
F0.0
I0
F0.0
I2738
I1
I1611
tp1611
a(I1612
I160018
I50183
F1.0
I109835
F0.01
I0
F0.0
I0
F0.0
I2740
I1
I1612
tp1612
a(I1613
I160518
I50183
F1.0
I110335
F0.01
I0
F0.0
I0
F0.0
I2742
I1
I1613
tp1613
a(I1614
I161018
I50183
F1.0
I110835
F0.01
I0
F0.0
I0
F0.0
I2744
I1
I1614
tp1614
a(I1615
I161518
I50183
F1.0
I111335
F0.01
I0
F0.0
I0
F0.0
I2746
I1
I1615
tp1615
a(I1616
I162018
I50183
F1.0
I111835
F0.01
I0
F0.0
I0
F0.0
I2748
I1
I1616
tp1616
a(I1617
I162518
I50183
F1.0
I112335
F0.01
I0
F0.0
I0
F0.0
I2750
I1
I1617
tp1617
a(I1618
I162540
I50183
F1.0
I112357
F0.01
I0
F0.0
I0
F0.0
I2752
I1
I1618
tp1618
a(I1619
I163040
I50183
F1.0
I112857
F0.01
I0
F0.0
I0
F0.0
I2754
I1
I1619
tp1619
a(I1620
I163540
I50183
F1.0
I113357
F0.01
I0
F0.0
I0
F0.0
I2756
I1
I1620
tp1620
a(I1621
I163984
I50183
F1.0
I113801
F0.01
I0
F0.0
I0
F0.0
I2758
I1
I1621
tp1621
a(I1622
I164484
I50183
F1.0
I114301
F0.01
I0
F0.0
I0
F0.0
I2760
I1
I1622
tp1622
a(I1623
I164535
I50183
F1.0
I114352
F0.01
I0
F0.0
I0
F0.0
I2762
I1
I1623
tp1623
a(I1624
I165035
I50183
F1.0
I114852
F0.01
I0
F0.0
I0
F0.0
I2764
I1
I1624
tp1624
a(I1625
I165465
I50183
F1.0
I115282
F0.01
I0
F0.0
I0
F0.0
I2766
I1
I1625
tp1625
a(I1626
I165585
I50183
F1.0
I115402
F0.01
I0
F0.0
I0
F0.0
I2768
I1
I1626
tp1626
a(I1627
I166085
I50183
F1.0
I115902
F0.01
I0
F0.0
I0
F0.0
I2770
I1
I1627
tp1627
a(I1628
I166585
I50183
F1.0
I116402
F0.01
I0
F0.0
I0
F0.0
I2772
I1
I1628
tp1628
a(I1629
I166619
I50183
F1.0
I116436
F0.01
I0
F0.0
I0
F0.0
I2774
I1
I1629
tp1629
a(I1630
I167119
I50183
F1.0
I116936
F0.01
I0
F0.0
I0
F0.0
I2776
I1
I1630
tp1630
a(I1631
I167150
I50183
F1.0
I116967
F0.01
I0
F0.0
I0
F0.0
I2778
I1
I1631
tp1631
a(I1632
I167650
I50183
F1.0
I117467
F0.01
I0
F0.0
I0
F0.0
I2780
I1
I1632
tp1632
a(I1633
I168150
I50183
F1.0
I117967
F0.01
I0
F0.0
I0
F0.0
I2782
I1
I1633
tp1633
a(I1634
I168650
I50183
F1.0
I118467
F0.01
I0
F0.0
I0
F0.0
I2784
I1
I1634
tp1634
a(I1635
I169150
I50183
F1.0
I118967
F0.01
I0
F0.0
I0
F0.0
I2786
I1
I1635
tp1635
a(I1636
I169650
I50183
F1.0
I119467
F0.01
I0
F0.0
I0
F0.0
I2788
I1
I1636
tp1636
a(I1637
I170150
I50183
F1.0
I119967
F0.01
I0
F0.0
I0
F0.0
I2790
I1
I1637
tp1637
a(I1638
I170650
I50183
F1.0
I120467
F0.01
I0
F0.0
I0
F0.0
I2792
I1
I1638
tp1638
a(I1639
I171150
I50183
F1.0
I120967
F0.01
I0
F0.0
I0
F0.0
I2794
I1
I1639
tp1639
a(I1640
I171650
I50183
F1.0
I121467
F0.01
I0
F0.0
I0
F0.0
I2796
I1
I1640
tp1640
a(I1641
I171875
I50183
F1.0
I121692
F0.01
I0
F0.0
I0
F0.0
I2798
I1
I1641
tp1641
a(I1642
I172375
I50183
F1.0
I122192
F0.01
I0
F0.0
I0
F0.0
I2800
I1
I1642
tp1642
a(I1643
I172875
I50183
F1.0
I122692
F0.01
I0
F0.0
I0
F0.0
I2802
I1
I1643
tp1643
a(I1644
I173375
I50183
F1.0
I123192
F0.01
I0
F0.0
I0
F0.0
I2804
I1
I1644
tp1644
a(I1645
I173875
I50183
F1.0
I123692
F0.01
I0
F0.0
I0
F0.0
I2806
I1
I1645
tp1645
a(I1646
I174375
I50183
F1.0
I124192
F0.01
I0
F0.0
I0
F0.0
I2808
I1
I1646
tp1646
a(I1647
I174875
I50183
F1.0
I124692
F0.01
I0
F0.0
I0
F0.0
I2810
I1
I1647
tp1647
a(I1648
I175375
I50183
F1.0
I125192
F0.01
I0
F0.0
I0
F0.0
I2812
I1
I1648
tp1648
a(I1649
I175875
I50183
F1.0
I125692
F0.01
I0
F0.0
I0
F0.0
I2814
I1
I1649
tp1649
a(I1650
I176375
I50183
F1.0
I126192
F0.01
I0
F0.0
I0
F0.0
I2816
I1
I1650
tp1650
a(I1651
I176875
I50183
F1.0
I126692
F0.01
I0
F0.0
I0
F0.0
I2818
I1
I1651
tp1651
a(I1652
I177375
I50183
F1.0
I127192
F0.01
I0
F0.0
I0
F0.0
I2820
I1
I1652
tp1652
a(I1653
I177875
I50183
F1.0
I127692
F0.01
I0
F0.0
I0
F0.0
I2822
I1
I1653
tp1653
a(I1654
I178009
I50183
F1.0
I127826
F0.01
I0
F0.0
I0
F0.0
I2824
I1
I1654
tp1654
a(I1655
I178291
I50183
F1.0
I128108
F0.01
I0
F0.0
I0
F0.0
I2826
I1
I1655
tp1655
a(I1656
I178616
I50183
F1.0
I128433
F0.01
I0
F0.0
I0
F0.0
I2828
I1
I1656
tp1656
a(I1657
I179064
I50183
F1.0
I128881
F0.01
I0
F0.0
I0
F0.0
I2830
I1
I1657
tp1657
a(I1658
I179197
I50183
F1.0
I129014
F0.0
I0
F0.0
I0
F0.0
I2832
I1
I1658
tp1658
a(I1659
I179697
I50183
F1.0
I129514
F0.0
I0
F0.0
I0
F0.0
I2834
I1
I1659
tp1659
a(I1660
I180197
I50183
F1.0
I130014
F0.0
I0
F0.0
I0
F0.0
I2836
I1
I1660
tp1660
a(I1661
I180697
I50183
F1.0
I130514
F0.0
I0
F0.0
I0
F0.0
I2838
I1
I1661
tp1661
a(I1662
I181118
I50183
F1.0
I130935
F0.0
I0
F0.0
I0
F0.0
I2840
I1
I1662
tp1662
a(I1663
I181618
I50183
F1.0
I131435
F0.0
I0
F0.0
I0
F0.0
I2842
I1
I1663
tp1663
a(I1664
I182118
I50183
F1.0
I131935
F0.0
I0
F0.0
I0
F0.0
I2844
I1
I1664
tp1664
a(I1665
I182618
I50183
F1.0
I132435
F0.0
I0
F0.0
I0
F0.0
I2846
I1
I1665
tp1665
a(I1666
I183118
I50183
F1.0
I132935
F0.0
I0
F0.0
I0
F0.0
I2848
I1
I1666
tp1666
a(I1667
I183618
I50183
F1.0
I133435
F0.0
I0
F0.0
I0
F0.0
I2850
I1
I1667
tp1667
a(I1668
I184118
I50183
F1.0
I133935
F0.0
I0
F0.0
I0
F0.0
I2852
I1
I1668
tp1668
a(I1669
I184371
I50183
F1.0
I134188
F0.0
I0
F0.0
I0
F0.0
I2854
I1
I1669
tp1669
a(I1670
I184701
I50183
F1.0
I134518
F0.0
I0
F0.0
I0
F0.0
I2856
I1
I1670
tp1670
a(I1671
I185201
I50183
F1.0
I135018
F0.0
I0
F0.0
I0
F0.0
I2858
I1
I1671
tp1671
a(I1672
I185701
I50183
F1.0
I135518
F0.0
I0
F0.0
I0
F0.0
I2860
I1
I1672
tp1672
a(I1673
I186201
I50183
F1.0
I136018
F0.0
I0
F0.0
I0
F0.0
I2862
I1
I1673
tp1673
a(I1674
I186701
I50183
F1.0
I136518
F0.0
I0
F0.0
I0
F0.0
I2864
I1
I1674
tp1674
a(I1675
I187201
I50183
F1.0
I137018
F0.0
I0
F0.0
I0
F0.0
I2866
I1
I1675
tp1675
a(I1676
I187701
I50183
F1.0
I137518
F0.0
I0
F0.0
I0
F0.0
I2868
I1
I1676
tp1676
a(I1677
I188201
I50183
F1.0
I138018
F0.0
I0
F0.0
I0
F0.0
I2870
I1
I1677
tp1677
a(I1678
I188701
I50183
F1.0
I138518
F0.0
I0
F0.0
I0
F0.0
I2872
I1
I1678
tp1678
a(I1679
I189064
I50183
F1.0
I138881
F0.0
I0
F0.0
I0
F0.0
I2874
I1
I1679
tp1679
a(I1680
I189564
I50183
F1.0
I139381
F0.0
I0
F0.0
I0
F0.0
I2876
I1
I1680
tp1680
a(I1681
I190064
I50183
F1.0
I139881
F0.0
I0
F0.0
I0
F0.0
I2878
I1
I1681
tp1681
a(I1682
I190564
I50183
F1.0
I140381
F0.0
I0
F0.0
I0
F0.0
I2880
I1
I1682
tp1682
a(I1683
I190789
I50183
F1.0
I140606
F0.0
I0
F0.0
I0
F0.0
I2882
I1
I1683
tp1683
a(I1684
I191028
I50183
F1.0
I140845
F0.0
I0
F0.0
I0
F0.0
I2884
I1
I1684
tp1684
a(I1685
I191528
I50183
F1.0
I141345
F0.0
I0
F0.0
I0
F0.0
I2886
I1
I1685
tp1685
a(I1686
I192028
I50183
F1.0
I141845
F0.0
I0
F0.0
I0
F0.0
I2888
I1
I1686
tp1686
a(I1687
I192528
I50183
F1.0
I142345
F0.0
I0
F0.0
I0
F0.0
I2890
I1
I1687
tp1687
a(I1688
I193028
I50183
F1.0
I142845
F0.0
I0
F0.0
I0
F0.0
I2892
I1
I1688
tp1688
a(I1689
I193528
I50183
F1.0
I143345
F0.0
I0
F0.0
I0
F0.0
I2894
I1
I1689
tp1689
a(I1690
I194028
I50183
F1.0
I143845
F0.0
I0
F0.0
I0
F0.0
I2896
I1
I1690
tp1690
a(I1691
I194528
I50183
F1.0
I144345
F0.0
I0
F0.0
I0
F0.0
I2898
I1
I1691
tp1691
a(I1692
I195028
I50183
F1.0
I144845
F0.0
I0
F0.0
I0
F0.0
I2900
I1
I1692
tp1692
a(I1693
I195069
I50183
F1.0
I144886
F0.0
I0
F0.0
I0
F0.0
I2902
I1
I1693
tp1693
a(I1694
I195569
I50183
F1.0
I145386
F0.0
I0
F0.0
I0
F0.0
I2904
I1
I1694
tp1694
a(I1695
I196069
I50183
F1.0
I145886
F0.0
I0
F0.0
I0
F0.0
I2906
I1
I1695
tp1695
a(I1696
I196569
I50183
F1.0
I146386
F0.0
I0
F0.0
I0
F0.0
I2908
I1
I1696
tp1696
a(I1697
I197069
I50183
F1.0
I146886
F0.0
I0
F0.0
I0
F0.0
I2910
I1
I1697
tp1697
a(I1698
I197569
I50183
F1.0
I147386
F0.0
I0
F0.0
I0
F0.0
I2912
I1
I1698
tp1698
a(I1699
I198069
I50183
F1.0
I147886
F0.0
I0
F0.0
I0
F0.0
I2914
I1
I1699
tp1699
a(I1700
I198524
I50183
F1.0
I148341
F0.0
I0
F0.0
I0
F0.0
I2916
I1
I1700
tp1700
a(I1701
I199024
I50183
F1.0
I148841
F0.0
I0
F0.0
I0
F0.0
I2918
I1
I1701
tp1701
a(I1702
I199524
I50183
F1.0
I149341
F0.0
I0
F0.0
I0
F0.0
I2920
I1
I1702
tp1702
a(I1703
I200024
I50183
F1.0
I149841
F0.0
I0
F0.0
I0
F0.0
I2922
I1
I1703
tp1703
a(I1704
I200524
I50183
F1.0
I150341
F0.0
I0
F0.0
I0
F0.0
I2924
I1
I1704
tp1704
a(I1705
I201024
I50183
F1.0
I150841
F0.0
I0
F0.0
I0
F0.0
I2926
I1
I1705
tp1705
a(I1706
I201524
I50183
F1.0
I151341
F0.0
I0
F0.0
I0
F0.0
I2928
I1
I1706
tp1706
a(I1707
I201733
I50183
F1.0
I151550
F0.0
I0
F0.0
I0
F0.0
I2930
I1
I1707
tp1707
a(I1708
I202233
I50183
F1.0
I152050
F0.0
I0
F0.0
I0
F0.0
I2932
I1
I1708
tp1708
a(I1709
I202474
I50183
F1.0
I152291
F0.0
I0
F0.0
I0
F0.0
I2934
I1
I1709
tp1709
a(I1710
I202974
I50183
F1.0
I152791
F0.0
I0
F0.0
I0
F0.0
I2936
I1
I1710
tp1710
a(I1711
I203474
I50183
F1.0
I153291
F0.0
I0
F0.0
I0
F0.0
I2938
I1
I1711
tp1711
a(I1712
I203974
I50183
F1.0
I153791
F0.0
I0
F0.0
I0
F0.0
I2940
I1
I1712
tp1712
a(I1713
I204474
I50183
F1.0
I154291
F0.0
I0
F0.0
I0
F0.0
I2942
I1
I1713
tp1713
a(I1714
I204864
I50183
F1.0
I154681
F0.0
I0
F0.0
I0
F0.0
I2944
I1
I1714
tp1714
a(I1715
I205364
I50183
F1.0
I155181
F0.0
I0
F0.0
I0
F0.0
I2946
I1
I1715
tp1715
a(I1716
I205864
I50183
F1.0
I155681
F0.0
I0
F0.0
I0
F0.0
I2948
I1
I1716
tp1716
a(I1717
I206364
I50183
F1.0
I156181
F0.0
I0
F0.0
I0
F0.0
I2950
I1
I1717
tp1717
a(I1718
I206864
I50183
F1.0
I156681
F0.0
I0
F0.0
I0
F0.0
I2952
I1
I1718
tp1718
a(I1719
I207364
I50183
F1.0
I157181
F0.0
I0
F0.0
I0
F0.0
I2954
I1
I1719
tp1719
a(I1720
I207388
I50183
F1.0
I157205
F0.0
I0
F0.0
I0
F0.0
I2956
I1
I1720
tp1720
a(I1721
I207888
I50183
F1.0
I157705
F0.0
I0
F0.0
I0
F0.0
I2958
I1
I1721
tp1721
a(I1722
I208388
I50183
F1.0
I158205
F0.0
I0
F0.0
I0
F0.0
I2960
I1
I1722
tp1722
a(I1723
I208888
I50183
F1.0
I158705
F0.0
I0
F0.0
I0
F0.0
I2962
I1
I1723
tp1723
a(I1724
I209388
I50183
F1.0
I159205
F0.0
I0
F0.0
I0
F0.0
I2964
I1
I1724
tp1724
a(I1725
I209888
I50183
F1.0
I159705
F0.0
I0
F0.0
I0
F0.0
I2966
I1
I1725
tp1725
a(I1726
I210388
I50183
F1.0
I160205
F0.0
I0
F0.0
I0
F0.0
I2968
I1
I1726
tp1726
a(I1727
I210888
I50183
F1.0
I160705
F0.0
I0
F0.0
I0
F0.0
I2970
I1
I1727
tp1727
a(I1728
I211388
I50183
F1.0
I161205
F0.0
I0
F0.0
I0
F0.0
I2972
I1
I1728
tp1728
a(I1729
I211888
I50183
F1.0
I161705
F0.0
I0
F0.0
I0
F0.0
I2974
I1
I1729
tp1729
a(I1730
I212388
I50183
F1.0
I162205
F0.0
I0
F0.0
I0
F0.0
I2976
I1
I1730
tp1730
a(I1731
I212888
I50183
F1.0
I162705
F0.0
I0
F0.0
I0
F0.0
I2978
I1
I1731
tp1731
a(I1732
I213388
I50183
F1.0
I163205
F0.0
I0
F0.0
I0
F0.0
I2980
I1
I1732
tp1732
a(I1733
I213888
I50183
F1.0
I163705
F0.0
I0
F0.0
I0
F0.0
I2982
I1
I1733
tp1733
a(I1734
I214388
I50183
F1.0
I164205
F0.0
I0
F0.0
I0
F0.0
I2984
I1
I1734
tp1734
a(I1735
I214888
I50183
F1.0
I164705
F0.0
I0
F0.0
I0
F0.0
I2986
I1
I1735
tp1735
a(I1736
I215094
I50183
F1.0
I164911
F0.0
I0
F0.0
I0
F0.0
I2988
I1
I1736
tp1736
a(I1737
I215594
I50183
F1.0
I165411
F0.0
I0
F0.0
I0
F0.0
I2990
I1
I1737
tp1737
a(I1738
I216094
I50183
F1.0
I165911
F0.0
I0
F0.0
I0
F0.0
I2992
I1
I1738
tp1738
a(I1739
I216594
I50183
F1.0
I166411
F0.0
I0
F0.0
I0
F0.0
I2994
I1
I1739
tp1739
a(I1740
I217094
I50183
F1.0
I166911
F0.0
I0
F0.0
I0
F0.0
I2996
I1
I1740
tp1740
a(I1741
I217594
I50183
F1.0
I167411
F0.0
I0
F0.0
I0
F0.0
I2998
I1
I1741
tp1741
a(I1742
I218094
I50183
F1.0
I167911
F0.0
I0
F0.0
I0
F0.0
I3000
I1
I1742
tp1742
a(I1743
I218594
I50183
F1.0
I168411
F0.0
I0
F0.0
I0
F0.0
I3002
I1
I1743
tp1743
a(I1744
I219094
I50183
F1.0
I168911
F0.0
I0
F0.0
I0
F0.0
I3004
I1
I1744
tp1744
a(I1745
I219594
I50183
F1.0
I169411
F0.0
I0
F0.0
I0
F0.0
I3006
I1
I1745
tp1745
a(I1746
I220094
I50183
F1.0
I169911
F0.0
I0
F0.0
I0
F0.0
I3008
I1
I1746
tp1746
a(I1747
I220364
I50183
F1.0
I170181
F0.0
I0
F0.0
I0
F0.0
I3010
I1
I1747
tp1747
a(I1748
I220494
I50183
F1.0
I170311
F0.0
I0
F0.0
I0
F0.0
I3012
I1
I1748
tp1748
a(I1749
I220994
I50183
F1.0
I170811
F0.0
I0
F0.0
I0
F0.0
I3014
I1
I1749
tp1749
a(I1750
I221494
I50183
F1.0
I171311
F0.0
I0
F0.0
I0
F0.0
I3016
I1
I1750
tp1750
a(I1751
I221994
I50183
F1.0
I171811
F0.0
I0
F0.0
I0
F0.0
I3018
I1
I1751
tp1751
a(I1752
I222494
I50183
F1.0
I172311
F0.0
I0
F0.0
I0
F0.0
I3020
I1
I1752
tp1752
a(I1753
I222522
I50183
F1.0
I172339
F0.0
I0
F0.0
I0
F0.0
I3022
I1
I1753
tp1753
a(I1754
I223022
I50183
F1.0
I172839
F0.0
I0
F0.0
I0
F0.0
I3024
I1
I1754
tp1754
a(I1755
I223522
I50183
F1.0
I173339
F0.0
I0
F0.0
I0
F0.0
I3026
I1
I1755
tp1755
a(I1756
I224022
I50183
F1.0
I173839
F0.0
I0
F0.0
I0
F0.0
I3028
I1
I1756
tp1756
a(I1757
I224522
I50183
F1.0
I174339
F0.0
I0
F0.0
I0
F0.0
I3030
I1
I1757
tp1757
a(I1758
I224857
I50183
F1.0
I174674
F0.0
I0
F0.0
I0
F0.0
I3032
I1
I1758
tp1758
a(I1759
I225357
I50183
F1.0
I175174
F0.0
I0
F0.0
I0
F0.0
I3034
I1
I1759
tp1759
a(I1760
I225857
I50183
F1.0
I175674
F0.0
I0
F0.0
I0
F0.0
I3036
I1
I1760
tp1760
a(I1761
I226357
I50183
F1.0
I176174
F0.0
I0
F0.0
I0
F0.0
I3038
I1
I1761
tp1761
a(I1762
I226857
I50183
F1.0
I176674
F0.0
I0
F0.0
I0
F0.0
I3040
I1
I1762
tp1762
a(I1763
I227267
I50183
F1.0
I177084
F0.0
I0
F0.0
I0
F0.0
I3042
I1
I1763
tp1763
a(I1764
I227284
I50183
F1.0
I177101
F0.0
I0
F0.0
I0
F0.0
I3044
I1
I1764
tp1764
a(I1765
I227784
I50183
F1.0
I177601
F0.0
I0
F0.0
I0
F0.0
I3046
I1
I1765
tp1765
a(I1766
I228284
I50183
F1.0
I178101
F0.0
I0
F0.0
I0
F0.0
I3048
I1
I1766
tp1766
a(I1767
I228784
I50183
F1.0
I178601
F0.0
I0
F0.0
I0
F0.0
I3050
I1
I1767
tp1767
a(I1768
I229035
I50183
F1.0
I178852
F0.0
I0
F0.0
I0
F0.0
I3052
I1
I1768
tp1768
a(I1769
I229535
I50183
F1.0
I179352
F0.0
I0
F0.0
I0
F0.0
I3054
I1
I1769
tp1769
a(I1770
I230035
I50183
F1.0
I179852
F0.0
I0
F0.0
I0
F0.0
I3056
I1
I1770
tp1770
a(I1771
I230535
I50183
F1.0
I180352
F0.0
I0
F0.0
I0
F0.0
I3058
I1
I1771
tp1771
a(I1772
I231035
I50183
F1.0
I180852
F0.0
I0
F0.0
I0
F0.0
I3060
I1
I1772
tp1772
a(I1773
I231535
I50183
F1.0
I181352
F0.0
I0
F0.0
I0
F0.0
I3062
I1
I1773
tp1773
a(I1774
I232035
I50183
F1.0
I181852
F0.0
I0
F0.0
I0
F0.0
I3064
I1
I1774
tp1774
a(I1775
I232487
I50183
F1.0
I182304
F0.0
I0
F0.0
I0
F0.0
I3066
I1
I1775
tp1775
a(I1776
I232748
I50183
F1.0
I182565
F0.0
I0
F0.0
I0
F0.0
I3068
I1
I1776
tp1776
a(I1777
I233248
I50183
F1.0
I183065
F0.0
I0
F0.0
I0
F0.0
I3070
I1
I1777
tp1777
a(I1778
I233384
I50183
F1.0
I183201
F0.0
I0
F0.0
I0
F0.0
I3072
I1
I1778
tp1778
a(I1779
I233884
I50183
F1.0
I183701
F0.0
I0
F0.0
I0
F0.0
I3074
I1
I1779
tp1779
a(I1780
I234384
I50183
F1.0
I184201
F0.0
I0
F0.0
I0
F0.0
I3076
I1
I1780
tp1780
a(I1781
I234884
I50183
F1.0
I184701
F0.0
I0
F0.0
I0
F0.0
I3078
I1
I1781
tp1781
a(I1782
I235384
I50183
F1.0
I185201
F0.0
I0
F0.0
I0
F0.0
I3080
I1
I1782
tp1782
a(I1783
I235884
I50183
F1.0
I185701
F0.0
I0
F0.0
I0
F0.0
I3082
I1
I1783
tp1783
a(I1784
I236384
I50183
F1.0
I186201
F0.0
I0
F0.0
I0
F0.0
I3084
I1
I1784
tp1784
a(I1785
I236727
I50183
F1.0
I186544
F0.0
I0
F0.0
I0
F0.0
I3086
I1
I1785
tp1785
a(I1786
I237227
I50183
F1.0
I187044
F0.0
I0
F0.0
I0
F0.0
I3088
I1
I1786
tp1786
a(I1787
I237368
I50183
F1.0
I187185
F0.0
I0
F0.0
I0
F0.0
I3090
I1
I1787
tp1787
a(I1788
I237868
I50183
F1.0
I187685
F0.0
I0
F0.0
I0
F0.0
I3092
I1
I1788
tp1788
a(I1789
I237907
I50183
F1.0
I187724
F0.0
I0
F0.0
I0
F0.0
I3094
I1
I1789
tp1789
a(I1790
I238407
I50183
F1.0
I188224
F0.0
I0
F0.0
I0
F0.0
I3096
I1
I1790
tp1790
a(I1791
I238907
I50183
F1.0
I188724
F0.0
I0
F0.0
I0
F0.0
I3098
I1
I1791
tp1791
a(I1792
I239407
I50183
F1.0
I189224
F0.0
I0
F0.0
I0
F0.0
I3100
I1
I1792
tp1792
a(I1793
I239434
I50183
F1.0
I189251
F0.0
I0
F0.0
I0
F0.0
I3102
I1
I1793
tp1793
a(I1794
I239934
I50183
F1.0
I189751
F0.0
I0
F0.0
I0
F0.0
I3104
I1
I1794
tp1794
a(I1795
I240434
I50183
F1.0
I190251
F0.0
I0
F0.0
I0
F0.0
I3106
I1
I1795
tp1795
a(I1796
I240934
I50183
F1.0
I190751
F0.0
I0
F0.0
I0
F0.0
I3108
I1
I1796
tp1796
a(I1797
I241434
I50183
F1.0
I191251
F0.0
I0
F0.0
I0
F0.0
I3110
I1
I1797
tp1797
a(I1798
I241934
I50183
F1.0
I191751
F0.0
I0
F0.0
I0
F0.0
I3112
I1
I1798
tp1798
a(I1799
I242423
I50183
F1.0
I192240
F0.0
I0
F0.0
I0
F0.0
I3114
I1
I1799
tp1799
a(I1800
I242923
I50183
F1.0
I192740
F0.0
I0
F0.0
I0
F0.0
I3116
I1
I1800
tp1800
a(I1801
I243423
I50183
F1.0
I193240
F0.0
I0
F0.0
I0
F0.0
I3118
I1
I1801
tp1801
a(I1802
I243923
I50183
F1.0
I193740
F0.0
I0
F0.0
I0
F0.0
I3120
I1
I1802
tp1802
a(I1803
I244423
I50183
F1.0
I194240
F0.0
I0
F0.0
I0
F0.0
I3122
I1
I1803
tp1803
a(I1804
I244923
I50183
F1.0
I194740
F0.0
I0
F0.0
I0
F0.0
I3124
I1
I1804
tp1804
a(I1805
I244980
I50183
F1.0
I194797
F0.0
I0
F0.0
I0
F0.0
I3126
I1
I1805
tp1805
a(I1806
I245480
I50183
F1.0
I195297
F0.0
I0
F0.0
I0
F0.0
I3128
I1
I1806
tp1806
a(I1807
I245980
I50183
F1.0
I195797
F0.0
I0
F0.0
I0
F0.0
I3130
I1
I1807
tp1807
a(I1808
I246480
I50183
F1.0
I196297
F0.0
I0
F0.0
I0
F0.0
I3132
I1
I1808
tp1808
a(I1809
I246980
I50183
F1.0
I196797
F0.0
I0
F0.0
I0
F0.0
I3134
I1
I1809
tp1809
a(I1810
I247480
I50183
F1.0
I197297
F0.0
I0
F0.0
I0
F0.0
I3136
I1
I1810
tp1810
a(I1811
I247980
I50183
F1.0
I197797
F0.0
I0
F0.0
I0
F0.0
I3138
I1
I1811
tp1811
a(I1812
I248480
I50183
F1.0
I198297
F0.0
I0
F0.0
I0
F0.0
I3140
I1
I1812
tp1812
a(I1813
I248980
I50183
F1.0
I198797
F0.0
I0
F0.0
I0
F0.0
I3142
I1
I1813
tp1813
a(I1814
I249480
I50183
F1.0
I199297
F0.0
I0
F0.0
I0
F0.0
I3144
I1
I1814
tp1814
a(I1815
I249980
I50183
F1.0
I199797
F0.0
I0
F0.0
I0
F0.0
I3146
I1
I1815
tp1815
a(I1816
I250480
I50183
F1.0
I200297
F0.0
I0
F0.0
I0
F0.0
I3148
I1
I1816
tp1816
a(I1817
I250980
I50183
F1.0
I200797
F0.0
I0
F0.0
I0
F0.0
I3150
I1
I1817
tp1817
a(I1818
I251480
I50183
F1.0
I201297
F0.0
I0
F0.0
I0
F0.0
I3152
I1
I1818
tp1818
a(I1819
I251980
I50183
F1.0
I201797
F0.0
I0
F0.0
I0
F0.0
I3154
I1
I1819
tp1819
a(I1820
I252480
I50183
F1.0
I202297
F0.0
I0
F0.0
I0
F0.0
I3156
I1
I1820
tp1820
a(I1821
I252980
I50183
F1.0
I202797
F0.0
I0
F0.0
I0
F0.0
I3158
I1
I1821
tp1821
a(I1822
I253480
I50183
F1.0
I203297
F0.0
I0
F0.0
I0
F0.0
I3160
I1
I1822
tp1822
a(I1823
I253980
I50183
F1.0
I203797
F0.0
I0
F0.0
I0
F0.0
I3162
I1
I1823
tp1823
a(I1824
I254480
I50183
F1.0
I204297
F0.0
I0
F0.0
I0
F0.0
I3164
I1
I1824
tp1824
a(I1825
I254980
I50183
F1.0
I204797
F0.0
I0
F0.0
I0
F0.0
I3166
I1
I1825
tp1825
a(I1826
I255480
I50183
F1.0
I205297
F0.0
I0
F0.0
I0
F0.0
I3168
I1
I1826
tp1826
a(I1827
I255980
I50183
F1.0
I205797
F0.0
I0
F0.0
I0
F0.0
I3170
I1
I1827
tp1827
a(I1828
I256480
I50183
F1.0
I206297
F0.0
I0
F0.0
I0
F0.0
I3172
I1
I1828
tp1828
a(I1829
I256980
I50183
F1.0
I206797
F0.0
I0
F0.0
I0
F0.0
I3174
I1
I1829
tp1829
a(I1830
I257480
I50183
F1.0
I207297
F0.0
I0
F0.0
I0
F0.0
I3176
I1
I1830
tp1830
a(I1831
I257980
I50183
F1.0
I207797
F0.0
I0
F0.0
I0
F0.0
I3178
I1
I1831
tp1831
a(I1832
I258480
I50183
F1.0
I208297
F0.0
I0
F0.0
I0
F0.0
I3180
I1
I1832
tp1832
a(I1833
I258980
I50183
F1.0
I208797
F0.0
I0
F0.0
I0
F0.0
I3182
I1
I1833
tp1833
a(I1834
I259480
I50183
F1.0
I209297
F0.0
I0
F0.0
I0
F0.0
I3184
I1
I1834
tp1834
a(I1835
I259980
I50183
F1.0
I209797
F0.0
I0
F0.0
I0
F0.0
I3186
I1
I1835
tp1835
a(I1836
I260480
I50183
F1.0
I210297
F0.0
I0
F0.0
I0
F0.0
I3188
I1
I1836
tp1836
a(I1837
I260980
I50183
F1.0
I210797
F0.0
I0
F0.0
I0
F0.0
I3190
I1
I1837
tp1837
a(I1838
I261480
I50183
F1.0
I211297
F0.0
I0
F0.0
I0
F0.0
I3192
I1
I1838
tp1838
a(I1839
I261980
I50183
F1.0
I211797
F0.0
I0
F0.0
I0
F0.0
I3194
I1
I1839
tp1839
a(I1840
I262147
I50183
F1.0
I211964
F0.0
I0
F0.0
I0
F0.0
I3196
I1
I1840
tp1840
a(I1841
I262518
I50183
F1.0
I212335
F0.0
I0
F0.0
I0
F0.0
I3198
I1
I1841
tp1841
a(I1842
I263018
I50183
F1.0
I212835
F0.0
I0
F0.0
I0
F0.0
I3200
I1
I1842
tp1842
a(I1843
I263518
I50183
F1.0
I213335
F0.0
I0
F0.0
I0
F0.0
I3202
I1
I1843
tp1843
a(I1844
I264018
I50183
F1.0
I213835
F0.0
I0
F0.0
I0
F0.0
I3204
I1
I1844
tp1844
a(I1845
I264518
I50183
F1.0
I214335
F0.0
I0
F0.0
I0
F0.0
I3206
I1
I1845
tp1845
a(I1846
I265018
I50183
F1.0
I214835
F0.0
I0
F0.0
I0
F0.0
I3208
I1
I1846
tp1846
a(I1847
I265518
I50183
F1.0
I215335
F0.0
I0
F0.0
I0
F0.0
I3210
I1
I1847
tp1847
a(I1848
I266018
I50183
F1.0
I215835
F0.0
I0
F0.0
I0
F0.0
I3212
I1
I1848
tp1848
a(I1849
I266518
I50183
F1.0
I216335
F0.0
I0
F0.0
I0
F0.0
I3214
I1
I1849
tp1849
a(I1850
I267018
I50183
F1.0
I216835
F0.0
I0
F0.0
I0
F0.0
I3216
I1
I1850
tp1850
a(I1851
I267518
I50183
F1.0
I217335
F0.0
I0
F0.0
I0
F0.0
I3218
I1
I1851
tp1851
a(I1852
I268018
I50183
F1.0
I217835
F0.0
I0
F0.0
I0
F0.0
I3220
I1
I1852
tp1852
a(I1853
I268518
I50183
F1.0
I218335
F0.0
I0
F0.0
I0
F0.0
I3222
I1
I1853
tp1853
a(I1854
I269018
I50183
F1.0
I218835
F0.0
I0
F0.0
I0
F0.0
I3224
I1
I1854
tp1854
a(I1855
I269518
I50183
F1.0
I219335
F0.0
I0
F0.0
I0
F0.0
I3226
I1
I1855
tp1855
a(I1856
I270018
I50183
F1.0
I219835
F0.0
I0
F0.0
I0
F0.0
I3228
I1
I1856
tp1856
a(I1857
I270518
I50183
F1.0
I220335
F0.0
I0
F0.0
I0
F0.0
I3230
I1
I1857
tp1857
a(I1858
I271018
I50183
F1.0
I220835
F0.0
I0
F0.0
I0
F0.0
I3232
I1
I1858
tp1858
a(I1859
I271518
I50183
F1.0
I221335
F0.0
I0
F0.0
I0
F0.0
I3234
I1
I1859
tp1859
a(I1860
I272018
I50183
F1.0
I221835
F0.0
I0
F0.0
I0
F0.0
I3236
I1
I1860
tp1860
a(I1861
I272396
I50183
F1.0
I222213
F0.0
I0
F0.0
I0
F0.0
I3238
I1
I1861
tp1861
a(I1862
I272896
I50183
F1.0
I222713
F0.0
I0
F0.0
I0
F0.0
I3240
I1
I1862
tp1862
a(I1863
I273396
I50183
F1.0
I223213
F0.0
I0
F0.0
I0
F0.0
I3242
I1
I1863
tp1863
a(I1864
I273896
I50183
F1.0
I223713
F0.0
I0
F0.0
I0
F0.0
I3244
I1
I1864
tp1864
a(I1865
I274125
I50183
F1.0
I223942
F0.0
I0
F0.0
I0
F0.0
I3246
I1
I1865
tp1865
a(I1866
I274625
I50183
F1.0
I224442
F0.0
I0
F0.0
I0
F0.0
I3248
I1
I1866
tp1866
a(I1867
I275125
I50183
F1.0
I224942
F0.0
I0
F0.0
I0
F0.0
I3250
I1
I1867
tp1867
a(I1868
I275625
I50183
F1.0
I225442
F0.0
I0
F0.0
I0
F0.0
I3252
I1
I1868
tp1868
a(I1869
I276125
I50183
F1.0
I225942
F0.0
I0
F0.0
I0
F0.0
I3254
I1
I1869
tp1869
a(I1870
I276625
I50183
F1.0
I226442
F0.0
I0
F0.0
I0
F0.0
I3256
I1
I1870
tp1870
a(I1871
I277125
I50183
F1.0
I226942
F0.0
I0
F0.0
I0
F0.0
I3258
I1
I1871
tp1871
a(I1872
I277625
I50183
F1.0
I227442
F0.0
I0
F0.0
I0
F0.0
I3260
I1
I1872
tp1872
a(I1873
I278125
I50183
F1.0
I227942
F0.0
I0
F0.0
I0
F0.0
I3262
I1
I1873
tp1873
a(I1874
I278370
I50183
F1.0
I228187
F0.0
I0
F0.0
I0
F0.0
I3264
I1
I1874
tp1874
a(I1875
I278870
I50183
F1.0
I228687
F0.0
I0
F0.0
I0
F0.0
I3266
I1
I1875
tp1875
a(I1876
I279370
I50183
F1.0
I229187
F0.0
I0
F0.0
I0
F0.0
I3268
I1
I1876
tp1876
a(I1877
I279870
I50183
F1.0
I229687
F0.0
I0
F0.0
I0
F0.0
I3270
I1
I1877
tp1877
a(I1878
I280370
I50183
F1.0
I230187
F0.0
I0
F0.0
I0
F0.0
I3272
I1
I1878
tp1878
a(I1879
I280870
I50183
F1.0
I230687
F0.0
I0
F0.0
I0
F0.0
I3274
I1
I1879
tp1879
a(I1880
I281370
I50183
F1.0
I231187
F0.0
I0
F0.0
I0
F0.0
I3276
I1
I1880
tp1880
a(I1881
I281870
I50183
F1.0
I231687
F0.0
I0
F0.0
I0
F0.0
I3278
I1
I1881
tp1881
a(I1882
I282370
I50183
F1.0
I232187
F0.0
I0
F0.0
I0
F0.0
I3280
I1
I1882
tp1882
a(I1883
I282870
I50183
F1.0
I232687
F0.0
I0
F0.0
I0
F0.0
I3282
I1
I1883
tp1883
a(I1884
I283370
I50183
F1.0
I233187
F0.0
I0
F0.0
I0
F0.0
I3284
I1
I1884
tp1884
a(I1885
I283870
I50183
F1.0
I233687
F0.0
I0
F0.0
I0
F0.0
I3286
I1
I1885
tp1885
a(I1886
I284370
I50183
F1.0
I234187
F0.0
I0
F0.0
I0
F0.0
I3288
I1
I1886
tp1886
a(I1887
I284870
I50183
F1.0
I234687
F0.0
I0
F0.0
I0
F0.0
I3290
I1
I1887
tp1887
a(I1888
I285370
I50183
F1.0
I235187
F0.0
I0
F0.0
I0
F0.0
I3292
I1
I1888
tp1888
a(I1889
I285870
I50183
F1.0
I235687
F0.0
I0
F0.0
I0
F0.0
I3294
I1
I1889
tp1889
a(I1890
I286370
I50183
F1.0
I236187
F0.0
I0
F0.0
I0
F0.0
I3296
I1
I1890
tp1890
a(I1891
I286870
I50183
F1.0
I236687
F0.0
I0
F0.0
I0
F0.0
I3298
I1
I1891
tp1891
a(I1892
I287370
I50183
F1.0
I237187
F0.0
I0
F0.0
I0
F0.0
I3300
I1
I1892
tp1892
a(I1893
I287402
I50183
F1.0
I237219
F0.0
I0
F0.0
I0
F0.0
I3302
I1
I1893
tp1893
a(I1894
I287902
I50183
F1.0
I237719
F0.0
I0
F0.0
I0
F0.0
I3304
I1
I1894
tp1894
a(I1895
I288402
I50183
F1.0
I238219
F0.0
I0
F0.0
I0
F0.0
I3306
I1
I1895
tp1895
a(I1896
I288902
I50183
F1.0
I238719
F0.0
I0
F0.0
I0
F0.0
I3308
I1
I1896
tp1896
a(I1897
I289402
I50183
F1.0
I239219
F0.0
I0
F0.0
I0
F0.0
I3310
I1
I1897
tp1897
a(I1898
I289902
I50183
F1.0
I239719
F0.0
I0
F0.0
I0
F0.0
I3312
I1
I1898
tp1898
a(I1899
I290402
I50183
F1.0
I240219
F0.0
I0
F0.0
I0
F0.0
I3314
I1
I1899
tp1899
a(I1900
I290902
I50183
F1.0
I240719
F0.0
I0
F0.0
I0
F0.0
I3316
I1
I1900
tp1900
a(I1901
I291402
I50183
F1.0
I241219
F0.0
I0
F0.0
I0
F0.0
I3318
I1
I1901
tp1901
a(I1902
I291902
I50183
F1.0
I241719
F0.0
I0
F0.0
I0
F0.0
I3320
I1
I1902
tp1902
a(I1903
I292402
I50183
F1.0
I242219
F0.0
I0
F0.0
I0
F0.0
I3322
I1
I1903
tp1903
a(I1904
I292902
I50183
F1.0
I242719
F0.0
I0
F0.0
I0
F0.0
I3324
I1
I1904
tp1904
a(I1905
I293402
I50183
F1.0
I243219
F0.0
I0
F0.0
I0
F0.0
I3326
I1
I1905
tp1905
a(I1906
I293902
I50183
F1.0
I243719
F0.0
I0
F0.0
I0
F0.0
I3328
I1
I1906
tp1906
a(I1907
I294402
I50183
F1.0
I244219
F0.0
I0
F0.0
I0
F0.0
I3330
I1
I1907
tp1907
a(I1908
I294902
I50183
F1.0
I244719
F0.0
I0
F0.0
I0
F0.0
I3332
I1
I1908
tp1908
a(I1909
I295402
I50183
F1.0
I245219
F0.0
I0
F0.0
I0
F0.0
I3334
I1
I1909
tp1909
a(I1910
I295902
I50183
F1.0
I245719
F0.0
I0
F0.0
I0
F0.0
I3336
I1
I1910
tp1910
a(I1911
I296402
I50183
F1.0
I246219
F0.0
I0
F0.0
I0
F0.0
I3338
I1
I1911
tp1911
a(I1912
I296902
I50183
F1.0
I246719
F0.0
I0
F0.0
I0
F0.0
I3340
I1
I1912
tp1912
a(I1913
I297402
I50183
F1.0
I247219
F0.0
I0
F0.0
I0
F0.0
I3342
I1
I1913
tp1913
a(I1914
I297902
I50183
F1.0
I247719
F0.0
I0
F0.0
I0
F0.0
I3344
I1
I1914
tp1914
a(I1915
I298402
I50183
F1.0
I248219
F0.0
I0
F0.0
I0
F0.0
I3346
I1
I1915
tp1915
a(I1916
I298902
I50183
F1.0
I248719
F0.0
I0
F0.0
I0
F0.0
I3348
I1
I1916
tp1916
a(I1917
I299402
I50183
F1.0
I249219
F0.0
I0
F0.0
I0
F0.0
I3350
I1
I1917
tp1917
a(I1918
I299902
I50183
F1.0
I249719
F0.0
I0
F0.0
I0
F0.0
I3352
I1
I1918
tp1918
a(I1919
I300402
I50183
F1.0
I250219
F0.0
I0
F0.0
I0
F0.0
I3354
I1
I1919
tp1919
a(I1920
I300902
I50183
F1.0
I250719
F0.0
I0
F0.0
I0
F0.0
I3356
I1
I1920
tp1920
a(I1921
I301402
I50183
F1.0
I251219
F0.0
I0
F0.0
I0
F0.0
I3358
I1
I1921
tp1921
a(I1922
I301902
I50183
F1.0
I251719
F0.0
I0
F0.0
I0
F0.0
I3360
I1
I1922
tp1922
a(I1923
I302402
I50183
F1.0
I252219
F0.0
I0
F0.0
I0
F0.0
I3362
I1
I1923
tp1923
a(I1924
I302902
I50183
F1.0
I252719
F0.0
I0
F0.0
I0
F0.0
I3364
I1
I1924
tp1924
a(I1925
I303402
I50183
F1.0
I253219
F0.0
I0
F0.0
I0
F0.0
I3366
I1
I1925
tp1925
a(I1926
I303902
I50183
F1.0
I253719
F0.0
I0
F0.0
I0
F0.0
I3368
I1
I1926
tp1926
a(I1927
I304402
I50183
F1.0
I254219
F0.0
I0
F0.0
I0
F0.0
I3370
I1
I1927
tp1927
a(I1928
I304902
I50183
F1.0
I254719
F0.0
I0
F0.0
I0
F0.0
I3372
I1
I1928
tp1928
a(I1929
I305402
I50183
F1.0
I255219
F0.0
I0
F0.0
I0
F0.0
I3374
I1
I1929
tp1929
a(I1930
I305902
I50183
F1.0
I255719
F0.0
I0
F0.0
I0
F0.0
I3376
I1
I1930
tp1930
a(I1931
I306402
I50183
F1.0
I256219
F0.0
I0
F0.0
I0
F0.0
I3378
I1
I1931
tp1931
a(I1932
I306902
I50183
F1.0
I256719
F0.0
I0
F0.0
I0
F0.0
I3380
I1
I1932
tp1932
a(I1933
I307402
I50183
F1.0
I257219
F0.0
I0
F0.0
I0
F0.0
I3382
I1
I1933
tp1933
a(I1934
I307902
I50183
F1.0
I257719
F0.0
I0
F0.0
I0
F0.0
I3384
I1
I1934
tp1934
a(I1935
I308402
I50183
F1.0
I258219
F0.0
I0
F0.0
I0
F0.0
I3386
I1
I1935
tp1935
a(I1936
I308902
I50183
F1.0
I258719
F0.0
I0
F0.0
I0
F0.0
I3388
I1
I1936
tp1936
a(I1937
I309402
I50183
F1.0
I259219
F0.0
I0
F0.0
I0
F0.0
I3390
I1
I1937
tp1937
a(I1938
I309902
I50183
F1.0
I259719
F0.0
I0
F0.0
I0
F0.0
I3392
I1
I1938
tp1938
a(I1939
I310402
I50183
F1.0
I260219
F0.0
I0
F0.0
I0
F0.0
I3394
I1
I1939
tp1939
a(I1940
I310902
I50183
F1.0
I260719
F0.0
I0
F0.0
I0
F0.0
I3396
I1
I1940
tp1940
a(I1941
I311402
I50183
F1.0
I261219
F0.0
I0
F0.0
I0
F0.0
I3398
I1
I1941
tp1941
a(I1942
I311902
I50183
F1.0
I261719
F0.0
I0
F0.0
I0
F0.0
I3400
I1
I1942
tp1942
a(I1943
I312402
I50183
F1.0
I262219
F0.0
I0
F0.0
I0
F0.0
I3402
I1
I1943
tp1943
a(I1944
I312902
I50183
F1.0
I262719
F0.0
I0
F0.0
I0
F0.0
I3404
I1
I1944
tp1944
a(I1945
I313402
I50183
F1.0
I263219
F0.0
I0
F0.0
I0
F0.0
I3406
I1
I1945
tp1945
a(I1946
I313902
I50183
F1.0
I263719
F0.0
I0
F0.0
I0
F0.0
I3408
I1
I1946
tp1946
a(I1947
I314402
I50183
F1.0
I264219
F0.0
I0
F0.0
I0
F0.0
I3410
I1
I1947
tp1947
a(I1948
I314902
I50183
F1.0
I264719
F0.0
I0
F0.0
I0
F0.0
I3412
I1
I1948
tp1948
a(I1949
I315402
I50183
F1.0
I265219
F0.0
I0
F0.0
I0
F0.0
I3414
I1
I1949
tp1949
a(I1950
I315902
I50183
F1.0
I265719
F0.0
I0
F0.0
I0
F0.0
I3416
I1
I1950
tp1950
a(I1951
I316402
I50183
F1.0
I266219
F0.0
I0
F0.0
I0
F0.0
I3418
I1
I1951
tp1951
a(I1952
I316902
I50183
F1.0
I266719
F0.0
I0
F0.0
I0
F0.0
I3420
I1
I1952
tp1952
a(I1953
I317402
I50183
F1.0
I267219
F0.0
I0
F0.0
I0
F0.0
I3422
I1
I1953
tp1953
a(I1954
I317902
I50183
F1.0
I267719
F0.0
I0
F0.0
I0
F0.0
I3424
I1
I1954
tp1954
a(I1955
I318402
I50183
F1.0
I268219
F0.0
I0
F0.0
I0
F0.0
I3426
I1
I1955
tp1955
a(I1956
I318902
I50183
F1.0
I268719
F0.0
I0
F0.0
I0
F0.0
I3428
I1
I1956
tp1956
a(I1957
I319402
I50183
F1.0
I269219
F0.0
I0
F0.0
I0
F0.0
I3430
I1
I1957
tp1957
a(I1958
I319902
I50183
F1.0
I269719
F0.0
I0
F0.0
I0
F0.0
I3432
I1
I1958
tp1958
a(I1959
I320402
I50183
F1.0
I270219
F0.0
I0
F0.0
I0
F0.0
I3434
I1
I1959
tp1959
a(I1960
I320902
I50183
F1.0
I270719
F0.0
I0
F0.0
I0
F0.0
I3436
I1
I1960
tp1960
a(I1961
I321402
I50183
F1.0
I271219
F0.0
I0
F0.0
I0
F0.0
I3438
I1
I1961
tp1961
a(I1962
I321902
I50183
F1.0
I271719
F0.0
I0
F0.0
I0
F0.0
I3440
I1
I1962
tp1962
a(I1963
I322402
I50183
F1.0
I272219
F0.0
I0
F0.0
I0
F0.0
I3442
I1
I1963
tp1963
a(I1964
I322902
I50183
F1.0
I272719
F0.0
I0
F0.0
I0
F0.0
I3444
I1
I1964
tp1964
a(I1965
I323402
I50183
F1.0
I273219
F0.0
I0
F0.0
I0
F0.0
I3446
I1
I1965
tp1965
a(I1966
I323902
I50183
F1.0
I273719
F0.0
I0
F0.0
I0
F0.0
I3448
I1
I1966
tp1966
a(I1967
I324402
I50183
F1.0
I274219
F0.0
I0
F0.0
I0
F0.0
I3450
I1
I1967
tp1967
a(I1968
I324902
I50183
F1.0
I274719
F0.0
I0
F0.0
I0
F0.0
I3452
I1
I1968
tp1968
a(I1969
I325402
I50183
F1.0
I275219
F0.0
I0
F0.0
I0
F0.0
I3454
I1
I1969
tp1969
a(I1970
I325902
I50183
F1.0
I275719
F0.0
I0
F0.0
I0
F0.0
I3456
I1
I1970
tp1970
a(I1971
I326402
I50183
F1.0
I276219
F0.0
I0
F0.0
I0
F0.0
I3458
I1
I1971
tp1971
a(I1972
I326902
I50183
F1.0
I276719
F0.0
I0
F0.0
I0
F0.0
I3460
I1
I1972
tp1972
a(I1973
I327402
I50183
F1.0
I277219
F0.0
I0
F0.0
I0
F0.0
I3462
I1
I1973
tp1973
a(I1974
I327902
I50183
F1.0
I277719
F0.0
I0
F0.0
I0
F0.0
I3464
I1
I1974
tp1974
a(I1975
I328402
I50183
F1.0
I278219
F0.0
I0
F0.0
I0
F0.0
I3466
I1
I1975
tp1975
a(I1976
I328902
I50183
F1.0
I278719
F0.0
I0
F0.0
I0
F0.0
I3468
I1
I1976
tp1976
a(I1977
I329402
I50183
F1.0
I279219
F0.0
I0
F0.0
I0
F0.0
I3470
I1
I1977
tp1977
a(I1978
I329902
I50183
F1.0
I279719
F0.0
I0
F0.0
I0
F0.0
I3472
I1
I1978
tp1978
a(I1979
I330402
I50183
F1.0
I280219
F0.0
I0
F0.0
I0
F0.0
I3474
I1
I1979
tp1979
a(I1980
I330902
I50183
F1.0
I280719
F0.0
I0
F0.0
I0
F0.0
I3476
I1
I1980
tp1980
a(I1981
I331402
I50183
F1.0
I281219
F0.0
I0
F0.0
I0
F0.0
I3478
I1
I1981
tp1981
a(I1982
I331902
I50183
F1.0
I281719
F0.0
I0
F0.0
I0
F0.0
I3480
I1
I1982
tp1982
a(I1983
I332402
I50183
F1.0
I282219
F0.0
I0
F0.0
I0
F0.0
I3482
I1
I1983
tp1983
a(I1984
I332902
I50183
F1.0
I282719
F0.0
I0
F0.0
I0
F0.0
I3484
I1
I1984
tp1984
a(I1985
I333402
I50183
F1.0
I283219
F0.0
I0
F0.0
I0
F0.0
I3486
I1
I1985
tp1985
a(I1986
I333902
I50183
F1.0
I283719
F0.0
I0
F0.0
I0
F0.0
I3488
I1
I1986
tp1986
a(I1987
I334402
I50183
F1.0
I284219
F0.0
I0
F0.0
I0
F0.0
I3490
I1
I1987
tp1987
a(I1988
I334902
I50183
F1.0
I284719
F0.0
I0
F0.0
I0
F0.0
I3492
I1
I1988
tp1988
a(I1989
I335402
I50183
F1.0
I285219
F0.0
I0
F0.0
I0
F0.0
I3494
I1
I1989
tp1989
a(I1990
I335902
I50183
F1.0
I285719
F0.0
I0
F0.0
I0
F0.0
I3496
I1
I1990
tp1990
a(I1991
I336402
I50183
F1.0
I286219
F0.0
I0
F0.0
I0
F0.0
I3498
I1
I1991
tp1991
a(I1992
I336902
I50183
F1.0
I286719
F0.0
I0
F0.0
I0
F0.0
I3500
I1
I1992
tp1992
a(I1993
I337402
I50183
F1.0
I287219
F0.0
I0
F0.0
I0
F0.0
I3502
I1
I1993
tp1993
a(I1994
I337902
I50183
F1.0
I287719
F0.0
I0
F0.0
I0
F0.0
I3504
I1
I1994
tp1994
a(I1995
I338402
I50183
F1.0
I288219
F0.0
I0
F0.0
I0
F0.0
I3506
I1
I1995
tp1995
a(I1996
I338902
I50183
F1.0
I288719
F0.0
I0
F0.0
I0
F0.0
I3508
I1
I1996
tp1996
a(I1997
I339402
I50183
F1.0
I289219
F0.0
I0
F0.0
I0
F0.0
I3510
I1
I1997
tp1997
a(I1998
I339902
I50183
F1.0
I289719
F0.0
I0
F0.0
I0
F0.0
I3512
I1
I1998
tp1998
a(I1999
I340402
I50183
F1.0
I290219
F0.0
I0
F0.0
I0
F0.0
I3514
I1
I1999
tp1999
a(I2000
I340902
I50183
F1.0
I290719
F0.0
I0
F0.0
I0
F0.0
I3516
I1
I2000
tp2000
a(I2001
I341402
I50183
F1.0
I291219
F0.0
I0
F0.0
I0
F0.0
I3518
I1
I2001
tp2001
a(I2002
I341902
I50183
F1.0
I291719
F0.0
I0
F0.0
I0
F0.0
I3520
I1
I2002
tp2002
a(I2003
I342402
I50183
F1.0
I292219
F0.0
I0
F0.0
I0
F0.0
I3522
I1
I2003
tp2003
a(I2004
I342902
I50183
F1.0
I292719
F0.0
I0
F0.0
I0
F0.0
I3524
I1
I2004
tp2004
a(I2005
I343402
I50183
F1.0
I293219
F0.0
I0
F0.0
I0
F0.0
I3526
I1
I2005
tp2005
a(I2006
I343902
I50183
F1.0
I293719
F0.0
I0
F0.0
I0
F0.0
I3528
I1
I2006
tp2006
a(I2007
I344402
I50183
F1.0
I294219
F0.0
I0
F0.0
I0
F0.0
I3530
I1
I2007
tp2007
a(I2008
I344902
I50183
F1.0
I294719
F0.0
I0
F0.0
I0
F0.0
I3532
I1
I2008
tp2008
a(I2009
I345402
I50183
F1.0
I295219
F0.0
I0
F0.0
I0
F0.0
I3534
I1
I2009
tp2009
a(I2010
I345902
I50183
F1.0
I295719
F0.0
I0
F0.0
I0
F0.0
I3536
I1
I2010
tp2010
a(I2011
I346402
I50183
F1.0
I296219
F0.0
I0
F0.0
I0
F0.0
I3538
I1
I2011
tp2011
a(I2012
I346902
I50183
F1.0
I296719
F0.0
I0
F0.0
I0
F0.0
I3540
I1
I2012
tp2012
a(I2013
I347402
I50183
F1.0
I297219
F0.0
I0
F0.0
I0
F0.0
I3542
I1
I2013
tp2013
a(I2014
I347902
I50183
F1.0
I297719
F0.0
I0
F0.0
I0
F0.0
I3544
I1
I2014
tp2014
a(I2015
I348402
I50183
F1.0
I298219
F0.0
I0
F0.0
I0
F0.0
I3546
I1
I2015
tp2015
a(I2016
I348902
I50183
F1.0
I298719
F0.0
I0
F0.0
I0
F0.0
I3548
I1
I2016
tp2016
a(I2017
I349402
I50183
F1.0
I299219
F0.0
I0
F0.0
I0
F0.0
I3550
I1
I2017
tp2017
a(I2018
I349902
I50183
F1.0
I299719
F0.0
I0
F0.0
I0
F0.0
I3552
I1
I2018
tp2018
a(I2019
I350402
I50183
F1.0
I300219
F0.0
I0
F0.0
I0
F0.0
I3554
I1
I2019
tp2019
a(I2020
I350851
I50183
F1.0
I300668
F0.0
I0
F0.0
I0
F0.0
I3556
I1
I2020
tp2020
a(I2021
I351351
I50183
F1.0
I301168
F0.0
I0
F0.0
I0
F0.0
I3558
I1
I2021
tp2021
a(I2022
I351851
I50183
F1.0
I301668
F0.0
I0
F0.0
I0
F0.0
I3560
I1
I2022
tp2022
a(I2023
I352351
I50183
F1.0
I302168
F0.0
I0
F0.0
I0
F0.0
I3562
I1
I2023
tp2023
a(I2024
I352851
I50183
F1.0
I302668
F0.0
I0
F0.0
I0
F0.0
I3564
I1
I2024
tp2024
a(I2025
I353351
I50183
F1.0
I303168
F0.0
I0
F0.0
I0
F0.0
I3566
I1
I2025
tp2025
a(I2026
I353851
I50183
F1.0
I303668
F0.0
I0
F0.0
I0
F0.0
I3568
I1
I2026
tp2026
a(I2027
I354351
I50183
F1.0
I304168
F0.0
I0
F0.0
I0
F0.0
I3570
I1
I2027
tp2027
a(I2028
I354851
I50183
F1.0
I304668
F0.0
I0
F0.0
I0
F0.0
I3572
I1
I2028
tp2028
a(I2029
I355351
I50183
F1.0
I305168
F0.0
I0
F0.0
I0
F0.0
I3574
I1
I2029
tp2029
a(I2030
I355851
I50183
F1.0
I305668
F0.0
I0
F0.0
I0
F0.0
I3576
I1
I2030
tp2030
a(I2031
I355958
I50183
F1.0
I305775
F0.0
I0
F0.0
I0
F0.0
I3578
I1
I2031
tp2031
a(I2032
I356077
I50183
F1.0
I305894
F0.0
I0
F0.0
I0
F0.0
I3580
I1
I2032
tp2032
a(I2033
I356259
I50183
F1.0
I306076
F0.0
I0
F0.0
I0
F0.0
I3582
I1
I2033
tp2033
a(I2034
I356759
I50183
F1.0
I306576
F0.0
I0
F0.0
I0
F0.0
I3584
I1
I2034
tp2034
a(I2035
I357259
I50183
F1.0
I307076
F0.0
I0
F0.0
I0
F0.0
I3586
I1
I2035
tp2035
a(I2036
I357759
I50183
F1.0
I307576
F0.0
I0
F0.0
I0
F0.0
I3588
I1
I2036
tp2036
a(I2037
I357897
I50183
F1.0
I307714
F0.0
I0
F0.0
I0
F0.0
I3590
I1
I2037
tp2037
a(I2038
I358397
I50183
F1.0
I308214
F0.0
I0
F0.0
I0
F0.0
I3592
I1
I2038
tp2038
a(I2039
I358897
I50183
F1.0
I308714
F0.0
I0
F0.0
I0
F0.0
I3594
I1
I2039
tp2039
a(I2040
I359320
I50183
F1.0
I309137
F0.0
I0
F0.0
I0
F0.0
I3596
I1
I2040
tp2040
a(I2041
I359495
I50183
F1.0
I309312
F0.0
I0
F0.0
I0
F0.0
I3598
I1
I2041
tp2041
a(I2042
I359995
I50183
F1.0
I309812
F0.0
I0
F0.0
I0
F0.0
I3600
I1
I2042
tp2042
a(I2043
I360495
I50183
F1.0
I310312
F0.0
I0
F0.0
I0
F0.0
I3602
I1
I2043
tp2043
a(I2044
I360774
I50183
F1.0
I310591
F0.0
I0
F0.0
I0
F0.0
I3604
I1
I2044
tp2044
a(I2045
I360928
I50183
F1.0
I310745
F0.0
I0
F0.0
I0
F0.0
I3606
I1
I2045
tp2045
a(I2046
I361428
I50183
F1.0
I311245
F0.0
I0
F0.0
I0
F0.0
I3608
I1
I2046
tp2046
a(I2047
I361764
I50183
F1.0
I311581
F0.0
I0
F0.0
I0
F0.0
I3610
I1
I2047
tp2047
a(I2048
I362264
I50183
F1.0
I312081
F0.0
I0
F0.0
I0
F0.0
I3612
I1
I2048
tp2048
a(I2049
I362764
I50183
F1.0
I312581
F0.0
I0
F0.0
I0
F0.0
I3614
I1
I2049
tp2049
a(I2050
I363264
I50183
F1.0
I313081
F0.0
I0
F0.0
I0
F0.0
I3616
I1
I2050
tp2050
a(I2051
I363764
I50183
F1.0
I313581
F0.0
I0
F0.0
I0
F0.0
I3618
I1
I2051
tp2051
a(I2052
I364226
I50183
F1.0
I314043
F0.0
I0
F0.0
I0
F0.0
I3620
I1
I2052
tp2052
a(I2053
I364726
I50183
F1.0
I314543
F0.0
I0
F0.0
I0
F0.0
I3622
I1
I2053
tp2053
a(I2054
I365226
I50183
F1.0
I315043
F0.0
I0
F0.0
I0
F0.0
I3624
I1
I2054
tp2054
a(I2055
I365726
I50183
F1.0
I315543
F0.0
I0
F0.0
I0
F0.0
I3626
I1
I2055
tp2055
a(I2056
I366226
I50183
F1.0
I316043
F0.0
I0
F0.0
I0
F0.0
I3628
I1
I2056
tp2056
a(I2057
I366726
I50183
F1.0
I316543
F0.0
I0
F0.0
I0
F0.0
I3630
I1
I2057
tp2057
a(I2058
I367226
I50183
F1.0
I317043
F0.0
I0
F0.0
I0
F0.0
I3632
I1
I2058
tp2058
a(I2059
I367726
I50183
F1.0
I317543
F0.0
I0
F0.0
I0
F0.0
I3634
I1
I2059
tp2059
a(I2060
I368226
I50183
F1.0
I318043
F0.0
I0
F0.0
I0
F0.0
I3636
I1
I2060
tp2060
a(I2061
I368726
I50183
F1.0
I318543
F0.0
I0
F0.0
I0
F0.0
I3638
I1
I2061
tp2061
a(I2062
I369226
I50183
F1.0
I319043
F0.0
I0
F0.0
I0
F0.0
I3640
I1
I2062
tp2062
a(I2063
I369726
I50183
F1.0
I319543
F0.0
I0
F0.0
I0
F0.0
I3642
I1
I2063
tp2063
a(I2064
I370226
I50183
F1.0
I320043
F0.0
I0
F0.0
I0
F0.0
I3644
I1
I2064
tp2064
a(I2065
I370726
I50183
F1.0
I320543
F0.0
I0
F0.0
I0
F0.0
I3646
I1
I2065
tp2065
a(I2066
I371226
I50183
F1.0
I321043
F0.0
I0
F0.0
I0
F0.0
I3648
I1
I2066
tp2066
a(I2067
I371726
I50183
F1.0
I321543
F0.0
I0
F0.0
I0
F0.0
I3650
I1
I2067
tp2067
a(I2068
I372226
I50183
F1.0
I322043
F0.0
I0
F0.0
I0
F0.0
I3652
I1
I2068
tp2068
a(I2069
I372726
I50183
F1.0
I322543
F0.0
I0
F0.0
I0
F0.0
I3654
I1
I2069
tp2069
a(I2070
I373226
I50183
F1.0
I323043
F0.0
I0
F0.0
I0
F0.0
I3656
I1
I2070
tp2070
a(I2071
I373726
I50183
F1.0
I323543
F0.0
I0
F0.0
I0
F0.0
I3658
I1
I2071
tp2071
a(I2072
I374226
I50183
F1.0
I324043
F0.0
I0
F0.0
I0
F0.0
I3660
I1
I2072
tp2072
a(I2073
I374726
I50183
F1.0
I324543
F0.0
I0
F0.0
I0
F0.0
I3662
I1
I2073
tp2073
a(I2074
I375226
I50183
F1.0
I325043
F0.0
I0
F0.0
I0
F0.0
I3664
I1
I2074
tp2074
a(I2075
I375726
I50183
F1.0
I325543
F0.0
I0
F0.0
I0
F0.0
I3666
I1
I2075
tp2075
a(I2076
I376226
I50183
F1.0
I326043
F0.0
I0
F0.0
I0
F0.0
I3668
I1
I2076
tp2076
a(I2077
I376726
I50183
F1.0
I326543
F0.0
I0
F0.0
I0
F0.0
I3670
I1
I2077
tp2077
a(I2078
I377226
I50183
F1.0
I327043
F0.0
I0
F0.0
I0
F0.0
I3672
I1
I2078
tp2078
a(I2079
I377726
I50183
F1.0
I327543
F0.0
I0
F0.0
I0
F0.0
I3674
I1
I2079
tp2079
a(I2080
I378226
I50183
F1.0
I328043
F0.0
I0
F0.0
I0
F0.0
I3676
I1
I2080
tp2080
a(I2081
I378726
I50183
F1.0
I328543
F0.0
I0
F0.0
I0
F0.0
I3678
I1
I2081
tp2081
a(I2082
I379226
I50183
F1.0
I329043
F0.0
I0
F0.0
I0
F0.0
I3680
I1
I2082
tp2082
a(I2083
I379726
I50183
F1.0
I329543
F0.0
I0
F0.0
I0
F0.0
I3682
I1
I2083
tp2083
a(I2084
I380226
I50183
F1.0
I330043
F0.0
I0
F0.0
I0
F0.0
I3684
I1
I2084
tp2084
a(I2085
I380726
I50183
F1.0
I330543
F0.0
I0
F0.0
I0
F0.0
I3686
I1
I2085
tp2085
a(I2086
I381226
I50183
F1.0
I331043
F0.0
I0
F0.0
I0
F0.0
I3688
I1
I2086
tp2086
a(I2087
I381726
I50183
F1.0
I331543
F0.0
I0
F0.0
I0
F0.0
I3690
I1
I2087
tp2087
a(I2088
I382226
I50183
F1.0
I332043
F0.0
I0
F0.0
I0
F0.0
I3692
I1
I2088
tp2088
a(I2089
I382726
I50183
F1.0
I332543
F0.0
I0
F0.0
I0
F0.0
I3694
I1
I2089
tp2089
a(I2090
I383226
I50183
F1.0
I333043
F0.0
I0
F0.0
I0
F0.0
I3696
I1
I2090
tp2090
a(I2091
I383726
I50183
F1.0
I333543
F0.0
I0
F0.0
I0
F0.0
I3698
I1
I2091
tp2091
a(I2092
I384226
I50183
F1.0
I334043
F0.0
I0
F0.0
I0
F0.0
I3700
I1
I2092
tp2092
a(I2093
I384726
I50183
F1.0
I334543
F0.0
I0
F0.0
I0
F0.0
I3702
I1
I2093
tp2093
a(I2094
I385226
I50183
F1.0
I335043
F0.0
I0
F0.0
I0
F0.0
I3704
I1
I2094
tp2094
a(I2095
I385726
I50183
F1.0
I335543
F0.0
I0
F0.0
I0
F0.0
I3706
I1
I2095
tp2095
a(I2096
I386226
I50183
F1.0
I336043
F0.0
I0
F0.0
I0
F0.0
I3708
I1
I2096
tp2096
a(I2097
I386726
I50183
F1.0
I336543
F0.0
I0
F0.0
I0
F0.0
I3710
I1
I2097
tp2097
a(I2098
I387226
I50183
F1.0
I337043
F0.0
I0
F0.0
I0
F0.0
I3712
I1
I2098
tp2098
a(I2099
I387726
I50183
F1.0
I337543
F0.0
I0
F0.0
I0
F0.0
I3714
I1
I2099
tp2099
a(I2100
I388226
I50183
F1.0
I338043
F0.0
I0
F0.0
I0
F0.0
I3716
I1
I2100
tp2100
a(I2101
I388726
I50183
F1.0
I338543
F0.0
I0
F0.0
I0
F0.0
I3718
I1
I2101
tp2101
a(I2102
I389226
I50183
F1.0
I339043
F0.0
I0
F0.0
I0
F0.0
I3720
I1
I2102
tp2102
a(I2103
I389726
I50183
F1.0
I339543
F0.0
I0
F0.0
I0
F0.0
I3722
I1
I2103
tp2103
a(I2104
I390129
I50183
F1.0
I339946
F0.0
I0
F0.0
I0
F0.0
I3724
I1
I2104
tp2104
a(I2105
I390629
I50183
F1.0
I340446
F0.0
I0
F0.0
I0
F0.0
I3726
I1
I2105
tp2105
a(I2106
I391129
I50183
F1.0
I340946
F0.0
I0
F0.0
I0
F0.0
I3728
I1
I2106
tp2106
a(I2107
I391629
I50183
F1.0
I341446
F0.0
I0
F0.0
I0
F0.0
I3730
I1
I2107
tp2107
a(I2108
I392129
I50183
F1.0
I341946
F0.0
I0
F0.0
I0
F0.0
I3732
I1
I2108
tp2108
a(I2109
I392629
I50183
F1.0
I342446
F0.0
I0
F0.0
I0
F0.0
I3734
I1
I2109
tp2109
a(I2110
I393129
I50183
F1.0
I342946
F0.0
I0
F0.0
I0
F0.0
I3736
I1
I2110
tp2110
a(I2111
I393629
I50183
F1.0
I343446
F0.0
I0
F0.0
I0
F0.0
I3738
I1
I2111
tp2111
a(I2112
I394129
I50183
F1.0
I343946
F0.0
I0
F0.0
I0
F0.0
I3740
I1
I2112
tp2112
a(I2113
I394629
I50183
F1.0
I344446
F0.0
I0
F0.0
I0
F0.0
I3742
I1
I2113
tp2113
a(I2114
I395129
I50183
F1.0
I344946
F0.0
I0
F0.0
I0
F0.0
I3744
I1
I2114
tp2114
a(I2115
I395629
I50183
F1.0
I345446
F0.0
I0
F0.0
I0
F0.0
I3746
I1
I2115
tp2115
a(I2116
I396129
I50183
F1.0
I345946
F0.0
I0
F0.0
I0
F0.0
I3748
I1
I2116
tp2116
a(I2117
I396629
I50183
F1.0
I346446
F0.0
I0
F0.0
I0
F0.0
I3750
I1
I2117
tp2117
a(I2118
I397129
I50183
F1.0
I346946
F0.0
I0
F0.0
I0
F0.0
I3752
I1
I2118
tp2118
a(I2119
I397629
I50183
F1.0
I347446
F0.0
I0
F0.0
I0
F0.0
I3754
I1
I2119
tp2119
a(I2120
I398129
I50183
F1.0
I347946
F0.0
I0
F0.0
I0
F0.0
I3756
I1
I2120
tp2120
a(I2121
I398629
I50183
F1.0
I348446
F0.0
I0
F0.0
I0
F0.0
I3758
I1
I2121
tp2121
a(I2122
I399129
I50183
F1.0
I348946
F0.0
I0
F0.0
I0
F0.0
I3760
I1
I2122
tp2122
a(I2123
I399629
I50183
F1.0
I349446
F0.0
I0
F0.0
I0
F0.0
I3762
I1
I2123
tp2123
a(I2124
I400129
I50183
F1.0
I349946
F0.0
I0
F0.0
I0
F0.0
I3764
I1
I2124
tp2124
a(I2125
I400629
I50183
F1.0
I350446
F0.0
I0
F0.0
I0
F0.0
I3766
I1
I2125
tp2125
a(I2126
I401129
I50183
F1.0
I350946
F0.0
I0
F0.0
I0
F0.0
I3768
I1
I2126
tp2126
a(I2127
I401629
I50183
F1.0
I351446
F0.0
I0
F0.0
I0
F0.0
I3770
I1
I2127
tp2127
a(I2128
I402129
I50183
F1.0
I351946
F0.0
I0
F0.0
I0
F0.0
I3772
I1
I2128
tp2128
a(I2129
I402629
I50183
F1.0
I352446
F0.0
I0
F0.0
I0
F0.0
I3774
I1
I2129
tp2129
a(I2130
I403129
I50183
F1.0
I352946
F0.0
I0
F0.0
I0
F0.0
I3776
I1
I2130
tp2130
a(I2131
I403629
I50183
F1.0
I353446
F0.0
I0
F0.0
I0
F0.0
I3778
I1
I2131
tp2131
a(I2132
I404129
I50183
F1.0
I353946
F0.0
I0
F0.0
I0
F0.0
I3780
I1
I2132
tp2132
a(I2133
I404629
I50183
F1.0
I354446
F0.0
I0
F0.0
I0
F0.0
I3782
I1
I2133
tp2133
a(I2134
I405129
I50183
F1.0
I354946
F0.0
I0
F0.0
I0
F0.0
I3784
I1
I2134
tp2134
a(I2135
I405629
I50183
F1.0
I355446
F0.0
I0
F0.0
I0
F0.0
I3786
I1
I2135
tp2135
a(I2136
I406129
I50183
F1.0
I355946
F0.0
I0
F0.0
I0
F0.0
I3788
I1
I2136
tp2136
a(I2137
I406629
I50183
F1.0
I356446
F0.0
I0
F0.0
I0
F0.0
I3790
I1
I2137
tp2137
a(I2138
I407129
I50183
F1.0
I356946
F0.0
I0
F0.0
I0
F0.0
I3792
I1
I2138
tp2138
a(I2139
I407629
I50183
F1.0
I357446
F0.0
I0
F0.0
I0
F0.0
I3794
I1
I2139
tp2139
a(I2140
I408129
I50183
F1.0
I357946
F0.0
I0
F0.0
I0
F0.0
I3796
I1
I2140
tp2140
a(I2141
I408629
I50183
F1.0
I358446
F0.0
I0
F0.0
I0
F0.0
I3798
I1
I2141
tp2141
a(I2142
I409129
I50183
F1.0
I358946
F0.0
I0
F0.0
I0
F0.0
I3800
I1
I2142
tp2142
a(I2143
I409629
I50183
F1.0
I359446
F0.0
I0
F0.0
I0
F0.0
I3802
I1
I2143
tp2143
a(I2144
I410129
I50183
F1.0
I359946
F0.0
I0
F0.0
I0
F0.0
I3804
I1
I2144
tp2144
a(I2145
I410629
I50183
F1.0
I360446
F0.0
I0
F0.0
I0
F0.0
I3806
I1
I2145
tp2145
a(I2146
I411129
I50183
F1.0
I360946
F0.0
I0
F0.0
I0
F0.0
I3808
I1
I2146
tp2146
a(I2147
I411629
I50183
F1.0
I361446
F0.0
I0
F0.0
I0
F0.0
I3810
I1
I2147
tp2147
a(I2148
I412129
I50183
F1.0
I361946
F0.0
I0
F0.0
I0
F0.0
I3812
I1
I2148
tp2148
a(I2149
I412629
I50183
F1.0
I362446
F0.0
I0
F0.0
I0
F0.0
I3814
I1
I2149
tp2149
a(I2150
I413129
I50183
F1.0
I362946
F0.0
I0
F0.0
I0
F0.0
I3816
I1
I2150
tp2150
a(I2151
I413629
I50183
F1.0
I363446
F0.0
I0
F0.0
I0
F0.0
I3818
I1
I2151
tp2151
a(I2152
I414129
I50183
F1.0
I363946
F0.0
I0
F0.0
I0
F0.0
I3820
I1
I2152
tp2152
a(I2153
I414629
I50183
F1.0
I364446
F0.0
I0
F0.0
I0
F0.0
I3822
I1
I2153
tp2153
a(I2154
I415129
I50183
F1.0
I364946
F0.0
I0
F0.0
I0
F0.0
I3824
I1
I2154
tp2154
a(I2155
I415629
I50183
F1.0
I365446
F0.0
I0
F0.0
I0
F0.0
I3826
I1
I2155
tp2155
a(I2156
I416129
I50183
F1.0
I365946
F0.0
I0
F0.0
I0
F0.0
I3828
I1
I2156
tp2156
a(I2157
I416629
I50183
F1.0
I366446
F0.0
I0
F0.0
I0
F0.0
I3830
I1
I2157
tp2157
a(I2158
I417129
I50183
F1.0
I366946
F0.0
I0
F0.0
I0
F0.0
I3832
I1
I2158
tp2158
a(I2159
I417629
I50183
F1.0
I367446
F0.0
I0
F0.0
I0
F0.0
I3834
I1
I2159
tp2159
a(I2160
I418129
I50183
F1.0
I367946
F0.0
I0
F0.0
I0
F0.0
I3836
I1
I2160
tp2160
a(I2161
I418629
I50183
F1.0
I368446
F0.0
I0
F0.0
I0
F0.0
I3838
I1
I2161
tp2161
a(I2162
I419129
I50183
F1.0
I368946
F0.0
I0
F0.0
I0
F0.0
I3840
I1
I2162
tp2162
a(I2163
I419629
I50183
F1.0
I369446
F0.0
I0
F0.0
I0
F0.0
I3842
I1
I2163
tp2163
a(I2164
I420129
I50183
F1.0
I369946
F0.0
I0
F0.0
I0
F0.0
I3844
I1
I2164
tp2164
a(I2165
I420629
I50183
F1.0
I370446
F0.0
I0
F0.0
I0
F0.0
I3846
I1
I2165
tp2165
a(I2166
I421129
I50183
F1.0
I370946
F0.0
I0
F0.0
I0
F0.0
I3848
I1
I2166
tp2166
a(I2167
I421629
I50183
F1.0
I371446
F0.0
I0
F0.0
I0
F0.0
I3850
I1
I2167
tp2167
a(I2168
I422129
I50183
F1.0
I371946
F0.0
I0
F0.0
I0
F0.0
I3852
I1
I2168
tp2168
a(I2169
I422629
I50183
F1.0
I372446
F0.0
I0
F0.0
I0
F0.0
I3854
I1
I2169
tp2169
a(I2170
I423129
I50183
F1.0
I372946
F0.0
I0
F0.0
I0
F0.0
I3856
I1
I2170
tp2170
a(I2171
I423629
I50183
F1.0
I373446
F0.0
I0
F0.0
I0
F0.0
I3858
I1
I2171
tp2171
a(I2172
I424129
I50183
F1.0
I373946
F0.0
I0
F0.0
I0
F0.0
I3860
I1
I2172
tp2172
a(I2173
I424629
I50183
F1.0
I374446
F0.0
I0
F0.0
I0
F0.0
I3862
I1
I2173
tp2173
a(I2174
I425129
I50183
F1.0
I374946
F0.0
I0
F0.0
I0
F0.0
I3864
I1
I2174
tp2174
a(I2175
I425629
I50183
F1.0
I375446
F0.0
I0
F0.0
I0
F0.0
I3866
I1
I2175
tp2175
a(I2176
I426129
I50183
F1.0
I375946
F0.0
I0
F0.0
I0
F0.0
I3868
I1
I2176
tp2176
a(I2177
I426629
I50183
F1.0
I376446
F0.0
I0
F0.0
I0
F0.0
I3870
I1
I2177
tp2177
a(I2178
I427129
I50183
F1.0
I376946
F0.0
I0
F0.0
I0
F0.0
I3872
I1
I2178
tp2178
a(I2179
I427629
I50183
F1.0
I377446
F0.0
I0
F0.0
I0
F0.0
I3874
I1
I2179
tp2179
a(I2180
I428129
I50183
F1.0
I377946
F0.0
I0
F0.0
I0
F0.0
I3876
I1
I2180
tp2180
a(I2181
I428629
I50183
F1.0
I378446
F0.0
I0
F0.0
I0
F0.0
I3878
I1
I2181
tp2181
a(I2182
I429129
I50183
F1.0
I378946
F0.0
I0
F0.0
I0
F0.0
I3880
I1
I2182
tp2182
a(I2183
I429629
I50183
F1.0
I379446
F0.0
I0
F0.0
I0
F0.0
I3882
I1
I2183
tp2183
a(I2184
I430129
I50183
F1.0
I379946
F0.0
I0
F0.0
I0
F0.0
I3884
I1
I2184
tp2184
a(I2185
I430629
I50183
F1.0
I380446
F0.0
I0
F0.0
I0
F0.0
I3886
I1
I2185
tp2185
a(I2186
I431100
I50183
F1.0
I380917
F0.0
I0
F0.0
I0
F0.0
I3888
I1
I2186
tp2186
a(I2187
I431600
I50183
F1.0
I381417
F0.0
I0
F0.0
I0
F0.0
I3890
I1
I2187
tp2187
a(I2188
I432100
I50183
F1.0
I381917
F0.0
I0
F0.0
I0
F0.0
I3892
I1
I2188
tp2188
a(I2189
I432373
I50183
F1.0
I382190
F0.0
I0
F0.0
I0
F0.0
I3894
I1
I2189
tp2189
a(I2190
I432873
I50183
F1.0
I382690
F0.0
I0
F0.0
I0
F0.0
I3896
I1
I2190
tp2190
a(I2191
I433373
I50183
F1.0
I383190
F0.0
I0
F0.0
I0
F0.0
I3898
I1
I2191
tp2191
a(I2192
I433873
I50183
F1.0
I383690
F0.0
I0
F0.0
I0
F0.0
I3900
I1
I2192
tp2192
a(I2193
I434373
I50183
F1.0
I384190
F0.0
I0
F0.0
I0
F0.0
I3902
I1
I2193
tp2193
a(I2194
I434873
I50183
F1.0
I384690
F0.0
I0
F0.0
I0
F0.0
I3904
I1
I2194
tp2194
a(I2195
I435373
I50183
F1.0
I385190
F0.0
I0
F0.0
I0
F0.0
I3906
I1
I2195
tp2195
a(I2196
I435873
I50183
F1.0
I385690
F0.0
I0
F0.0
I0
F0.0
I3908
I1
I2196
tp2196
a(I2197
I436373
I50183
F1.0
I386190
F0.0
I0
F0.0
I0
F0.0
I3910
I1
I2197
tp2197
a(I2198
I436873
I50183
F1.0
I386690
F0.0
I0
F0.0
I0
F0.0
I3912
I1
I2198
tp2198
a(I2199
I437373
I50183
F1.0
I387190
F0.0
I0
F0.0
I0
F0.0
I3914
I1
I2199
tp2199
a(I2200
I437606
I50183
F1.0
I387423
F0.0
I0
F0.0
I0
F0.0
I3916
I1
I2200
tp2200
a(I2201
I438106
I50183
F1.0
I387923
F0.0
I0
F0.0
I0
F0.0
I3918
I1
I2201
tp2201
a(I2202
I438606
I50183
F1.0
I388423
F0.0
I0
F0.0
I0
F0.0
I3920
I1
I2202
tp2202
a(I2203
I439106
I50183
F1.0
I388923
F0.0
I0
F0.0
I0
F0.0
I3922
I1
I2203
tp2203
a(I2204
I439606
I50183
F1.0
I389423
F0.0
I0
F0.0
I0
F0.0
I3924
I1
I2204
tp2204
a(I2205
I440106
I50183
F1.0
I389923
F0.0
I0
F0.0
I0
F0.0
I3926
I1
I2205
tp2205
a(I2206
I440606
I50183
F1.0
I390423
F0.0
I0
F0.0
I0
F0.0
I3928
I1
I2206
tp2206
a(I2207
I441106
I50183
F1.0
I390923
F0.0
I0
F0.0
I0
F0.0
I3930
I1
I2207
tp2207
a(I2208
I441606
I50183
F1.0
I391423
F0.0
I0
F0.0
I0
F0.0
I3932
I1
I2208
tp2208
a(I2209
I442106
I50183
F1.0
I391923
F0.0
I0
F0.0
I0
F0.0
I3934
I1
I2209
tp2209
a(I2210
I442606
I50183
F1.0
I392423
F0.0
I0
F0.0
I0
F0.0
I3936
I1
I2210
tp2210
a(I2211
I442706
I50183
F1.0
I392523
F0.0
I0
F0.0
I0
F0.0
I3938
I1
I2211
tp2211
a(I2212
I443206
I50183
F1.0
I393023
F0.0
I0
F0.0
I0
F0.0
I3940
I1
I2212
tp2212
a(I2213
I443706
I50183
F1.0
I393523
F0.0
I0
F0.0
I0
F0.0
I3942
I1
I2213
tp2213
a(I2214
I444206
I50183
F1.0
I394023
F0.0
I0
F0.0
I0
F0.0
I3944
I1
I2214
tp2214
a(I2215
I444706
I50183
F1.0
I394523
F0.0
I0
F0.0
I0
F0.0
I3946
I1
I2215
tp2215
a(I2216
I445206
I50183
F1.0
I395023
F0.0
I0
F0.0
I0
F0.0
I3948
I1
I2216
tp2216
a(I2217
I445706
I50183
F1.0
I395523
F0.0
I0
F0.0
I0
F0.0
I3950
I1
I2217
tp2217
a(I2218
I446206
I50183
F1.0
I396023
F0.0
I0
F0.0
I0
F0.0
I3952
I1
I2218
tp2218
a(I2219
I446706
I50183
F1.0
I396523
F0.0
I0
F0.0
I0
F0.0
I3954
I1
I2219
tp2219
a(I2220
I446903
I50183
F1.0
I396720
F0.0
I0
F0.0
I0
F0.0
I3956
I1
I2220
tp2220
a(I2221
I447403
I50183
F1.0
I397220
F0.0
I0
F0.0
I0
F0.0
I3958
I1
I2221
tp2221
a(I2222
I447903
I50183
F1.0
I397720
F0.0
I0
F0.0
I0
F0.0
I3960
I1
I2222
tp2222
a(I2223
I448403
I50183
F1.0
I398220
F0.0
I0
F0.0
I0
F0.0
I3962
I1
I2223
tp2223
a(I2224
I448903
I50183
F1.0
I398720
F0.0
I0
F0.0
I0
F0.0
I3964
I1
I2224
tp2224
a(I2225
I449403
I50183
F1.0
I399220
F0.0
I0
F0.0
I0
F0.0
I3966
I1
I2225
tp2225
a(I2226
I449903
I50183
F1.0
I399720
F0.0
I0
F0.0
I0
F0.0
I3968
I1
I2226
tp2226
a(I2227
I450403
I50183
F1.0
I400220
F0.0
I0
F0.0
I0
F0.0
I3970
I1
I2227
tp2227
a(I2228
I450903
I50183
F1.0
I400720
F0.0
I0
F0.0
I0
F0.0
I3972
I1
I2228
tp2228
a(I2229
I451403
I50183
F1.0
I401220
F0.0
I0
F0.0
I0
F0.0
I3974
I1
I2229
tp2229
a(I2230
I451903
I50183
F1.0
I401720
F0.0
I0
F0.0
I0
F0.0
I3976
I1
I2230
tp2230
a(I2231
I452403
I50183
F1.0
I402220
F0.0
I0
F0.0
I0
F0.0
I3978
I1
I2231
tp2231
a(I2232
I452903
I50183
F1.0
I402720
F0.0
I0
F0.0
I0
F0.0
I3980
I1
I2232
tp2232
a(I2233
I453403
I50183
F1.0
I403220
F0.0
I0
F0.0
I0
F0.0
I3982
I1
I2233
tp2233
a(I2234
I453903
I50183
F1.0
I403720
F0.0
I0
F0.0
I0
F0.0
I3984
I1
I2234
tp2234
a(I2235
I454326
I50183
F1.0
I404143
F0.0
I0
F0.0
I0
F0.0
I3986
I1
I2235
tp2235
a(I2236
I454826
I50183
F1.0
I404643
F0.0
I0
F0.0
I0
F0.0
I3988
I1
I2236
tp2236
a(I2237
I455326
I50183
F1.0
I405143
F0.0
I0
F0.0
I0
F0.0
I3990
I1
I2237
tp2237
a(I2238
I455826
I50183
F1.0
I405643
F0.0
I0
F0.0
I0
F0.0
I3992
I1
I2238
tp2238
a(I2239
I456326
I50183
F1.0
I406143
F0.0
I0
F0.0
I0
F0.0
I3994
I1
I2239
tp2239
a(I2240
I456826
I50183
F1.0
I406643
F0.0
I0
F0.0
I0
F0.0
I3996
I1
I2240
tp2240
a(I2241
I457176
I50183
F1.0
I406993
F0.0
I0
F0.0
I0
F0.0
I3998
I1
I2241
tp2241
a(I2242
I457676
I50183
F1.0
I407493
F0.0
I0
F0.0
I0
F0.0
I4000
I1
I2242
tp2242
a(I2243
I458176
I50183
F1.0
I407993
F0.0
I0
F0.0
I0
F0.0
I4002
I1
I2243
tp2243
a(I2244
I458676
I50183
F1.0
I408493
F0.0
I0
F0.0
I0
F0.0
I4004
I1
I2244
tp2244
a(I2245
I458909
I50183
F1.0
I408726
F0.0
I0
F0.0
I0
F0.0
I4006
I1
I2245
tp2245
a(I2246
I459163
I50183
F1.0
I408980
F0.0
I0
F0.0
I0
F0.0
I4008
I1
I2246
tp2246
a(I2247
I459444
I50183
F1.0
I409261
F0.0
I0
F0.0
I0
F0.0
I4010
I1
I2247
tp2247
a(I2248
I459730
I50183
F1.0
I409547
F0.0
I0
F0.0
I0
F0.0
I4012
I1
I2248
tp2248
a(I2249
I460220
I50183
F1.0
I410037
F0.0
I0
F0.0
I0
F0.0
I4014
I1
I2249
tp2249
a(I2250
I460720
I50183
F1.0
I410537
F0.0
I0
F0.0
I0
F0.0
I4016
I1
I2250
tp2250
a(I2251
I460918
I50183
F1.0
I410735
F0.0
I0
F0.0
I0
F0.0
I4018
I1
I2251
tp2251
a(I2252
I461418
I50183
F1.0
I411235
F0.0
I0
F0.0
I0
F0.0
I4020
I1
I2252
tp2252
a(I2253
I461918
I50183
F1.0
I411735
F0.0
I0
F0.0
I0
F0.0
I4022
I1
I2253
tp2253
a(I2254
I462418
I50183
F1.0
I412235
F0.0
I0
F0.0
I0
F0.0
I4024
I1
I2254
tp2254
a(I2255
I462918
I50183
F1.0
I412735
F0.0
I0
F0.0
I0
F0.0
I4026
I1
I2255
tp2255
a(I2256
I463418
I50183
F1.0
I413235
F0.0
I0
F0.0
I0
F0.0
I4028
I1
I2256
tp2256
a(I2257
I463556
I50183
F1.0
I413373
F0.0
I0
F0.0
I0
F0.0
I4030
I1
I2257
tp2257
a(I2258
I464056
I50183
F1.0
I413873
F0.0
I0
F0.0
I0
F0.0
I4032
I1
I2258
tp2258
a(I2259
I464556
I50183
F1.0
I414373
F0.0
I0
F0.0
I0
F0.0
I4034
I1
I2259
tp2259
a(I2260
I464868
I50183
F1.0
I414685
F0.0
I0
F0.0
I0
F0.0
I4036
I1
I2260
tp2260
a(I2261
I465368
I50183
F1.0
I415185
F0.0
I0
F0.0
I0
F0.0
I4038
I1
I2261
tp2261
a(I2262
I465868
I50183
F1.0
I415685
F0.0
I0
F0.0
I0
F0.0
I4040
I1
I2262
tp2262
a(I2263
I466368
I50183
F1.0
I416185
F0.0
I0
F0.0
I0
F0.0
I4042
I1
I2263
tp2263
a(I2264
I466564
I50183
F1.0
I416381
F0.0
I0
F0.0
I0
F0.0
I4044
I1
I2264
tp2264
a(I2265
I466674
I50183
F1.0
I416491
F0.0
I0
F0.0
I0
F0.0
I4046
I1
I2265
tp2265
a(I2266
I467174
I50183
F1.0
I416991
F0.0
I0
F0.0
I0
F0.0
I4048
I1
I2266
tp2266
a(I2267
I467606
I50183
F1.0
I417423
F0.0
I0
F0.0
I0
F0.0
I4050
I1
I2267
tp2267
a(I2268
I468106
I50183
F1.0
I417923
F0.0
I0
F0.0
I0
F0.0
I4052
I1
I2268
tp2268
a(I2269
I468606
I50183
F1.0
I418423
F0.0
I0
F0.0
I0
F0.0
I4054
I1
I2269
tp2269
a(I2270
I468818
I50183
F1.0
I418635
F0.0
I0
F0.0
I0
F0.0
I4056
I1
I2270
tp2270
a(I2271
I469214
I50183
F1.0
I419031
F0.0
I0
F0.0
I0
F0.0
I4058
I1
I2271
tp2271
a(I2272
I469410
I50183
F1.0
I419227
F0.0
I0
F0.0
I0
F0.0
I4060
I1
I2272
tp2272
a(I2273
I469910
I50183
F1.0
I419727
F0.0
I0
F0.0
I0
F0.0
I4062
I1
I2273
tp2273
a(I2274
I470109
I50183
F1.0
I419926
F0.0
I0
F0.0
I0
F0.0
I4064
I1
I2274
tp2274
a(I2275
I470374
I50183
F1.0
I420191
F0.0
I0
F0.0
I0
F0.0
I4066
I1
I2275
tp2275
a(I2276
I470642
I50183
F1.0
I420459
F0.0
I0
F0.0
I0
F0.0
I4068
I1
I2276
tp2276
a(I2277
I471142
I50183
F1.0
I420959
F0.0
I0
F0.0
I0
F0.0
I4070
I1
I2277
tp2277
a(I2278
I471642
I50183
F1.0
I421459
F0.0
I0
F0.0
I0
F0.0
I4072
I1
I2278
tp2278
a(I2279
I471919
I50183
F1.0
I421736
F0.0
I0
F0.0
I0
F0.0
I4074
I1
I2279
tp2279
a(I2280
I472419
I50183
F1.0
I422236
F0.0
I0
F0.0
I0
F0.0
I4076
I1
I2280
tp2280
a(I2281
I472654
I50183
F1.0
I422471
F0.0
I0
F0.0
I0
F0.0
I4078
I1
I2281
tp2281
a(I2282
I473154
I50183
F1.0
I422971
F0.0
I0
F0.0
I0
F0.0
I4080
I1
I2282
tp2282
a(I2283
I473487
I50183
F1.0
I423304
F0.0
I0
F0.0
I0
F0.0
I4082
I1
I2283
tp2283
a(I2284
I473987
I50183
F1.0
I423804
F0.0
I0
F0.0
I0
F0.0
I4084
I1
I2284
tp2284
a(I2285
I474487
I50183
F1.0
I424304
F0.0
I0
F0.0
I0
F0.0
I4086
I1
I2285
tp2285
a(I2286
I474987
I50183
F1.0
I424804
F0.0
I0
F0.0
I0
F0.0
I4088
I1
I2286
tp2286
a(I2287
I475395
I50183
F1.0
I425212
F0.0
I0
F0.0
I0
F0.0
I4090
I1
I2287
tp2287
a(I2288
I475847
I50183
F1.0
I425664
F0.0
I0
F0.0
I0
F0.0
I4092
I1
I2288
tp2288
a(I2289
I476347
I50183
F1.0
I426164
F0.0
I0
F0.0
I0
F0.0
I4094
I1
I2289
tp2289
a(I2290
I476847
I50183
F1.0
I426664
F0.0
I0
F0.0
I0
F0.0
I4096
I1
I2290
tp2290
a(I2291
I477347
I50183
F1.0
I427164
F0.0
I0
F0.0
I0
F0.0
I4098
I1
I2291
tp2291
a(I2292
I477847
I50183
F1.0
I427664
F0.0
I0
F0.0
I0
F0.0
I4100
I1
I2292
tp2292
a(I2293
I478347
I50183
F1.0
I428164
F0.0
I0
F0.0
I0
F0.0
I4102
I1
I2293
tp2293
a(I2294
I478847
I50183
F1.0
I428664
F0.0
I0
F0.0
I0
F0.0
I4104
I1
I2294
tp2294
a(I2295
I478874
I50183
F1.0
I428691
F0.0
I0
F0.0
I0
F0.0
I4106
I1
I2295
tp2295
a(I2296
I479063
I50183
F1.0
I428880
F0.0
I0
F0.0
I0
F0.0
I4108
I1
I2296
tp2296
a(I2297
I479563
I50183
F1.0
I429380
F0.0
I0
F0.0
I0
F0.0
I4110
I1
I2297
tp2297
a(I2298
I480063
I50183
F1.0
I429880
F0.0
I0
F0.0
I0
F0.0
I4112
I1
I2298
tp2298
a(I2299
I480563
I50183
F1.0
I430380
F0.0
I0
F0.0
I0
F0.0
I4114
I1
I2299
tp2299
a(I2300
I480968
I50183
F1.0
I430785
F0.0
I0
F0.0
I0
F0.0
I4116
I1
I2300
tp2300
a(I2301
I481468
I50183
F1.0
I431285
F0.0
I0
F0.0
I0
F0.0
I4118
I1
I2301
tp2301
a(I2302
I481661
I50183
F1.0
I431478
F0.0
I0
F0.0
I0
F0.0
I4120
I1
I2302
tp2302
a(I2303
I482161
I50183
F1.0
I431978
F0.0
I0
F0.0
I0
F0.0
I4122
I1
I2303
tp2303
a(I2304
I482661
I50183
F1.0
I432478
F0.0
I0
F0.0
I0
F0.0
I4124
I1
I2304
tp2304
a(I2305
I483161
I50183
F1.0
I432978
F0.0
I0
F0.0
I0
F0.0
I4126
I1
I2305
tp2305
a(I2306
I483356
I50183
F1.0
I433173
F0.0
I0
F0.0
I0
F0.0
I4128
I1
I2306
tp2306
a(I2307
I483383
I50183
F1.0
I433200
F0.0
I0
F0.0
I0
F0.0
I4130
I1
I2307
tp2307
a(I2308
I483883
I50183
F1.0
I433700
F0.0
I0
F0.0
I0
F0.0
I4132
I1
I2308
tp2308
a(I2309
I484282
I50183
F1.0
I434099
F0.0
I0
F0.0
I0
F0.0
I4134
I1
I2309
tp2309
a(I2310
I484782
I50183
F1.0
I434599
F0.0
I0
F0.0
I0
F0.0
I4136
I1
I2310
tp2310
a(I2311
I484904
I50183
F1.0
I434721
F0.0
I0
F0.0
I0
F0.0
I4138
I1
I2311
tp2311
a(I2312
I485404
I50183
F1.0
I435221
F0.0
I0
F0.0
I0
F0.0
I4140
I1
I2312
tp2312
a(I2313
I485904
I50183
F1.0
I435721
F0.0
I0
F0.0
I0
F0.0
I4142
I1
I2313
tp2313
a(I2314
I486404
I50183
F1.0
I436221
F0.0
I0
F0.0
I0
F0.0
I4144
I1
I2314
tp2314
a(I2315
I486904
I50183
F1.0
I436721
F0.0
I0
F0.0
I0
F0.0
I4146
I1
I2315
tp2315
a(I2316
I487404
I50183
F1.0
I437221
F0.0
I0
F0.0
I0
F0.0
I4148
I1
I2316
tp2316
a(I2317
I487426
I50183
F1.0
I437243
F0.0
I0
F0.0
I0
F0.0
I4150
I1
I2317
tp2317
a(I2318
I487844
I50183
F1.0
I437661
F0.0
I0
F0.0
I0
F0.0
I4152
I1
I2318
tp2318
a(I2319
I488295
I50183
F1.0
I438112
F0.0
I0
F0.0
I0
F0.0
I4154
I1
I2319
tp2319
a(I2320
I488387
I50183
F1.0
I438204
F0.0
I0
F0.0
I0
F0.0
I4156
I1
I2320
tp2320
a(I2321
I488887
I50183
F1.0
I438704
F0.0
I0
F0.0
I0
F0.0
I4158
I1
I2321
tp2321
a(I2322
I489387
I50183
F1.0
I439204
F0.0
I0
F0.0
I0
F0.0
I4160
I1
I2322
tp2322
a(I2323
I489509
I50183
F1.0
I439326
F0.0
I0
F0.0
I0
F0.0
I4162
I1
I2323
tp2323
a(I2324
I490009
I50183
F1.0
I439826
F0.0
I0
F0.0
I0
F0.0
I4164
I1
I2324
tp2324
a(I2325
I490116
I50183
F1.0
I439933
F0.0
I0
F0.0
I0
F0.0
I4166
I1
I2325
tp2325
a(I2326
I490302
I50183
F1.0
I440119
F0.0
I0
F0.0
I0
F0.0
I4168
I1
I2326
tp2326
a(I2327
I490802
I50183
F1.0
I440619
F0.0
I0
F0.0
I0
F0.0
I4170
I1
I2327
tp2327
a(I2328
I491302
I50183
F1.0
I441119
F0.0
I0
F0.0
I0
F0.0
I4172
I1
I2328
tp2328
a(I2329
I491327
I50183
F1.0
I441144
F0.0
I0
F0.0
I0
F0.0
I4174
I1
I2329
tp2329
a(I2330
I491344
I50183
F1.0
I441161
F0.0
I0
F0.0
I0
F0.0
I4176
I1
I2330
tp2330
a(I2331
I491408
I50183
F1.0
I441225
F0.0
I0
F0.0
I0
F0.0
I4178
I1
I2331
tp2331
a(I2332
I491502
I50183
F1.0
I441319
F0.0
I0
F0.0
I0
F0.0
I4180
I1
I2332
tp2332
a(I2333
I491845
I50183
F1.0
I441662
F0.0
I0
F0.0
I0
F0.0
I4182
I1
I2333
tp2333
a(I2334
I492291
I50183
F1.0
I442108
F0.0
I0
F0.0
I0
F0.0
I4184
I1
I2334
tp2334
a(I2335
I492329
I50183
F1.0
I442146
F0.0
I0
F0.0
I0
F0.0
I4186
I1
I2335
tp2335
a(I2336
I492553
I50183
F1.0
I442370
F0.0
I0
F0.0
I0
F0.0
I4188
I1
I2336
tp2336
a(I2337
I492727
I50183
F1.0
I442544
F0.0
I0
F0.0
I0
F0.0
I4190
I1
I2337
tp2337
a(I2338
I493162
I50183
F1.0
I442979
F0.0
I0
F0.0
I0
F0.0
I4192
I1
I2338
tp2338
a(I2339
I493662
I50183
F1.0
I443479
F0.0
I0
F0.0
I0
F0.0
I4194
I1
I2339
tp2339
a(I2340
I494162
I50183
F1.0
I443979
F0.0
I0
F0.0
I0
F0.0
I4196
I1
I2340
tp2340
a(I2341
I494662
I50183
F1.0
I444479
F0.0
I0
F0.0
I0
F0.0
I4198
I1
I2341
tp2341
a(I2342
I494932
I50183
F1.0
I444749
F0.0
I0
F0.0
I0
F0.0
I4200
I1
I2342
tp2342
a(I2343
I495432
I50183
F1.0
I445249
F0.0
I0
F0.0
I0
F0.0
I4202
I1
I2343
tp2343
a(I2344
I495842
I50183
F1.0
I445659
F0.0
I0
F0.0
I0
F0.0
I4204
I1
I2344
tp2344
a(I2345
I495940
I50183
F1.0
I445757
F0.0
I0
F0.0
I0
F0.0
I4206
I1
I2345
tp2345
a(I2346
I496188
I50183
F1.0
I446005
F0.0
I0
F0.0
I0
F0.0
I4208
I1
I2346
tp2346
a(I2347
I496468
I50183
F1.0
I446285
F0.0
I0
F0.0
I0
F0.0
I4210
I1
I2347
tp2347
a(I2348
I496968
I50183
F1.0
I446785
F0.0
I0
F0.0
I0
F0.0
I4212
I1
I2348
tp2348
a(I2349
I497380
I50183
F1.0
I447197
F0.0
I0
F0.0
I0
F0.0
I4214
I1
I2349
tp2349
a(I2350
I497793
I50183
F1.0
I447610
F0.0
I0
F0.0
I0
F0.0
I4216
I1
I2350
tp2350
a(I2351
I497832
I50183
F1.0
I447649
F0.0
I0
F0.0
I0
F0.0
I4218
I1
I2351
tp2351
a(I2352
I497873
I50183
F1.0
I447690
F0.0
I0
F0.0
I0
F0.0
I4220
I1
I2352
tp2352
a(I2353
I498080
I50183
F1.0
I447897
F0.0
I0
F0.0
I0
F0.0
I4222
I1
I2353
tp2353
a(I2354
I498186
I50183
F1.0
I448003
F0.0
I0
F0.0
I0
F0.0
I4224
I1
I2354
tp2354
a(I2355
I498268
I50183
F1.0
I448085
F0.0
I0
F0.0
I0
F0.0
I4226
I1
I2355
tp2355
a(I2356
I498475
I50183
F1.0
I448292
F0.0
I0
F0.0
I0
F0.0
I4228
I1
I2356
tp2356
a(I2357
I498975
I50183
F1.0
I448792
F0.0
I0
F0.0
I0
F0.0
I4230
I1
I2357
tp2357
a(I2358
I499080
I50183
F1.0
I448897
F0.0
I0
F0.0
I0
F0.0
I4232
I1
I2358
tp2358
a(I2359
I499289
I50183
F1.0
I449106
F0.0
I0
F0.0
I0
F0.0
I4234
I1
I2359
tp2359
a(I2360
I499396
I50183
F1.0
I449213
F0.0
I0
F0.0
I0
F0.0
I4236
I1
I2360
tp2360
a(I2361
I499484
I50183
F1.0
I449301
F0.0
I0
F0.0
I0
F0.0
I4238
I1
I2361
tp2361
a(I2362
I499984
I50183
F1.0
I449801
F0.0
I0
F0.0
I0
F0.0
I4240
I1
I2362
tp2362
a(I2363
I500372
I50183
F1.0
I450189
F0.0
I0
F0.0
I0
F0.0
I4242
I1
I2363
tp2363
a(I2364
I500872
I50183
F1.0
I450689
F0.0
I0
F0.0
I0
F0.0
I4244
I1
I2364
tp2364
a(I2365
I501372
I50183
F1.0
I451189
F0.0
I0
F0.0
I0
F0.0
I4246
I1
I2365
tp2365
a(I2366
I501674
I50183
F1.0
I451491
F0.0
I0
F0.0
I0
F0.0
I4248
I1
I2366
tp2366
a(I2367
I502174
I50183
F1.0
I451991
F0.0
I0
F0.0
I0
F0.0
I4250
I1
I2367
tp2367
a(I2368
I502190
I50183
F1.0
I452007
F0.0
I0
F0.0
I0
F0.0
I4252
I1
I2368
tp2368
a(I2369
I502690
I50183
F1.0
I452507
F0.0
I0
F0.0
I0
F0.0
I4254
I1
I2369
tp2369
a(I2370
I502759
I50183
F1.0
I452576
F0.0
I0
F0.0
I0
F0.0
I4256
I1
I2370
tp2370
a(I2371
I503259
I50183
F1.0
I453076
F0.0
I0
F0.0
I0
F0.0
I4258
I1
I2371
tp2371
a(I2372
I503278
I50183
F1.0
I453095
F0.0
I0
F0.0
I0
F0.0
I4260
I1
I2372
tp2372
a(I2373
I503297
I50183
F1.0
I453114
F0.0
I0
F0.0
I0
F0.0
I4262
I1
I2373
tp2373
a(I2374
I503316
I50183
F1.0
I453133
F0.0
I0
F0.0
I0
F0.0
I4264
I1
I2374
tp2374
a(I2375
I503816
I50183
F1.0
I453633
F0.0
I0
F0.0
I0
F0.0
I4266
I1
I2375
tp2375
a(I2376
I503920
I50183
F1.0
I453737
F0.0
I0
F0.0
I0
F0.0
I4268
I1
I2376
tp2376
a(I2377
I504144
I50183
F1.0
I453961
F0.0
I0
F0.0
I0
F0.0
I4270
I1
I2377
tp2377
a(I2378
I504260
I50183
F1.0
I454077
F0.0
I0
F0.0
I0
F0.0
I4272
I1
I2378
tp2378
a(I2379
I504322
I50183
F1.0
I454139
F0.0
I0
F0.0
I0
F0.0
I4274
I1
I2379
tp2379
a(I2380
I504338
I50183
F1.0
I454155
F0.0
I0
F0.0
I0
F0.0
I4276
I1
I2380
tp2380
a(I2381
I504354
I50183
F1.0
I454171
F0.0
I0
F0.0
I0
F0.0
I4278
I1
I2381
tp2381
a(I2382
I504374
I50183
F1.0
I454191
F0.0
I0
F0.0
I0
F0.0
I4280
I1
I2382
tp2382
a(I2383
I504388
I50183
F1.0
I454205
F0.0
I0
F0.0
I0
F0.0
I4282
I1
I2383
tp2383
a(I2384
I504403
I50183
F1.0
I454220
F0.0
I0
F0.0
I0
F0.0
I4284
I1
I2384
tp2384
a(I2385
I504419
I50183
F1.0
I454236
F0.0
I0
F0.0
I0
F0.0
I4286
I1
I2385
tp2385
a(I2386
I504435
I50183
F1.0
I454252
F0.0
I0
F0.0
I0
F0.0
I4288
I1
I2386
tp2386
a(I2387
I504451
I50183
F1.0
I454268
F0.0
I0
F0.0
I0
F0.0
I4290
I1
I2387
tp2387
a(I2388
I504468
I50183
F1.0
I454285
F0.0
I0
F0.0
I0
F0.0
I4292
I1
I2388
tp2388
a(I2389
I504854
I50183
F1.0
I454671
F0.0
I0
F0.0
I0
F0.0
I4294
I1
I2389
tp2389
a(I2390
I504945
I50183
F1.0
I454762
F0.0
I0
F0.0
I0
F0.0
I4296
I1
I2390
tp2390
a(I2391
I505015
I50183
F1.0
I454832
F0.0
I0
F0.0
I0
F0.0
I4298
I1
I2391
tp2391
a(I2392
I505144
I50183
F1.0
I454961
F0.0
I0
F0.0
I0
F0.0
I4300
I1
I2392
tp2392
a(I2393
I505644
I50183
F1.0
I455461
F0.0
I0
F0.0
I0
F0.0
I4302
I1
I2393
tp2393
a(I2394
I505664
I50183
F1.0
I455481
F0.0
I0
F0.0
I0
F0.0
I4304
I1
I2394
tp2394
a(I2395
I505684
I50183
F1.0
I455501
F0.0
I0
F0.0
I0
F0.0
I4306
I1
I2395
tp2395
a(I2396
I505698
I50183
F1.0
I455515
F0.0
I0
F0.0
I0
F0.0
I4308
I1
I2396
tp2396
a(I2397
I505712
I50183
F1.0
I455529
F0.0
I0
F0.0
I0
F0.0
I4310
I1
I2397
tp2397
a(I2398
I505726
I50183
F1.0
I455543
F0.0
I0
F0.0
I0
F0.0
I4312
I1
I2398
tp2398
a(I2399
I505740
I50183
F1.0
I455557
F0.0
I0
F0.0
I0
F0.0
I4314
I1
I2399
tp2399
a(I2400
I505760
I50183
F1.0
I455577
F0.0
I0
F0.0
I0
F0.0
I4316
I1
I2400
tp2400
a(I2401
I505774
I50183
F1.0
I455591
F0.0
I0
F0.0
I0
F0.0
I4318
I1
I2401
tp2401
a(I2402
I505841
I50183
F1.0
I455658
F0.0
I0
F0.0
I0
F0.0
I4320
I1
I2402
tp2402
a(I2403
I506121
I50183
F1.0
I455938
F0.0
I0
F0.0
I0
F0.0
I4322
I1
I2403
tp2403
a(I2404
I506155
I50183
F1.0
I455972
F0.0
I0
F0.0
I0
F0.0
I4324
I1
I2404
tp2404
a(I2405
I506175
I50183
F1.0
I455992
F0.0
I0
F0.0
I0
F0.0
I4326
I1
I2405
tp2405
a(I2406
I506195
I50183
F1.0
I456012
F0.0
I0
F0.0
I0
F0.0
I4328
I1
I2406
tp2406
a(I2407
I506695
I50183
F1.0
I456512
F0.0
I0
F0.0
I0
F0.0
I4330
I1
I2407
tp2407
a(I2408
I506810
I50183
F1.0
I456627
F0.0
I0
F0.0
I0
F0.0
I4332
I1
I2408
tp2408
a(I2409
I506924
I50183
F1.0
I456741
F0.0
I0
F0.0
I0
F0.0
I4334
I1
I2409
tp2409
a(I2410
I506990
I50183
F1.0
I456807
F0.0
I0
F0.0
I0
F0.0
I4336
I1
I2410
tp2410
a(I2411
I507211
I50183
F1.0
I457028
F0.0
I0
F0.0
I0
F0.0
I4338
I1
I2411
tp2411
a(I2412
I507233
I50183
F1.0
I457050
F0.0
I0
F0.0
I0
F0.0
I4340
I1
I2412
tp2412
a(I2413
I507255
I50183
F1.0
I457072
F0.0
I0
F0.0
I0
F0.0
I4342
I1
I2413
tp2413
a(I2414
I507755
I50183
F1.0
I457572
F0.0
I0
F0.0
I0
F0.0
I4344
I1
I2414
tp2414
a(I2415
I507829
I50183
F1.0
I457646
F0.0
I0
F0.0
I0
F0.0
I4346
I1
I2415
tp2415
a(I2416
I507934
I50183
F1.0
I457751
F0.0
I0
F0.0
I0
F0.0
I4348
I1
I2416
tp2416
a(I2417
I507956
I50183
F1.0
I457773
F0.0
I0
F0.0
I0
F0.0
I4350
I1
I2417
tp2417
a(I2418
I508051
I50183
F1.0
I457868
F0.0
I0
F0.0
I0
F0.0
I4352
I1
I2418
tp2418
a(I2419
I508070
I50183
F1.0
I457887
F0.0
I0
F0.0
I0
F0.0
I4354
I1
I2419
tp2419
a(I2420
I508570
I50183
F1.0
I458387
F0.0
I0
F0.0
I0
F0.0
I4356
I1
I2420
tp2420
a(I2421
I508592
I50183
F1.0
I458409
F0.0
I0
F0.0
I0
F0.0
I4358
I1
I2421
tp2421
a(I2422
I509092
I50183
F1.0
I458909
F0.0
I0
F0.0
I0
F0.0
I4360
I1
I2422
tp2422
a(I2423
I509160
I50183
F1.0
I458977
F0.0
I0
F0.0
I0
F0.0
I4362
I1
I2423
tp2423
a(I2424
I509181
I50183
F1.0
I458998
F0.0
I0
F0.0
I0
F0.0
I4364
I1
I2424
tp2424
a(I2425
I509201
I50183
F1.0
I459018
F0.0
I0
F0.0
I0
F0.0
I4366
I1
I2425
tp2425
a(I2426
I509701
I50183
F1.0
I459518
F0.0
I0
F0.0
I0
F0.0
I4368
I1
I2426
tp2426
a(I2427
I510201
I50183
F1.0
I460018
F0.0
I0
F0.0
I0
F0.0
I4370
I1
I2427
tp2427
a(I2428
I510222
I50183
F1.0
I460039
F0.0
I0
F0.0
I0
F0.0
I4372
I1
I2428
tp2428
a(I2429
I510265
I50183
F1.0
I460082
F0.0
I0
F0.0
I0
F0.0
I4374
I1
I2429
tp2429
a(I2430
I510387
I50183
F1.0
I460204
F0.0
I0
F0.0
I0
F0.0
I4376
I1
I2430
tp2430
a(I2431
I510408
I50183
F1.0
I460225
F0.0
I0
F0.0
I0
F0.0
I4378
I1
I2431
tp2431
a(I2432
I510430
I50183
F1.0
I460247
F0.0
I0
F0.0
I0
F0.0
I4380
I1
I2432
tp2432
a(I2433
I510452
I50183
F1.0
I460269
F0.0
I0
F0.0
I0
F0.0
I4382
I1
I2433
tp2433
a(I2434
I510577
I50183
F1.0
I460394
F0.0
I0
F0.0
I0
F0.0
I4384
I1
I2434
tp2434
a(I2435
I511077
I50183
F1.0
I460894
F0.0
I0
F0.0
I0
F0.0
I4386
I1
I2435
tp2435
a(I2436
I511149
I50183
F1.0
I460966
F0.0
I0
F0.0
I0
F0.0
I4388
I1
I2436
tp2436
a(I2437
I511649
I50183
F1.0
I461466
F0.0
I0
F0.0
I0
F0.0
I4390
I1
I2437
tp2437
a(I2438
I512149
I50183
F1.0
I461966
F0.0
I0
F0.0
I0
F0.0
I4392
I1
I2438
tp2438
a(I2439
I512175
I50183
F1.0
I461992
F0.0
I0
F0.0
I0
F0.0
I4394
I1
I2439
tp2439
a(I2440
I512675
I50183
F1.0
I462492
F0.0
I0
F0.0
I0
F0.0
I4396
I1
I2440
tp2440
a(I2441
I513175
I50183
F1.0
I462992
F0.0
I0
F0.0
I0
F0.0
I4398
I1
I2441
tp2441
a(I2442
I513675
I50183
F1.0
I463492
F0.0
I0
F0.0
I0
F0.0
I4400
I1
I2442
tp2442
a(I2443
I513756
I50183
F1.0
I463573
F0.0
I0
F0.0
I0
F0.0
I4402
I1
I2443
tp2443
a(I2444
I513882
I50183
F1.0
I463699
F0.0
I0
F0.0
I0
F0.0
I4404
I1
I2444
tp2444
a(I2445
I514382
I50183
F1.0
I464199
F0.0
I0
F0.0
I0
F0.0
I4406
I1
I2445
tp2445
a(I2446
I514408
I50183
F1.0
I464225
F0.0
I0
F0.0
I0
F0.0
I4408
I1
I2446
tp2446
a(I2447
I514436
I50183
F1.0
I464253
F0.0
I0
F0.0
I0
F0.0
I4410
I1
I2447
tp2447
a(I2448
I514464
I50183
F1.0
I464281
F0.0
I0
F0.0
I0
F0.0
I4412
I1
I2448
tp2448
a(I2449
I514492
I50183
F1.0
I464309
F0.0
I0
F0.0
I0
F0.0
I4414
I1
I2449
tp2449
a(I2450
I514520
I50183
F1.0
I464337
F0.0
I0
F0.0
I0
F0.0
I4416
I1
I2450
tp2450
a(I2451
I514547
I50183
F1.0
I464364
F0.0
I0
F0.0
I0
F0.0
I4418
I1
I2451
tp2451
a(I2452
I514575
I50183
F1.0
I464392
F0.0
I0
F0.0
I0
F0.0
I4420
I1
I2452
tp2452
a(I2453
I514733
I50183
F1.0
I464550
F0.0
I0
F0.0
I0
F0.0
I4422
I1
I2453
tp2453
a(I2454
I515233
I50183
F1.0
I465050
F0.0
I0
F0.0
I0
F0.0
I4424
I1
I2454
tp2454
a(I2455
I515261
I50183
F1.0
I465078
F0.0
I0
F0.0
I0
F0.0
I4426
I1
I2455
tp2455
a(I2456
I515289
I50183
F1.0
I465106
F0.0
I0
F0.0
I0
F0.0
I4428
I1
I2456
tp2456
a(I2457
I515789
I50183
F1.0
I465606
F0.0
I0
F0.0
I0
F0.0
I4430
I1
I2457
tp2457
a(I2458
I515817
I50183
F1.0
I465634
F0.0
I0
F0.0
I0
F0.0
I4432
I1
I2458
tp2458
a(I2459
I515845
I50183
F1.0
I465662
F0.0
I0
F0.0
I0
F0.0
I4434
I1
I2459
tp2459
a(I2460
I515870
I50183
F1.0
I465687
F0.0
I0
F0.0
I0
F0.0
I4436
I1
I2460
tp2460
a(I2461
I515898
I50183
F1.0
I465715
F0.0
I0
F0.0
I0
F0.0
I4438
I1
I2461
tp2461
a(I2462
I515926
I50183
F1.0
I465743
F0.0
I0
F0.0
I0
F0.0
I4440
I1
I2462
tp2462
a(I2463
I515954
I50183
F1.0
I465771
F0.0
I0
F0.0
I0
F0.0
I4442
I1
I2463
tp2463
a(I2464
I515982
I50183
F1.0
I465799
F0.0
I0
F0.0
I0
F0.0
I4444
I1
I2464
tp2464
a(I2465
I516010
I50183
F1.0
I465827
F0.0
I0
F0.0
I0
F0.0
I4446
I1
I2465
tp2465
a(I2466
I516038
I50183
F1.0
I465855
F0.0
I0
F0.0
I0
F0.0
I4448
I1
I2466
tp2466
a(I2467
I516066
I50183
F1.0
I465883
F0.0
I0
F0.0
I0
F0.0
I4450
I1
I2467
tp2467
a(I2468
I516094
I50183
F1.0
I465911
F0.0
I0
F0.0
I0
F0.0
I4452
I1
I2468
tp2468
a(I2469
I516122
I50183
F1.0
I465939
F0.0
I0
F0.0
I0
F0.0
I4454
I1
I2469
tp2469
a(I2470
I516150
I50183
F1.0
I465967
F0.0
I0
F0.0
I0
F0.0
I4456
I1
I2470
tp2470
a(I2471
I516178
I50183
F1.0
I465995
F0.0
I0
F0.0
I0
F0.0
I4458
I1
I2471
tp2471
a(I2472
I516206
I50183
F1.0
I466023
F0.0
I0
F0.0
I0
F0.0
I4460
I1
I2472
tp2472
a(I2473
I516234
I50183
F1.0
I466051
F0.0
I0
F0.0
I0
F0.0
I4462
I1
I2473
tp2473
a(I2474
I516262
I50183
F1.0
I466079
F0.0
I0
F0.0
I0
F0.0
I4464
I1
I2474
tp2474
a(I2475
I516762
I50183
F1.0
I466579
F0.0
I0
F0.0
I0
F0.0
I4466
I1
I2475
tp2475
a(I2476
I516843
I50183
F1.0
I466660
F0.0
I0
F0.0
I0
F0.0
I4468
I1
I2476
tp2476
a(I2477
I516924
I50183
F1.0
I466741
F0.0
I0
F0.0
I0
F0.0
I4470
I1
I2477
tp2477
a(I2478
I516976
I50183
F1.0
I466793
F0.0
I0
F0.0
I0
F0.0
I4472
I1
I2478
tp2478
a(I2479
I517476
I50183
F1.0
I467293
F0.0
I0
F0.0
I0
F0.0
I4474
I1
I2479
tp2479
a(I2480
I517557
I50183
F1.0
I467374
F0.0
I0
F0.0
I0
F0.0
I4476
I1
I2480
tp2480
a(I2481
I517638
I50183
F1.0
I467455
F0.0
I0
F0.0
I0
F0.0
I4478
I1
I2481
tp2481
a(I2482
I518138
I50183
F1.0
I467955
F0.0
I0
F0.0
I0
F0.0
I4480
I1
I2482
tp2482
a(I2483
I518219
I50183
F1.0
I468036
F0.0
I0
F0.0
I0
F0.0
I4482
I1
I2483
tp2483
a(I2484
I518719
I50183
F1.0
I468536
F0.0
I0
F0.0
I0
F0.0
I4484
I1
I2484
tp2484
a(I2485
I519219
I50183
F1.0
I469036
F0.0
I0
F0.0
I0
F0.0
I4486
I1
I2485
tp2485
a(I2486
I519719
I50183
F1.0
I469536
F0.0
I0
F0.0
I0
F0.0
I4488
I1
I2486
tp2486
a(I2487
I520219
I50183
F1.0
I470036
F0.0
I0
F0.0
I0
F0.0
I4490
I1
I2487
tp2487
a(I2488
I520719
I50183
F1.0
I470536
F0.0
I0
F0.0
I0
F0.0
I4492
I1
I2488
tp2488
a(I2489
I521219
I50183
F1.0
I471036
F0.0
I0
F0.0
I0
F0.0
I4494
I1
I2489
tp2489
a(I2490
I521719
I50183
F1.0
I471536
F0.0
I0
F0.0
I0
F0.0
I4496
I1
I2490
tp2490
a(I2491
I522219
I50183
F1.0
I472036
F0.0
I0
F0.0
I0
F0.0
I4498
I1
I2491
tp2491
a(I2492
I522719
I50183
F1.0
I472536
F0.0
I0
F0.0
I0
F0.0
I4500
I1
I2492
tp2492
a(I2493
I523219
I50183
F1.0
I473036
F0.0
I0
F0.0
I0
F0.0
I4502
I1
I2493
tp2493
a(I2494
I523719
I50183
F1.0
I473536
F0.0
I0
F0.0
I0
F0.0
I4504
I1
I2494
tp2494
a(I2495
I523745
I50183
F1.0
I473562
F0.0
I0
F0.0
I0
F0.0
I4506
I1
I2495
tp2495
a(I2496
I524245
I50183
F1.0
I474062
F0.0
I0
F0.0
I0
F0.0
I4508
I1
I2496
tp2496
a(I2497
I524745
I50183
F1.0
I474562
F0.0
I0
F0.0
I0
F0.0
I4510
I1
I2497
tp2497
a(I2498
I525245
I50183
F1.0
I475062
F0.0
I0
F0.0
I0
F0.0
I4512
I1
I2498
tp2498
a(I2499
I525283
I50183
F1.0
I475100
F0.0
I0
F0.0
I0
F0.0
I4514
I1
I2499
tp2499
a(I2500
I525783
I50183
F1.0
I475600
F0.0
I0
F0.0
I0
F0.0
I4516
I1
I2500
tp2500
a(I2501
I526283
I50183
F1.0
I476100
F0.0
I0
F0.0
I0
F0.0
I4518
I1
I2501
tp2501
a(I2502
I526783
I50183
F1.0
I476600
F0.0
I0
F0.0
I0
F0.0
I4520
I1
I2502
tp2502
a(I2503
I526840
I50183
F1.0
I476657
F0.0
I0
F0.0
I0
F0.0
I4522
I1
I2503
tp2503
a(I2504
I527340
I50183
F1.0
I477157
F0.0
I0
F0.0
I0
F0.0
I4524
I1
I2504
tp2504
a(I2505
I527840
I50183
F1.0
I477657
F0.0
I0
F0.0
I0
F0.0
I4526
I1
I2505
tp2505
a(I2506
I528340
I50183
F1.0
I478157
F0.0
I0
F0.0
I0
F0.0
I4528
I1
I2506
tp2506
a(I2507
I528840
I50183
F1.0
I478657
F0.0
I0
F0.0
I0
F0.0
I4530
I1
I2507
tp2507
a(I2508
I529340
I50183
F1.0
I479157
F0.0
I0
F0.0
I0
F0.0
I4532
I1
I2508
tp2508
a(I2509
I529366
I50183
F1.0
I479183
F0.0
I0
F0.0
I0
F0.0
I4534
I1
I2509
tp2509
a(I2510
I529866
I50183
F1.0
I479683
F0.0
I0
F0.0
I0
F0.0
I4536
I1
I2510
tp2510
a(I2511
I530366
I50183
F1.0
I480183
F0.0
I0
F0.0
I0
F0.0
I4538
I1
I2511
tp2511
a(I2512
I530866
I50183
F1.0
I480683
F0.0
I0
F0.0
I0
F0.0
I4540
I1
I2512
tp2512
a(I2513
I530892
I50183
F1.0
I480709
F0.0
I0
F0.0
I0
F0.0
I4542
I1
I2513
tp2513
a(I2514
I531392
I50183
F1.0
I481209
F0.0
I0
F0.0
I0
F0.0
I4544
I1
I2514
tp2514
a(I2515
I531494
I50183
F1.0
I481311
F0.0
I0
F0.0
I0
F0.0
I4546
I1
I2515
tp2515
a(I2516
I531590
I50183
F1.0
I481407
F0.0
I0
F0.0
I0
F0.0
I4548
I1
I2516
tp2516
a(I2517
I532090
I50183
F1.0
I481907
F0.0
I0
F0.0
I0
F0.0
I4550
I1
I2517
tp2517
a(I2518
I532220
I50183
F1.0
I482037
F0.0
I0
F0.0
I0
F0.0
I4552
I1
I2518
tp2518
a(I2519
I532720
I50183
F1.0
I482537
F0.0
I0
F0.0
I0
F0.0
I4554
I1
I2519
tp2519
a(I2520
I533220
I50183
F1.0
I483037
F0.0
I0
F0.0
I0
F0.0
I4556
I1
I2520
tp2520
a(I2521
I533349
I50183
F1.0
I483166
F0.0
I0
F0.0
I0
F0.0
I4558
I1
I2521
tp2521
a(I2522
I533849
I50183
F1.0
I483666
F0.0
I0
F0.0
I0
F0.0
I4560
I1
I2522
tp2522
a(I2523
I534349
I50183
F1.0
I484166
F0.0
I0
F0.0
I0
F0.0
I4562
I1
I2523
tp2523
a(I2524
I534446
I50183
F1.0
I484263
F0.0
I0
F0.0
I0
F0.0
I4564
I1
I2524
tp2524
a(I2525
I534946
I50183
F1.0
I484763
F0.0
I0
F0.0
I0
F0.0
I4566
I1
I2525
tp2525
a(I2526
I535073
I50183
F1.0
I484890
F0.0
I0
F0.0
I0
F0.0
I4568
I1
I2526
tp2526
a(I2527
I535573
I50183
F1.0
I485390
F0.0
I0
F0.0
I0
F0.0
I4570
I1
I2527
tp2527
a(I2528
I536073
I50183
F1.0
I485890
F0.0
I0
F0.0
I0
F0.0
I4572
I1
I2528
tp2528
a(I2529
I536104
I50183
F1.0
I485921
F0.0
I0
F0.0
I0
F0.0
I4574
I1
I2529
tp2529
a(I2530
I536604
I50183
F1.0
I486421
F0.0
I0
F0.0
I0
F0.0
I4576
I1
I2530
tp2530
a(I2531
I537104
I50183
F1.0
I486921
F0.0
I0
F0.0
I0
F0.0
I4578
I1
I2531
tp2531
a(I2532
I537211
I50183
F1.0
I487028
F0.0
I0
F0.0
I0
F0.0
I4580
I1
I2532
tp2532
a(I2533
I537711
I50183
F1.0
I487528
F0.0
I0
F0.0
I0
F0.0
I4582
I1
I2533
tp2533
a(I2534
I538211
I50183
F1.0
I488028
F0.0
I0
F0.0
I0
F0.0
I4584
I1
I2534
tp2534
a(I2535
I538304
I50183
F1.0
I488121
F0.0
I0
F0.0
I0
F0.0
I4586
I1
I2535
tp2535
a(I2536
I538804
I50183
F1.0
I488621
F0.0
I0
F0.0
I0
F0.0
I4588
I1
I2536
tp2536
a(I2537
I539304
I50183
F1.0
I489121
F0.0
I0
F0.0
I0
F0.0
I4590
I1
I2537
tp2537
a(I2538
I539804
I50183
F1.0
I489621
F0.0
I0
F0.0
I0
F0.0
I4592
I1
I2538
tp2538
a(I2539
I540304
I50183
F1.0
I490121
F0.0
I0
F0.0
I0
F0.0
I4594
I1
I2539
tp2539
a(I2540
I540804
I50183
F1.0
I490621
F0.0
I0
F0.0
I0
F0.0
I4596
I1
I2540
tp2540
a(I2541
I541304
I50183
F1.0
I491121
F0.0
I0
F0.0
I0
F0.0
I4598
I1
I2541
tp2541
a(I2542
I541804
I50183
F1.0
I491621
F0.0
I0
F0.0
I0
F0.0
I4600
I1
I2542
tp2542
a(I2543
I542304
I50183
F1.0
I492121
F0.0
I0
F0.0
I0
F0.0
I4602
I1
I2543
tp2543
a(I2544
I542804
I50183
F1.0
I492621
F0.0
I0
F0.0
I0
F0.0
I4604
I1
I2544
tp2544
a(I2545
I543304
I50183
F1.0
I493121
F0.0
I0
F0.0
I0
F0.0
I4606
I1
I2545
tp2545
a(I2546
I543328
I50183
F1.0
I493145
F0.0
I0
F0.0
I0
F0.0
I4608
I1
I2546
tp2546
a(I2547
I543354
I50183
F1.0
I493171
F0.0
I0
F0.0
I0
F0.0
I4610
I1
I2547
tp2547
a(I2548
I543380
I50183
F1.0
I493197
F0.0
I0
F0.0
I0
F0.0
I4612
I1
I2548
tp2548
a(I2549
I543406
I50183
F1.0
I493223
F0.0
I0
F0.0
I0
F0.0
I4614
I1
I2549
tp2549
a(I2550
I543432
I50183
F1.0
I493249
F0.0
I0
F0.0
I0
F0.0
I4616
I1
I2550
tp2550
a(I2551
I543932
I50183
F1.0
I493749
F0.0
I0
F0.0
I0
F0.0
I4618
I1
I2551
tp2551
a(I2552
I544432
I50183
F1.0
I494249
F0.0
I0
F0.0
I0
F0.0
I4620
I1
I2552
tp2552
a(I2553
I544932
I50183
F1.0
I494749
F0.0
I0
F0.0
I0
F0.0
I4622
I1
I2553
tp2553
a(I2554
I545432
I50183
F1.0
I495249
F0.0
I0
F0.0
I0
F0.0
I4624
I1
I2554
tp2554
a(I2555
I545932
I50183
F1.0
I495749
F0.0
I0
F0.0
I0
F0.0
I4626
I1
I2555
tp2555
a(I2556
I546432
I50183
F1.0
I496249
F0.0
I0
F0.0
I0
F0.0
I4628
I1
I2556
tp2556
a(I2557
I546932
I50183
F1.0
I496749
F0.0
I0
F0.0
I0
F0.0
I4630
I1
I2557
tp2557
a(I2558
I547432
I50183
F1.0
I497249
F0.0
I0
F0.0
I0
F0.0
I4632
I1
I2558
tp2558
a(I2559
I547932
I50183
F1.0
I497749
F0.0
I0
F0.0
I0
F0.0
I4634
I1
I2559
tp2559
a(I2560
I548432
I50183
F1.0
I498249
F0.0
I0
F0.0
I0
F0.0
I4636
I1
I2560
tp2560
a(I2561
I548932
I50183
F1.0
I498749
F0.0
I0
F0.0
I0
F0.0
I4638
I1
I2561
tp2561
a(I2562
I549432
I50183
F1.0
I499249
F0.0
I0
F0.0
I0
F0.0
I4640
I1
I2562
tp2562
a(I2563
I549932
I50183
F1.0
I499749
F0.0
I0
F0.0
I0
F0.0
I4642
I1
I2563
tp2563
a(I2564
I550432
I50183
F1.0
I500249
F0.0
I0
F0.0
I0
F0.0
I4644
I1
I2564
tp2564
a(I2565
I550932
I50183
F1.0
I500749
F0.0
I0
F0.0
I0
F0.0
I4646
I1
I2565
tp2565
a(I2566
I550958
I50183
F1.0
I500775
F0.0
I0
F0.0
I0
F0.0
I4648
I1
I2566
tp2566
a(I2567
I550984
I50183
F1.0
I500801
F0.0
I0
F0.0
I0
F0.0
I4650
I1
I2567
tp2567
a(I2568
I551010
I50183
F1.0
I500827
F0.0
I0
F0.0
I0
F0.0
I4652
I1
I2568
tp2568
a(I2569
I551036
I50183
F1.0
I500853
F0.0
I0
F0.0
I0
F0.0
I4654
I1
I2569
tp2569
a(I2570
I551062
I50183
F1.0
I500879
F0.0
I0
F0.0
I0
F0.0
I4656
I1
I2570
tp2570
a(I2571
I551562
I50183
F1.0
I501379
F0.0
I0
F0.0
I0
F0.0
I4658
I1
I2571
tp2571
a(I2572
I552062
I50183
F1.0
I501879
F0.0
I0
F0.0
I0
F0.0
I4660
I1
I2572
tp2572
a(I2573
I552562
I50183
F1.0
I502379
F0.0
I0
F0.0
I0
F0.0
I4662
I1
I2573
tp2573
a(I2574
I553062
I50183
F1.0
I502879
F0.0
I0
F0.0
I0
F0.0
I4664
I1
I2574
tp2574
a(I2575
I553562
I50183
F1.0
I503379
F0.0
I0
F0.0
I0
F0.0
I4666
I1
I2575
tp2575
a(I2576
I554062
I50183
F1.0
I503879
F0.0
I0
F0.0
I0
F0.0
I4668
I1
I2576
tp2576
a(I2577
I554562
I50183
F1.0
I504379
F0.0
I0
F0.0
I0
F0.0
I4670
I1
I2577
tp2577
a(I2578
I555062
I50183
F1.0
I504879
F0.0
I0
F0.0
I0
F0.0
I4672
I1
I2578
tp2578
a(I2579
I555562
I50183
F1.0
I505379
F0.0
I0
F0.0
I0
F0.0
I4674
I1
I2579
tp2579
a(I2580
I556062
I50183
F1.0
I505879
F0.0
I0
F0.0
I0
F0.0
I4676
I1
I2580
tp2580
a(I2581
I556562
I50183
F1.0
I506379
F0.0
I0
F0.0
I0
F0.0
I4678
I1
I2581
tp2581
a(I2582
I557062
I50183
F1.0
I506879
F0.0
I0
F0.0
I0
F0.0
I4680
I1
I2582
tp2582
a(I2583
I557562
I50183
F1.0
I507379
F0.0
I0
F0.0
I0
F0.0
I4682
I1
I2583
tp2583
a(I2584
I558062
I50183
F1.0
I507879
F0.0
I0
F0.0
I0
F0.0
I4684
I1
I2584
tp2584
a(I2585
I558562
I50183
F1.0
I508379
F0.0
I0
F0.0
I0
F0.0
I4686
I1
I2585
tp2585
a(I2586
I559062
I50183
F1.0
I508879
F0.0
I0
F0.0
I0
F0.0
I4688
I1
I2586
tp2586
a(I2587
I559562
I50183
F1.0
I509379
F0.0
I0
F0.0
I0
F0.0
I4690
I1
I2587
tp2587
a(I2588
I560062
I50183
F1.0
I509879
F0.0
I0
F0.0
I0
F0.0
I4692
I1
I2588
tp2588
a(I2589
I560562
I50183
F1.0
I510379
F0.0
I0
F0.0
I0
F0.0
I4694
I1
I2589
tp2589
a(I2590
I561062
I50183
F1.0
I510879
F0.0
I0
F0.0
I0
F0.0
I4696
I1
I2590
tp2590
a(I2591
I561562
I50183
F1.0
I511379
F0.0
I0
F0.0
I0
F0.0
I4698
I1
I2591
tp2591
a(I2592
I562062
I50183
F1.0
I511879
F0.0
I0
F0.0
I0
F0.0
I4700
I1
I2592
tp2592
a(I2593
I562089
I50183
F1.0
I511906
F0.0
I0
F0.0
I0
F0.0
I4702
I1
I2593
tp2593
a(I2594
I562112
I50183
F1.0
I511929
F0.0
I0
F0.0
I0
F0.0
I4704
I1
I2594
tp2594
a(I2595
I562139
I50183
F1.0
I511956
F0.0
I0
F0.0
I0
F0.0
I4706
I1
I2595
tp2595
a(I2596
I562639
I50183
F1.0
I512456
F0.0
I0
F0.0
I0
F0.0
I4708
I1
I2596
tp2596
a(I2597
I563139
I50183
F1.0
I512956
F0.0
I0
F0.0
I0
F0.0
I4710
I1
I2597
tp2597
a(I2598
I563639
I50183
F1.0
I513456
F0.0
I0
F0.0
I0
F0.0
I4712
I1
I2598
tp2598
a(I2599
I564139
I50183
F1.0
I513956
F0.0
I0
F0.0
I0
F0.0
I4714
I1
I2599
tp2599
a(I2600
I564230
I50183
F1.0
I514047
F0.0
I0
F0.0
I0
F0.0
I4716
I1
I2600
tp2600
a.