(lp0
(I1
I0
I0
F0.0
I0
F0.0
I0
F0.0
I0
F0.0
I1
I0
I1
tp1
a(I2
I0
I0
F0.0
I0
F0.0
I0
F0.0
I0
F0.0
I2
I0
I2
tp2
a(I3
I0
I0
F0.0
I0
F0.0
I0
F0.0
I0
F0.0
I3
I0
I3
tp3
a(I4
I0
I0
F0.0
I0
F0.0
I0
F0.0
I0
F0.0
I4
I0
I4
tp4
a(I5
I0
I0
F0.0
I0
F0.0
I0
F0.0
I0
F0.0
I5
I0
I5
tp5
a(I6
I0
I0
F0.0
I0
F0.0
I0
F0.0
I0
F0.0
I6
I0
I6
tp6
a(I7
I0
I0
F0.0
I0
F0.0
I0
F0.0
I0
F0.0
I7
I0
I7
tp7
a(I8
I0
I0
F0.0
I0
F0.0
I0
F0.0
I0
F0.0
I8
I0
I8
tp8
a(I9
I0
I0
F0.0
I0
F0.0
I0
F0.0
I0
F0.0
I9
I0
I9
tp9
a(I10
I0
I0
F0.0
I0
F0.0
I0
F0.0
I0
F0.0
I10
I0
I10
tp10
a(I11
I0
I0
F0.0
I0
F0.0
I0
F0.0
I0
F0.0
I11
I0
I11
tp11
a(I12
I0
I0
F0.0
I0
F0.0
I0
F0.0
I0
F0.0
I12
I0
I12
tp12
a(I13
I0
I0
F0.0
I0
F0.0
I0
F0.0
I0
F0.0
I13
I0
I13
tp13
a(I14
I0
I0
F0.0
I0
F0.0
I0
F0.0
I0
F0.0
I14
I0
I14
tp14
a(I15
I0
I0
F0.0
I0
F0.0
I0
F0.0
I0
F0.0
I15
I0
I15
tp15
a(I16
I0
I0
F0.0
I0
F0.0
I0
F0.0
I0
F0.0
I16
I0
I16
tp16
a(I17
I0
I0
F0.0
I0
F0.0
I0
F0.0
I0
F0.0
I17
I0
I17
tp17
a(I18
I0
I0
F0.0
I0
F0.0
I0
F0.0
I0
F0.0
I18
I0
I18
tp18
a(I19
I0
I0
F0.0
I0
F0.0
I0
F0.0
I0
F0.0
I19
I0
I19
tp19
a(I20
I0
I0
F0.0
I0
F0.0
I0
F0.0
I0
F0.0
I20
I0
I20
tp20
a(I21
I0
I0
F0.0
I0
F0.0
I0
F0.0
I0
F0.0
I21
I0
I21
tp21
a(I22
I0
I0
F0.0
I0
F0.0
I0
F0.0
I0
F0.0
I22
I0
I22
tp22
a(I23
I0
I0
F0.0
I0
F0.0
I0
F0.0
I0
F0.0
I23
I0
I23
tp23
a(I24
I0
I0
F0.0
I0
F0.0
I0
F0.0
I0
F0.0
I24
I0
I24
tp24
a(I25
I0
I0
F0.0
I0
F0.0
I0
F0.0
I0
F0.0
I25
I0
I25
tp25
a(I26
I0
I0
F0.0
I0
F0.0
I0
F0.0
I0
F0.0
I26
I0
I26
tp26
a(I27
I0
I0
F0.0
I0
F0.0
I0
F0.0
I0
F0.0
I27
I0
I27
tp27
a(I28
I0
I0
F0.0
I0
F0.0
I0
F0.0
I0
F0.0
I28
I0
I28
tp28
a(I29
I0
I0
F0.0
I0
F0.0
I0
F0.0
I0
F0.0
I29
I0
I29
tp29
a(I30
I0
I0
F0.0
I0
F0.0
I0
F0.0
I0
F0.0
I30
I0
I30
tp30
a(I31
I0
I0
F0.0
I0
F0.0
I0
F0.0
I0
F0.0
I31
I0
I31
tp31
a(I32
I0
I0
F0.0
I0
F0.0
I0
F0.0
I0
F0.0
I32
I0
I32
tp32
a(I33
I0
I0
F0.0
I0
F0.0
I0
F0.0
I0
F0.0
I33
I0
I33
tp33
a(I34
I0
I0
F0.0
I0
F0.0
I0
F0.0
I0
F0.0
I34
I0
I34
tp34
a(I35
I0
I0
F0.0
I0
F0.0
I0
F0.0
I0
F0.0
I35
I0
I35
tp35
a(I36
I0
I0
F0.0
I0
F0.0
I0
F0.0
I0
F0.0
I36
I0
I36
tp36
a(I37
I0
I0
F0.0
I0
F0.0
I0
F0.0
I0
F0.0
I37
I0
I37
tp37
a(I38
I0
I0
F0.0
I0
F0.0
I0
F0.0
I0
F0.0
I38
I0
I38
tp38
a(I39
I0
I0
F0.0
I0
F0.0
I0
F0.0
I0
F0.0
I39
I0
I39
tp39
a(I40
I0
I0
F0.0
I0
F0.0
I0
F0.0
I0
F0.0
I40
I0
I40
tp40
a(I41
I0
I0
F0.0
I0
F0.0
I0
F0.0
I0
F0.0
I41
I0
I41
tp41
a(I42
I0
I0
F0.0
I0
F0.0
I0
F0.0
I0
F0.0
I42
I0
I42
tp42
a(I43
I0
I0
F0.0
I0
F0.0
I0
F0.0
I0
F0.0
I43
I0
I43
tp43
a(I44
I0
I0
F0.0
I0
F0.0
I0
F0.0
I0
F0.0
I44
I0
I44
tp44
a(I45
I0
I0
F0.0
I0
F0.0
I0
F0.0
I0
F0.0
I45
I0
I45
tp45
a(I46
I0
I0
F0.0
I0
F0.0
I0
F0.0
I0
F0.0
I46
I0
I46
tp46
a(I47
I0
I0
F0.0
I0
F0.0
I0
F0.0
I0
F0.0
I47
I0
I47
tp47
a(I48
I0
I0
F0.0
I0
F0.0
I0
F0.0
I0
F0.0
I48
I0
I48
tp48
a(I49
I0
I0
F0.0
I0
F0.0
I0
F0.0
I0
F0.0
I49
I0
I49
tp49
a(I50
I0
I0
F0.0
I0
F0.0
I0
F0.0
I0
F0.0
I50
I0
I50
tp50
a(I51
I0
I0
F0.0
I0
F0.0
I0
F0.0
I0
F0.0
I51
I0
I51
tp51
a(I52
I0
I0
F0.0
I0
F0.0
I0
F0.0
I0
F0.0
I52
I0
I52
tp52
a(I53
I0
I0
F0.0
I0
F0.0
I0
F0.0
I0
F0.0
I53
I0
I53
tp53
a(I54
I0
I0
F0.0
I0
F0.0
I0
F0.0
I0
F0.0
I54
I0
I54
tp54
a(I55
I0
I0
F0.0
I0
F0.0
I0
F0.0
I0
F0.0
I55
I0
I55
tp55
a(I56
I0
I0
F0.0
I0
F0.0
I0
F0.0
I0
F0.0
I56
I0
I56
tp56
a(I57
I0
I0
F0.0
I0
F0.0
I0
F0.0
I0
F0.0
I57
I0
I57
tp57
a(I58
I0
I0
F0.0
I0
F0.0
I0
F0.0
I0
F0.0
I58
I0
I58
tp58
a(I59
I0
I0
F0.0
I0
F0.0
I0
F0.0
I0
F0.0
I59
I0
I59
tp59
a(I60
I0
I0
F0.0
I0
F0.0
I0
F0.0
I0
F0.0
I60
I0
I60
tp60
a(I61
I0
I0
F0.0
I0
F0.0
I0
F0.0
I0
F0.0
I61
I0
I61
tp61
a(I62
I0
I0
F0.0
I0
F0.0
I0
F0.0
I0
F0.0
I62
I0
I62
tp62
a(I63
I0
I0
F0.0
I0
F0.0
I0
F0.0
I0
F0.0
I63
I0
I63
tp63
a(I64
I0
I0
F0.0
I0
F0.0
I0
F0.0
I0
F0.0
I64
I0
I64
tp64
a(I65
I0
I0
F0.0
I0
F0.0
I0
F0.0
I0
F0.0
I65
I0
I65
tp65
a(I66
I0
I0
F0.0
I0
F0.0
I0
F0.0
I0
F0.0
I66
I0
I66
tp66
a(I67
I0
I0
F0.0
I0
F0.0
I0
F0.0
I0
F0.0
I67
I0
I67
tp67
a(I68
I0
I0
F0.0
I0
F0.0
I0
F0.0
I0
F0.0
I68
I0
I68
tp68
a(I69
I0
I0
F0.0
I0
F0.0
I0
F0.0
I0
F0.0
I69
I0
I69
tp69
a(I70
I0
I0
F0.0
I0
F0.0
I0
F0.0
I0
F0.0
I70
I0
I70
tp70
a(I71
I0
I0
F0.0
I0
F0.0
I0
F0.0
I0
F0.0
I71
I0
I71
tp71
a(I72
I0
I0
F0.0
I0
F0.0
I0
F0.0
I0
F0.0
I72
I0
I72
tp72
a(I73
I0
I0
F0.0
I0
F0.0
I0
F0.0
I0
F0.0
I73
I0
I73
tp73
a(I74
I0
I0
F0.0
I0
F0.0
I0
F0.0
I0
F0.0
I74
I0
I74
tp74
a(I75
I0
I0
F0.0
I0
F0.0
I0
F0.0
I0
F0.0
I75
I0
I75
tp75
a(I76
I0
I0
F0.0
I0
F0.0
I0
F0.0
I0
F0.0
I76
I0
I76
tp76
a(I77
I0
I0
F0.0
I0
F0.0
I0
F0.0
I0
F0.0
I77
I0
I77
tp77
a(I78
I0
I0
F0.0
I0
F0.0
I0
F0.0
I0
F0.0
I78
I0
I78
tp78
a(I79
I0
I0
F0.0
I0
F0.0
I0
F0.0
I0
F0.0
I79
I0
I79
tp79
a(I80
I0
I0
F0.0
I0
F0.0
I0
F0.0
I0
F0.0
I80
I0
I80
tp80
a(I81
I0
I0
F0.0
I0
F0.0
I0
F0.0
I0
F0.0
I81
I0
I81
tp81
a(I82
I0
I0
F0.0
I0
F0.0
I0
F0.0
I0
F0.0
I82
I0
I82
tp82
a(I83
I0
I0
F0.0
I0
F0.0
I0
F0.0
I0
F0.0
I83
I0
I83
tp83
a(I84
I0
I0
F0.0
I0
F0.0
I0
F0.0
I0
F0.0
I84
I0
I84
tp84
a(I85
I0
I0
F0.0
I0
F0.0
I0
F0.0
I0
F0.0
I85
I0
I85
tp85
a(I86
I0
I0
F0.0
I0
F0.0
I0
F0.0
I0
F0.0
I86
I0
I86
tp86
a(I87
I0
I0
F0.0
I0
F0.0
I0
F0.0
I0
F0.0
I87
I0
I87
tp87
a(I88
I0
I0
F0.0
I0
F0.0
I0
F0.0
I0
F0.0
I88
I0
I88
tp88
a(I89
I0
I0
F0.0
I0
F0.0
I0
F0.0
I0
F0.0
I89
I0
I89
tp89
a(I90
I0
I0
F0.0
I0
F0.0
I0
F0.0
I0
F0.0
I90
I0
I90
tp90
a(I91
I0
I0
F0.0
I0
F0.0
I0
F0.0
I0
F0.0
I91
I0
I91
tp91
a(I92
I0
I0
F0.0
I0
F0.0
I0
F0.0
I0
F0.0
I92
I0
I92
tp92
a(I93
I0
I0
F0.0
I0
F0.0
I0
F0.0
I0
F0.0
I93
I0
I93
tp93
a(I94
I0
I0
F0.0
I0
F0.0
I0
F0.0
I0
F0.0
I94
I0
I94
tp94
a(I95
I0
I0
F0.0
I0
F0.0
I0
F0.0
I0
F0.0
I95
I0
I95
tp95
a(I96
I0
I0
F0.0
I0
F0.0
I0
F0.0
I0
F0.0
I96
I0
I96
tp96
a(I97
I0
I0
F0.0
I0
F0.0
I0
F0.0
I0
F0.0
I97
I0
I97
tp97
a(I98
I0
I0
F0.0
I0
F0.0
I0
F0.0
I0
F0.0
I98
I0
I98
tp98
a(I99
I0
I0
F0.0
I0
F0.0
I0
F0.0
I0
F0.0
I99
I0
I99
tp99
a(I100
I0
I0
F0.0
I0
F0.0
I0
F0.0
I0
F0.0
I100
I0
I100
tp100
a(I101
I0
I0
F0.0
I0
F0.0
I0
F0.0
I0
F0.0
I101
I0
I101
tp101
a(I102
I0
I0
F0.0
I0
F0.0
I0
F0.0
I0
F0.0
I102
I0
I102
tp102
a(I103
I0
I0
F0.0
I0
F0.0
I0
F0.0
I0
F0.0
I103
I0
I103
tp103
a(I104
I0
I0
F0.0
I0
F0.0
I0
F0.0
I0
F0.0
I104
I0
I104
tp104
a(I105
I0
I0
F0.0
I0
F0.0
I0
F0.0
I0
F0.0
I106
I1
I105
tp105
a(I106
I254
I254
F0.0
I0
F0.0
I0
F0.0
I0
F0.0
I107
I0
I106
tp106
a(I107
I646
I646
F0.0
I0
F0.0
I0
F0.0
I0
F0.0
I108
I0
I107
tp107
a(I108
I788
I788
F0.0
I0
F0.0
I0
F0.0
I0
F0.0
I109
I0
I108
tp108
a(I109
I824
I824
F0.0
I0
F0.0
I0
F0.0
I0
F0.0
I110
I0
I109
tp109
a(I110
I846
I846
F0.0
I0
F0.0
I0
F0.0
I0
F0.0
I111
I0
I110
tp110
a(I111
I876
I876
F0.0
I0
F0.0
I0
F0.0
I0
F0.0
I112
I0
I111
tp111
a(I112
I935
I935
F0.0
I0
F0.0
I0
F0.0
I0
F0.0
I113
I0
I112
tp112
a(I113
I1074
I1074
F0.0
I0
F0.0
I0
F0.0
I0
F0.0
I114
I0
I113
tp113
a(I114
I1319
I1319
F0.0
I0
F0.0
I0
F0.0
I0
F0.0
I116
I1
I114
tp114
a(I115
I1774
I1774
F0.0
I0
F0.0
I0
F0.0
I0
F0.0
I117
I0
I115
tp115
a(I116
I1843
I1843
F0.0
I0
F0.0
I0
F0.0
I0
F0.0
I118
I0
I116
tp116
a(I117
I1931
I1931
F0.0
I0
F0.0
I0
F0.0
I0
F0.0
I119
I0
I117
tp117
a(I118
I2008
I2008
F0.0
I0
F0.0
I0
F0.0
I0
F0.0
I121
I1
I118
tp118
a(I119
I2090
I2090
F0.0
I0
F0.0
I0
F0.0
I0
F0.0
I122
I0
I119
tp119
a(I120
I2111
I2111
F0.0
I0
F0.0
I0
F0.0
I0
F0.0
I123
I0
I120
tp120
a(I121
I2132
I2132
F0.0
I0
F0.0
I0
F0.0
I0
F0.0
I124
I0
I121
tp121
a(I122
I2148
I2148
F0.0
I0
F0.0
I0
F0.0
I0
F0.0
I125
I0
I122
tp122
a(I123
I2164
I2164
F0.0
I0
F0.0
I0
F0.0
I0
F0.0
I126
I0
I123
tp123
a(I124
I2247
I2247
F0.0
I0
F0.0
I0
F0.0
I0
F0.0
I127
I0
I124
tp124
a(I125
I2346
I2346
F0.0
I0
F0.0
I0
F0.0
I0
F0.0
I128
I0
I125
tp125
a(I126
I2408
I2408
F0.0
I0
F0.0
I0
F0.0
I0
F0.0
I129
I0
I126
tp126
a(I127
I2453
I2453
F0.0
I0
F0.0
I0
F0.0
I0
F0.0
I130
I0
I127
tp127
a(I128
I2477
I2477
F0.0
I0
F0.0
I0
F0.0
I0
F0.0
I131
I0
I128
tp128
a(I129
I2527
I2527
F0.0
I0
F0.0
I0
F0.0
I0
F0.0
I132
I0
I129
tp129
a(I130
I2870
I2870
F0.0
I0
F0.0
I0
F0.0
I0
F0.0
I133
I0
I130
tp130
a(I131
I2888
I2888
F0.0
I0
F0.0
I0
F0.0
I0
F0.0
I134
I0
I131
tp131
a(I132
I2940
I2940
F0.0
I0
F0.0
I0
F0.0
I0
F0.0
I135
I0
I132
tp132
a(I133
I2958
I2958
F0.0
I0
F0.0
I0
F0.0
I0
F0.0
I136
I0
I133
tp133
a(I134
I3005
I3005
F0.0
I0
F0.0
I0
F0.0
I0
F0.0
I137
I0
I134
tp134
a(I135
I3097
I3097
F0.0
I0
F0.0
I0
F0.0
I0
F0.0
I138
I0
I135
tp135
a(I136
I3178
I3178
F0.0
I0
F0.0
I0
F0.0
I0
F0.0
I139
I0
I136
tp136
a(I137
I3271
I3271
F0.0
I0
F0.0
I0
F0.0
I0
F0.0
I140
I0
I137
tp137
a(I138
I3287
I3287
F0.0
I0
F0.0
I0
F0.0
I0
F0.0
I141
I0
I138
tp138
a(I139
I3320
I3320
F0.0
I0
F0.0
I0
F0.0
I0
F0.0
I142
I0
I139
tp139
a(I140
I3333
I3333
F0.0
I0
F0.0
I0
F0.0
I0
F0.0
I143
I0
I140
tp140
a(I141
I3367
I3367
F0.0
I0
F0.0
I0
F0.0
I0
F0.0
I144
I0
I141
tp141
a(I142
I3385
I3385
F0.0
I0
F0.0
I0
F0.0
I0
F0.0
I145
I0
I142
tp142
a(I143
I3402
I3402
F0.0
I0
F0.0
I0
F0.0
I0
F0.0
I146
I0
I143
tp143
a(I144
I3418
I3418
F0.0
I0
F0.0
I0
F0.0
I0
F0.0
I147
I0
I144
tp144
a(I145
I3435
I3435
F0.0
I0
F0.0
I0
F0.0
I0
F0.0
I148
I0
I145
tp145
a(I146
I3475
I3475
F0.0
I0
F0.0
I0
F0.0
I0
F0.0
I149
I0
I146
tp146
a(I147
I3538
I3538
F0.0
I0
F0.0
I0
F0.0
I0
F0.0
I150
I0
I147
tp147
a(I148
I3681
I3681
F0.0
I0
F0.0
I0
F0.0
I0
F0.0
I151
I0
I148
tp148
a(I149
I3697
I3697
F0.0
I0
F0.0
I0
F0.0
I0
F0.0
I152
I0
I149
tp149
a(I150
I3896
I3896
F0.0
I0
F0.0
I0
F0.0
I0
F0.0
I153
I0
I150
tp150
a(I151
I3974
I3974
F0.0
I0
F0.0
I0
F0.0
I0
F0.0
I154
I0
I151
tp151
a(I152
I3993
I3993
F0.0
I0
F0.0
I0
F0.0
I0
F0.0
I155
I0
I152
tp152
a(I153
I4096
I4096
F0.0
I0
F0.0
I0
F0.0
I0
F0.0
I156
I0
I153
tp153
a(I154
I4126
I4126
F0.0
I0
F0.0
I0
F0.0
I0
F0.0
I157
I0
I154
tp154
a(I155
I4142
I4142
F0.0
I0
F0.0
I0
F0.0
I0
F0.0
I158
I0
I155
tp155
a(I156
I4188
I4188
F0.0
I0
F0.0
I0
F0.0
I0
F0.0
I159
I0
I156
tp156
a(I157
I4217
I4217
F0.0
I0
F0.0
I0
F0.0
I0
F0.0
I160
I0
I157
tp157
a(I158
I4239
I4239
F0.0
I0
F0.0
I0
F0.0
I0
F0.0
I161
I0
I158
tp158
a(I159
I4252
I4252
F0.0
I0
F0.0
I0
F0.0
I0
F0.0
I162
I0
I159
tp159
a(I160
I4268
I4268
F0.0
I0
F0.0
I0
F0.0
I0
F0.0
I163
I0
I160
tp160
a(I161
I4280
I4280
F0.0
I0
F0.0
I0
F0.0
I0
F0.0
I164
I0
I161
tp161
a(I162
I4317
I4317
F0.0
I0
F0.0
I0
F0.0
I0
F0.0
I165
I0
I162
tp162
a(I163
I4333
I4333
F0.0
I0
F0.0
I0
F0.0
I0
F0.0
I166
I0
I163
tp163
a(I164
I4375
I4375
F0.0
I0
F0.0
I0
F0.0
I0
F0.0
I167
I0
I164
tp164
a(I165
I4391
I4391
F0.0
I0
F0.0
I0
F0.0
I0
F0.0
I168
I0
I165
tp165
a(I166
I4438
I4438
F0.0
I0
F0.0
I0
F0.0
I0
F0.0
I169
I0
I166
tp166
a(I167
I4489
I4489
F0.0
I0
F0.0
I0
F0.0
I0
F0.0
I170
I0
I167
tp167
a(I168
I4505
I4505
F0.0
I0
F0.0
I0
F0.0
I0
F0.0
I171
I0
I168
tp168
a(I169
I4521
I4521
F0.0
I0
F0.0
I0
F0.0
I0
F0.0
I172
I0
I169
tp169
a(I170
I4557
I4557
F0.0
I0
F0.0
I0
F0.0
I0
F0.0
I173
I0
I170
tp170
a(I171
I4580
I4580
F0.0
I0
F0.0
I0
F0.0
I0
F0.0
I174
I0
I171
tp171
a(I172
I4602
I4602
F0.0
I0
F0.0
I0
F0.0
I0
F0.0
I175
I0
I172
tp172
a(I173
I4650
I4650
F0.0
I0
F0.0
I0
F0.0
I0
F0.0
I176
I0
I173
tp173
a(I174
I4667
I4667
F0.0
I0
F0.0
I0
F0.0
I0
F0.0
I177
I0
I174
tp174
a(I175
I4682
I4682
F0.0
I0
F0.0
I0
F0.0
I0
F0.0
I178
I0
I175
tp175
a(I176
I4700
I4700
F0.0
I0
F0.0
I0
F0.0
I0
F0.0
I179
I0
I176
tp176
a(I177
I4716
I4716
F0.0
I0
F0.0
I0
F0.0
I0
F0.0
I180
I0
I177
tp177
a(I178
I4797
I4797
F0.0
I0
F0.0
I0
F0.0
I0
F0.0
I181
I0
I178
tp178
a(I179
I4970
I4970
F0.0
I0
F0.0
I0
F0.0
I0
F0.0
I183
I1
I179
tp179
a(I180
I5160
I5160
F0.0
I0
F0.0
I0
F0.0
I0
F0.0
I184
I0
I180
tp180
a(I181
I5319
I5319
F0.0
I0
F0.0
I0
F0.0
I0
F0.0
I185
I0
I181
tp181
a(I182
I5335
I5335
F0.0
I0
F0.0
I0
F0.0
I0
F0.0
I186
I0
I182
tp182
a(I183
I5587
I5587
F0.0
I0
F0.0
I0
F0.0
I0
F0.0
I187
I0
I183
tp183
a(I184
I5716
I5716
F0.0
I0
F0.0
I0
F0.0
I0
F0.0
I188
I0
I184
tp184
a(I185
I5733
I5733
F0.0
I0
F0.0
I0
F0.0
I0
F0.0
I189
I0
I185
tp185
a(I186
I6219
I6219
F0.0
I0
F0.0
I0
F0.0
I0
F0.0
I190
I0
I186
tp186
a(I187
I6238
I6238
F0.0
I0
F0.0
I0
F0.0
I0
F0.0
I191
I0
I187
tp187
a(I188
I6275
I6275
F0.0
I0
F0.0
I0
F0.0
I0
F0.0
I192
I0
I188
tp188
a(I189
I6607
I6607
F0.0
I0
F0.0
I0
F0.0
I0
F0.0
I193
I0
I189
tp189
a(I190
I6622
I6622
F0.0
I0
F0.0
I0
F0.0
I0
F0.0
I194
I0
I190
tp190
a(I191
I6640
I6640
F0.0
I0
F0.0
I0
F0.0
I0
F0.0
I195
I0
I191
tp191
a(I192
I6816
I6816
F0.0
I0
F0.0
I0
F0.0
I0
F0.0
I196
I0
I192
tp192
a(I193
I6832
I6832
F0.0
I0
F0.0
I0
F0.0
I0
F0.0
I197
I0
I193
tp193
a(I194
I6849
I6849
F0.0
I0
F0.0
I0
F0.0
I0
F0.0
I198
I0
I194
tp194
a(I195
I6883
I6883
F0.0
I0
F0.0
I0
F0.0
I0
F0.0
I199
I0
I195
tp195
a(I196
I6988
I6988
F0.0
I0
F0.0
I0
F0.0
I0
F0.0
I200
I0
I196
tp196
a(I197
I7007
I7007
F0.0
I0
F0.0
I0
F0.0
I0
F0.0
I201
I0
I197
tp197
a(I198
I7036
I7036
F0.0
I0
F0.0
I0
F0.0
I0
F0.0
I202
I0
I198
tp198
a(I199
I7399
I7399
F0.0
I0
F0.0
I0
F0.0
I0
F0.0
I203
I0
I199
tp199
a(I200
I7421
I7421
F0.0
I0
F0.0
I0
F0.0
I0
F0.0
I204
I0
I200
tp200
a(I201
I7593
I7593
F0.04
I0
F0.0
I0
F0.0
I0
F0.0
I205
I0
I201
tp201
a(I202
I7617
I7617
F0.04
I0
F0.0
I0
F0.0
I0
F0.0
I206
I0
I202
tp202
a(I203
I7630
I7630
F0.04
I0
F0.0
I0
F0.0
I0
F0.0
I207
I0
I203
tp203
a(I204
I7649
I7649
F0.04
I0
F0.0
I0
F0.0
I0
F0.0
I208
I0
I204
tp204
a(I205
I7666
I7666
F0.03
I0
F0.0
I0
F0.0
I0
F0.0
I209
I0
I205
tp205
a(I206
I7779
I7779
F0.03
I0
F0.0
I0
F0.0
I0
F0.0
I210
I0
I206
tp206
a(I207
I7796
I7796
F0.03
I0
F0.0
I0
F0.0
I0
F0.0
I211
I0
I207
tp207
a(I208
I7926
I7926
F0.03
I0
F0.0
I0
F0.0
I0
F0.0
I212
I0
I208
tp208
a(I209
I7951
I7951
F0.03
I0
F0.0
I0
F0.0
I0
F0.0
I213
I0
I209
tp209
a(I210
I8018
I8018
F0.03
I0
F0.0
I0
F0.0
I0
F0.0
I214
I0
I210
tp210
a(I211
I8042
I8042
F0.03
I0
F0.0
I0
F0.0
I0
F0.0
I215
I0
I211
tp211
a(I212
I8060
I8060
F0.03
I0
F0.0
I0
F0.0
I0
F0.0
I216
I0
I212
tp212
a(I213
I8077
I8077
F0.03
I0
F0.0
I0
F0.0
I0
F0.0
I217
I0
I213
tp213
a(I214
I8399
I8399
F0.02
I0
F0.0
I0
F0.0
I0
F0.0
I218
I0
I214
tp214
a(I215
I8459
I8459
F0.02
I0
F0.0
I0
F0.0
I0
F0.0
I219
I0
I215
tp215
a(I216
I8475
I8475
F0.02
I0
F0.0
I0
F0.0
I0
F0.0
I220
I0
I216
tp216
a(I217
I8533
I8533
F0.02
I0
F0.0
I0
F0.0
I0
F0.0
I221
I0
I217
tp217
a(I218
I8571
I8571
F0.01
I0
F0.0
I0
F0.0
I0
F0.0
I222
I0
I218
tp218
a(I219
I8758
I8758
F0.01
I0
F0.0
I0
F0.0
I0
F0.0
I223
I0
I219
tp219
a(I220
I8798
I8798
F0.01
I0
F0.0
I0
F0.0
I0
F0.0
I224
I0
I220
tp220
a(I221
I8951
I8951
F0.01
I0
F0.0
I0
F0.0
I0
F0.0
I225
I0
I221
tp221
a(I222
I9059
I9059
F0.01
I0
F0.0
I0
F0.0
I0
F0.0
I226
I0
I222
tp222
a(I223
I9383
I9383
F0.01
I0
F0.0
I0
F0.0
I0
F0.0
I227
I0
I223
tp223
a(I224
I9398
I9398
F0.01
I0
F0.0
I0
F0.0
I0
F0.0
I228
I0
I224
tp224
a(I225
I9440
I9440
F0.01
I0
F0.0
I0
F0.0
I0
F0.0
I229
I0
I225
tp225
a(I226
I9497
I9497
F0.01
I0
F0.0
I0
F0.0
I0
F0.0
I230
I0
I226
tp226
a(I227
I9573
I9573
F0.02
I0
F0.0
I0
F0.0
I0
F0.0
I232
I1
I227
tp227
a(I228
I9591
I9591
F0.02
I0
F0.0
I0
F0.0
I0
F0.0
I233
I0
I228
tp228
a(I229
I9648
I9648
F0.02
I0
F0.0
I0
F0.0
I0
F0.0
I234
I0
I229
tp229
a(I230
I9808
I9808
F0.02
I0
F0.0
I0
F0.0
I0
F0.0
I235
I0
I230
tp230
a(I231
I9966
I9966
F0.02
I0
F0.0
I0
F0.0
I0
F0.0
I236
I0
I231
tp231
a(I232
I9982
I9982
F0.02
I0
F0.0
I0
F0.0
I0
F0.0
I237
I0
I232
tp232
a(I233
I9998
I9998
F0.02
I0
F0.0
I0
F0.0
I0
F0.0
I238
I0
I233
tp233
a(I234
I10057
I10057
F0.02
I0
F0.0
I0
F0.0
I0
F0.0
I239
I0
I234
tp234
a(I235
I10073
I10073
F0.02
I0
F0.0
I0
F0.0
I0
F0.0
I240
I0
I235
tp235
a(I236
I10113
I10113
F0.02
I0
F0.0
I0
F0.0
I0
F0.0
I241
I0
I236
tp236
a(I237
I10384
I10384
F0.03
I0
F0.0
I0
F0.0
I0
F0.0
I243
I1
I237
tp237
a(I238
I10431
I10431
F0.03
I0
F0.0
I0
F0.0
I0
F0.0
I244
I0
I238
tp238
a(I239
I10450
I10450
F0.03
I0
F0.0
I0
F0.0
I0
F0.0
I245
I0
I239
tp239
a(I240
I10466
I10466
F0.03
I0
F0.0
I0
F0.0
I0
F0.0
I246
I0
I240
tp240
a(I241
I10601
I10601
F0.04
I0
F0.0
I0
F0.0
I0
F0.0
I248
I1
I241
tp241
a(I242
I10905
I10905
F0.04
I0
F0.0
I0
F0.0
I0
F0.0
I249
I0
I242
tp242
a(I243
I10926
I10926
F0.04
I0
F0.0
I0
F0.0
I0
F0.0
I250
I0
I243
tp243
a(I244
I10936
I10936
F0.04
I0
F0.0
I0
F0.0
I0
F0.0
I251
I0
I244
tp244
a(I245
I11230
I11230
F0.04
I0
F0.0
I0
F0.0
I0
F0.0
I252
I0
I245
tp245
a(I246
I11259
I11259
F0.04
I0
F0.0
I0
F0.0
I0
F0.0
I253
I0
I246
tp246
a(I247
I11438
I11438
F0.04
I0
F0.0
I0
F0.0
I0
F0.0
I254
I0
I247
tp247
a(I248
I11644
I11644
F0.05
I0
F0.0
I0
F0.0
I0
F0.0
I256
I1
I248
tp248
a(I249
I11659
I11659
F0.05
I0
F0.0
I0
F0.0
I0
F0.0
I257
I0
I249
tp249
a(I250
I11675
I11675
F0.05
I0
F0.0
I0
F0.0
I0
F0.0
I258
I0
I250
tp250
a(I251
I11834
I11834
F0.05
I0
F0.0
I0
F0.0
I0
F0.0
I259
I0
I251
tp251
a(I252
I12052
I12052
F0.05
I0
F0.0
I0
F0.0
I0
F0.0
I260
I0
I252
tp252
a(I253
I12107
I12107
F0.05
I0
F0.0
I0
F0.0
I0
F0.0
I261
I0
I253
tp253
a(I254
I12128
I12128
F0.05
I0
F0.0
I0
F0.0
I0
F0.0
I262
I0
I254
tp254
a(I255
I12146
I12146
F0.05
I0
F0.0
I0
F0.0
I0
F0.0
I263
I0
I255
tp255
a(I256
I12232
I12232
F0.06
I0
F0.0
I0
F0.0
I0
F0.0
I265
I1
I256
tp256
a(I257
I12370
I12370
F0.06
I0
F0.0
I0
F0.0
I0
F0.0
I266
I0
I257
tp257
a(I258
I12412
I12412
F0.06
I0
F0.0
I0
F0.0
I0
F0.0
I267
I0
I258
tp258
a(I259
I12449
I12449
F0.06
I0
F0.0
I0
F0.0
I0
F0.0
I268
I0
I259
tp259
a(I260
I12465
I12465
F0.06
I0
F0.0
I0
F0.0
I0
F0.0
I269
I0
I260
tp260
a(I261
I12744
I12744
F0.06
I0
F0.0
I0
F0.0
I0
F0.0
I270
I0
I261
tp261
a(I262
I12812
I12812
F0.06
I0
F0.0
I0
F0.0
I0
F0.0
I271
I0
I262
tp262
a(I263
I12834
I12834
F0.06
I0
F0.0
I0
F0.0
I0
F0.0
I272
I0
I263
tp263
a(I264
I12879
I12879
F0.06
I0
F0.0
I0
F0.0
I0
F0.0
I273
I0
I264
tp264
a(I265
I13110
I13110
F0.06
I0
F0.0
I0
F0.0
I0
F0.0
I274
I0
I265
tp265
a(I266
I13153
I13153
F0.06
I0
F0.0
I0
F0.0
I0
F0.0
I275
I0
I266
tp266
a(I267
I13175
I13175
F0.06
I0
F0.0
I0
F0.0
I0
F0.0
I276
I0
I267
tp267
a(I268
I13418
I13418
F0.06
I0
F0.0
I0
F0.0
I0
F0.0
I277
I0
I268
tp268
a(I269
I13468
I13468
F0.06
I0
F0.0
I0
F0.0
I0
F0.0
I278
I0
I269
tp269
a(I270
I13544
I13544
F0.06
I0
F0.0
I0
F0.0
I0
F0.0
I279
I0
I270
tp270
a(I271
I13637
I13637
F0.06
I0
F0.0
I0
F0.0
I0
F0.0
I280
I0
I271
tp271
a(I272
I14077
I14077
F0.06
I0
F0.0
I0
F0.0
I0
F0.0
I281
I0
I272
tp272
a(I273
I14161
I14161
F0.06
I0
F0.0
I0
F0.0
I0
F0.0
I282
I0
I273
tp273
a(I274
I14366
I14366
F0.06
I0
F0.0
I0
F0.0
I0
F0.0
I283
I0
I274
tp274
a(I275
I14457
I14457
F0.06
I0
F0.0
I0
F0.0
I0
F0.0
I284
I0
I275
tp275
a(I276
I14558
I14558
F0.06
I0
F0.0
I0
F0.0
I0
F0.0
I285
I0
I276
tp276
a(I277
I14793
I14793
F0.06
I0
F0.0
I0
F0.0
I0
F0.0
I286
I0
I277
tp277
a(I278
I14809
I14809
F0.06
I0
F0.0
I0
F0.0
I0
F0.0
I287
I0
I278
tp278
a(I279
I14827
I14827
F0.05
I0
F0.0
I0
F0.0
I0
F0.0
I288
I0
I279
tp279
a(I280
I14856
I14856
F0.05
I0
F0.0
I0
F0.0
I0
F0.0
I289
I0
I280
tp280
a(I281
I15111
I15111
F0.05
I0
F0.0
I0
F0.0
I0
F0.0
I290
I0
I281
tp281
a(I282
I15274
I15274
F0.05
I0
F0.0
I0
F0.0
I0
F0.0
I291
I0
I282
tp282
a(I283
I15287
I15287
F0.05
I0
F0.0
I0
F0.0
I0
F0.0
I292
I0
I283
tp283
a(I284
I15559
I15559
F0.05
I0
F0.0
I0
F0.0
I0
F0.0
I293
I0
I284
tp284
a(I285
I15575
I15575
F0.05
I0
F0.0
I0
F0.0
I0
F0.0
I294
I0
I285
tp285
a(I286
I15637
I15637
F0.05
I0
F0.0
I0
F0.0
I0
F0.0
I295
I0
I286
tp286
a(I287
I15654
I15654
F0.05
I0
F0.0
I0
F0.0
I0
F0.0
I296
I0
I287
tp287
a(I288
I15670
I15670
F0.05
I0
F0.0
I0
F0.0
I0
F0.0
I297
I0
I288
tp288
a(I289
I15751
I15751
F0.05
I0
F0.0
I0
F0.0
I0
F0.0
I298
I0
I289
tp289
a(I290
I15879
I15879
F0.05
I0
F0.0
I0
F0.0
I0
F0.0
I299
I0
I290
tp290
a(I291
I15994
I15994
F0.05
I0
F0.0
I0
F0.0
I0
F0.0
I300
I0
I291
tp291
a(I292
I16061
I16061
F0.05
I0
F0.0
I0
F0.0
I0
F0.0
I301
I0
I292
tp292
a(I293
I16087
I16087
F0.05
I0
F0.0
I0
F0.0
I0
F0.0
I302
I0
I293
tp293
a(I294
I16143
I16143
F0.05
I0
F0.0
I0
F0.0
I0
F0.0
I303
I0
I294
tp294
a(I295
I16425
I16425
F0.06
I0
F0.0
I0
F0.0
I0
F0.0
I305
I1
I295
tp295
a(I296
I16640
I16640
F0.07
I0
F0.0
I0
F0.0
I0
F0.0
I307
I1
I296
tp296
a(I297
I16701
I16701
F0.08
I0
F0.0
I0
F0.0
I0
F0.0
I309
I1
I297
tp297
a(I298
I16718
I16718
F0.08
I0
F0.0
I0
F0.0
I0
F0.0
I310
I0
I298
tp298
a(I299
I17045
I17045
F0.08
I0
F0.0
I0
F0.0
I0
F0.0
I311
I0
I299
tp299
a(I300
I17108
I17108
F0.08
I0
F0.0
I0
F0.0
I0
F0.0
I312
I0
I300
tp300
a.