(lp0
(I1
I0
I0
F0.0
I0
F0.0
I0
F0.0
I0
F0.0
I1
I0
I1
tp1
a(I2
I0
I0
F0.0
I0
F0.0
I0
F0.0
I0
F0.0
I2
I0
I2
tp2
a(I3
I0
I0
F0.0
I0
F0.0
I0
F0.0
I0
F0.0
I3
I0
I3
tp3
a(I4
I0
I0
F0.0
I0
F0.0
I0
F0.0
I0
F0.0
I4
I0
I4
tp4
a(I5
I0
I0
F0.0
I0
F0.0
I0
F0.0
I0
F0.0
I5
I0
I5
tp5
a(I6
I0
I0
F0.0
I0
F0.0
I0
F0.0
I0
F0.0
I6
I0
I6
tp6
a(I7
I0
I0
F0.0
I0
F0.0
I0
F0.0
I0
F0.0
I7
I0
I7
tp7
a(I8
I0
I0
F0.0
I0
F0.0
I0
F0.0
I0
F0.0
I8
I0
I8
tp8
a(I9
I0
I0
F0.0
I0
F0.0
I0
F0.0
I0
F0.0
I9
I0
I9
tp9
a(I10
I0
I0
F0.0
I0
F0.0
I0
F0.0
I0
F0.0
I10
I0
I10
tp10
a(I11
I0
I0
F0.0
I0
F0.0
I0
F0.0
I0
F0.0
I11
I0
I11
tp11
a(I12
I0
I0
F0.0
I0
F0.0
I0
F0.0
I0
F0.0
I12
I0
I12
tp12
a(I13
I0
I0
F0.0
I0
F0.0
I0
F0.0
I0
F0.0
I13
I0
I13
tp13
a(I14
I0
I0
F0.0
I0
F0.0
I0
F0.0
I0
F0.0
I14
I0
I14
tp14
a(I15
I0
I0
F0.0
I0
F0.0
I0
F0.0
I0
F0.0
I15
I0
I15
tp15
a(I16
I0
I0
F0.0
I0
F0.0
I0
F0.0
I0
F0.0
I16
I0
I16
tp16
a(I17
I0
I0
F0.0
I0
F0.0
I0
F0.0
I0
F0.0
I17
I0
I17
tp17
a(I18
I0
I0
F0.0
I0
F0.0
I0
F0.0
I0
F0.0
I18
I0
I18
tp18
a(I19
I0
I0
F0.0
I0
F0.0
I0
F0.0
I0
F0.0
I19
I0
I19
tp19
a(I20
I0
I0
F0.0
I0
F0.0
I0
F0.0
I0
F0.0
I20
I0
I20
tp20
a(I21
I0
I0
F0.0
I0
F0.0
I0
F0.0
I0
F0.0
I21
I0
I21
tp21
a(I22
I0
I0
F0.0
I0
F0.0
I0
F0.0
I0
F0.0
I22
I0
I22
tp22
a(I23
I0
I0
F0.0
I0
F0.0
I0
F0.0
I0
F0.0
I23
I0
I23
tp23
a(I24
I0
I0
F0.0
I0
F0.0
I0
F0.0
I0
F0.0
I24
I0
I24
tp24
a(I25
I0
I0
F0.0
I0
F0.0
I0
F0.0
I0
F0.0
I25
I0
I25
tp25
a(I26
I0
I0
F0.0
I0
F0.0
I0
F0.0
I0
F0.0
I26
I0
I26
tp26
a(I27
I0
I0
F0.0
I0
F0.0
I0
F0.0
I0
F0.0
I27
I0
I27
tp27
a(I28
I0
I0
F0.0
I0
F0.0
I0
F0.0
I0
F0.0
I28
I0
I28
tp28
a(I29
I0
I0
F0.0
I0
F0.0
I0
F0.0
I0
F0.0
I29
I0
I29
tp29
a(I30
I0
I0
F0.0
I0
F0.0
I0
F0.0
I0
F0.0
I30
I0
I30
tp30
a(I31
I0
I0
F0.0
I0
F0.0
I0
F0.0
I0
F0.0
I31
I0
I31
tp31
a(I32
I0
I0
F0.0
I0
F0.0
I0
F0.0
I0
F0.0
I32
I0
I32
tp32
a(I33
I0
I0
F0.0
I0
F0.0
I0
F0.0
I0
F0.0
I33
I0
I33
tp33
a(I34
I0
I0
F0.0
I0
F0.0
I0
F0.0
I0
F0.0
I34
I0
I34
tp34
a(I35
I0
I0
F0.0
I0
F0.0
I0
F0.0
I0
F0.0
I35
I0
I35
tp35
a(I36
I0
I0
F0.0
I0
F0.0
I0
F0.0
I0
F0.0
I36
I0
I36
tp36
a(I37
I0
I0
F0.0
I0
F0.0
I0
F0.0
I0
F0.0
I37
I0
I37
tp37
a(I38
I0
I0
F0.0
I0
F0.0
I0
F0.0
I0
F0.0
I38
I0
I38
tp38
a(I39
I0
I0
F0.0
I0
F0.0
I0
F0.0
I0
F0.0
I39
I0
I39
tp39
a(I40
I0
I0
F0.0
I0
F0.0
I0
F0.0
I0
F0.0
I40
I0
I40
tp40
a(I41
I0
I0
F0.0
I0
F0.0
I0
F0.0
I0
F0.0
I41
I0
I41
tp41
a(I42
I0
I0
F0.0
I0
F0.0
I0
F0.0
I0
F0.0
I42
I0
I42
tp42
a(I43
I0
I0
F0.0
I0
F0.0
I0
F0.0
I0
F0.0
I43
I0
I43
tp43
a(I44
I0
I0
F0.0
I0
F0.0
I0
F0.0
I0
F0.0
I44
I0
I44
tp44
a(I45
I0
I0
F0.0
I0
F0.0
I0
F0.0
I0
F0.0
I45
I0
I45
tp45
a(I46
I0
I0
F0.0
I0
F0.0
I0
F0.0
I0
F0.0
I46
I0
I46
tp46
a(I47
I0
I0
F0.0
I0
F0.0
I0
F0.0
I0
F0.0
I47
I0
I47
tp47
a(I48
I0
I0
F0.0
I0
F0.0
I0
F0.0
I0
F0.0
I48
I0
I48
tp48
a(I49
I0
I0
F0.0
I0
F0.0
I0
F0.0
I0
F0.0
I49
I0
I49
tp49
a(I50
I0
I0
F0.0
I0
F0.0
I0
F0.0
I0
F0.0
I50
I0
I50
tp50
a(I51
I0
I0
F0.0
I0
F0.0
I0
F0.0
I0
F0.0
I51
I0
I51
tp51
a(I52
I0
I0
F0.0
I0
F0.0
I0
F0.0
I0
F0.0
I52
I0
I52
tp52
a(I53
I0
I0
F0.0
I0
F0.0
I0
F0.0
I0
F0.0
I53
I0
I53
tp53
a(I54
I0
I0
F0.0
I0
F0.0
I0
F0.0
I0
F0.0
I54
I0
I54
tp54
a(I55
I0
I0
F0.0
I0
F0.0
I0
F0.0
I0
F0.0
I55
I0
I55
tp55
a(I56
I0
I0
F0.0
I0
F0.0
I0
F0.0
I0
F0.0
I56
I0
I56
tp56
a(I57
I0
I0
F0.0
I0
F0.0
I0
F0.0
I0
F0.0
I57
I0
I57
tp57
a(I58
I0
I0
F0.0
I0
F0.0
I0
F0.0
I0
F0.0
I58
I0
I58
tp58
a(I59
I0
I0
F0.0
I0
F0.0
I0
F0.0
I0
F0.0
I59
I0
I59
tp59
a(I60
I0
I0
F0.0
I0
F0.0
I0
F0.0
I0
F0.0
I60
I0
I60
tp60
a(I61
I0
I0
F0.0
I0
F0.0
I0
F0.0
I0
F0.0
I61
I0
I61
tp61
a(I62
I0
I0
F0.0
I0
F0.0
I0
F0.0
I0
F0.0
I62
I0
I62
tp62
a(I63
I0
I0
F0.0
I0
F0.0
I0
F0.0
I0
F0.0
I63
I0
I63
tp63
a(I64
I0
I0
F0.0
I0
F0.0
I0
F0.0
I0
F0.0
I64
I0
I64
tp64
a(I65
I0
I0
F0.0
I0
F0.0
I0
F0.0
I0
F0.0
I65
I0
I65
tp65
a(I66
I0
I0
F0.0
I0
F0.0
I0
F0.0
I0
F0.0
I66
I0
I66
tp66
a(I67
I0
I0
F0.0
I0
F0.0
I0
F0.0
I0
F0.0
I67
I0
I67
tp67
a(I68
I0
I0
F0.0
I0
F0.0
I0
F0.0
I0
F0.0
I68
I0
I68
tp68
a(I69
I0
I0
F0.0
I0
F0.0
I0
F0.0
I0
F0.0
I69
I0
I69
tp69
a(I70
I0
I0
F0.0
I0
F0.0
I0
F0.0
I0
F0.0
I70
I0
I70
tp70
a(I71
I0
I0
F0.0
I0
F0.0
I0
F0.0
I0
F0.0
I71
I0
I71
tp71
a(I72
I0
I0
F0.0
I0
F0.0
I0
F0.0
I0
F0.0
I72
I0
I72
tp72
a(I73
I0
I0
F0.0
I0
F0.0
I0
F0.0
I0
F0.0
I73
I0
I73
tp73
a(I74
I0
I0
F0.0
I0
F0.0
I0
F0.0
I0
F0.0
I74
I0
I74
tp74
a(I75
I0
I0
F0.0
I0
F0.0
I0
F0.0
I0
F0.0
I75
I0
I75
tp75
a(I76
I0
I0
F0.0
I0
F0.0
I0
F0.0
I0
F0.0
I76
I0
I76
tp76
a(I77
I0
I0
F0.0
I0
F0.0
I0
F0.0
I0
F0.0
I77
I0
I77
tp77
a(I78
I0
I0
F0.0
I0
F0.0
I0
F0.0
I0
F0.0
I78
I0
I78
tp78
a(I79
I0
I0
F0.0
I0
F0.0
I0
F0.0
I0
F0.0
I79
I0
I79
tp79
a(I80
I0
I0
F0.0
I0
F0.0
I0
F0.0
I0
F0.0
I80
I0
I80
tp80
a(I81
I0
I0
F0.0
I0
F0.0
I0
F0.0
I0
F0.0
I81
I0
I81
tp81
a(I82
I0
I0
F0.0
I0
F0.0
I0
F0.0
I0
F0.0
I82
I0
I82
tp82
a(I83
I0
I0
F0.0
I0
F0.0
I0
F0.0
I0
F0.0
I83
I0
I83
tp83
a(I84
I0
I0
F0.0
I0
F0.0
I0
F0.0
I0
F0.0
I84
I0
I84
tp84
a(I85
I0
I0
F0.0
I0
F0.0
I0
F0.0
I0
F0.0
I85
I0
I85
tp85
a(I86
I0
I0
F0.0
I0
F0.0
I0
F0.0
I0
F0.0
I86
I0
I86
tp86
a(I87
I0
I0
F0.0
I0
F0.0
I0
F0.0
I0
F0.0
I87
I0
I87
tp87
a(I88
I0
I0
F0.0
I0
F0.0
I0
F0.0
I0
F0.0
I88
I0
I88
tp88
a(I89
I0
I0
F0.0
I0
F0.0
I0
F0.0
I0
F0.0
I89
I0
I89
tp89
a(I90
I0
I0
F0.0
I0
F0.0
I0
F0.0
I0
F0.0
I90
I0
I90
tp90
a(I91
I0
I0
F0.0
I0
F0.0
I0
F0.0
I0
F0.0
I91
I0
I91
tp91
a(I92
I0
I0
F0.0
I0
F0.0
I0
F0.0
I0
F0.0
I92
I0
I92
tp92
a(I93
I0
I0
F0.0
I0
F0.0
I0
F0.0
I0
F0.0
I93
I0
I93
tp93
a(I94
I0
I0
F0.0
I0
F0.0
I0
F0.0
I0
F0.0
I94
I0
I94
tp94
a(I95
I0
I0
F0.0
I0
F0.0
I0
F0.0
I0
F0.0
I95
I0
I95
tp95
a(I96
I0
I0
F0.0
I0
F0.0
I0
F0.0
I0
F0.0
I96
I0
I96
tp96
a(I97
I0
I0
F0.0
I0
F0.0
I0
F0.0
I0
F0.0
I97
I0
I97
tp97
a(I98
I0
I0
F0.0
I0
F0.0
I0
F0.0
I0
F0.0
I98
I0
I98
tp98
a(I99
I0
I0
F0.0
I0
F0.0
I0
F0.0
I0
F0.0
I99
I0
I99
tp99
a(I100
I0
I0
F0.0
I0
F0.0
I0
F0.0
I0
F0.0
I100
I0
I100
tp100
a(I101
I0
I0
F0.0
I0
F0.0
I0
F0.0
I0
F0.0
I101
I0
I101
tp101
a(I102
I0
I0
F0.0
I0
F0.0
I0
F0.0
I0
F0.0
I102
I0
I102
tp102
a(I103
I0
I0
F0.0
I0
F0.0
I0
F0.0
I0
F0.0
I103
I0
I103
tp103
a(I104
I0
I0
F0.0
I0
F0.0
I0
F0.0
I0
F0.0
I104
I0
I104
tp104
a(I105
I0
I0
F0.0
I0
F0.0
I0
F0.0
I0
F0.0
I106
I1
I105
tp105
a(I106
I254
I254
F0.0
I0
F0.0
I0
F0.0
I0
F0.0
I107
I0
I106
tp106
a(I107
I646
I646
F0.0
I0
F0.0
I0
F0.0
I0
F0.0
I108
I0
I107
tp107
a(I108
I788
I788
F0.0
I0
F0.0
I0
F0.0
I0
F0.0
I109
I0
I108
tp108
a(I109
I824
I824
F0.0
I0
F0.0
I0
F0.0
I0
F0.0
I110
I0
I109
tp109
a(I110
I846
I846
F0.0
I0
F0.0
I0
F0.0
I0
F0.0
I111
I0
I110
tp110
a(I111
I876
I876
F0.0
I0
F0.0
I0
F0.0
I0
F0.0
I112
I0
I111
tp111
a(I112
I935
I935
F0.0
I0
F0.0
I0
F0.0
I0
F0.0
I113
I0
I112
tp112
a(I113
I1423
I1423
F0.0
I0
F0.0
I0
F0.0
I0
F0.0
I114
I0
I113
tp113
a(I114
I1440
I1440
F0.0
I0
F0.0
I0
F0.0
I0
F0.0
I115
I0
I114
tp114
a(I115
I1479
I1479
F0.0
I0
F0.0
I0
F0.0
I0
F0.0
I116
I0
I115
tp115
a(I116
I1604
I1604
F0.0
I0
F0.0
I0
F0.0
I0
F0.0
I117
I0
I116
tp116
a(I117
I1879
I1879
F0.0
I0
F0.0
I0
F0.0
I0
F0.0
I119
I1
I117
tp117
a(I118
I1895
I1895
F0.0
I0
F0.0
I0
F0.0
I0
F0.0
I120
I0
I118
tp118
a(I119
I1911
I1911
F0.0
I0
F0.0
I0
F0.0
I0
F0.0
I121
I0
I119
tp119
a(I120
I1928
I1928
F0.0
I0
F0.0
I0
F0.0
I0
F0.0
I122
I0
I120
tp120
a(I121
I1944
I1944
F0.0
I0
F0.0
I0
F0.0
I0
F0.0
I123
I0
I121
tp121
a(I122
I2237
I2237
F0.0
I0
F0.0
I0
F0.0
I0
F0.0
I125
I1
I122
tp122
a(I123
I2270
I2270
F0.0
I0
F0.0
I0
F0.0
I0
F0.0
I126
I0
I123
tp123
a(I124
I2342
I2342
F0.0
I0
F0.0
I0
F0.0
I0
F0.0
I127
I0
I124
tp124
a(I125
I2375
I2375
F0.0
I0
F0.0
I0
F0.0
I0
F0.0
I128
I0
I125
tp125
a(I126
I2392
I2392
F0.0
I0
F0.0
I0
F0.0
I0
F0.0
I129
I0
I126
tp126
a(I127
I2496
I2496
F0.0
I0
F0.0
I0
F0.0
I0
F0.0
I130
I0
I127
tp127
a(I128
I2572
I2572
F0.0
I0
F0.0
I0
F0.0
I0
F0.0
I131
I0
I128
tp128
a(I129
I2623
I2623
F0.0
I0
F0.0
I0
F0.0
I0
F0.0
I132
I0
I129
tp129
a(I130
I2654
I2654
F0.0
I0
F0.0
I0
F0.0
I0
F0.0
I133
I0
I130
tp130
a(I131
I2670
I2670
F0.0
I0
F0.0
I0
F0.0
I0
F0.0
I134
I0
I131
tp131
a(I132
I2735
I2735
F0.0
I0
F0.0
I0
F0.0
I0
F0.0
I135
I0
I132
tp132
a(I133
I2814
I2814
F0.0
I0
F0.0
I0
F0.0
I0
F0.0
I136
I0
I133
tp133
a(I134
I2830
I2830
F0.0
I0
F0.0
I0
F0.0
I0
F0.0
I137
I0
I134
tp134
a(I135
I2889
I2889
F0.0
I0
F0.0
I0
F0.0
I0
F0.0
I138
I0
I135
tp135
a(I136
I2922
I2922
F0.0
I0
F0.0
I0
F0.0
I0
F0.0
I139
I0
I136
tp136
a(I137
I2989
I2989
F0.0
I0
F0.0
I0
F0.0
I0
F0.0
I140
I0
I137
tp137
a(I138
I3007
I3007
F0.0
I0
F0.0
I0
F0.0
I0
F0.0
I141
I0
I138
tp138
a(I139
I3148
I3148
F0.0
I0
F0.0
I0
F0.0
I0
F0.0
I142
I0
I139
tp139
a(I140
I3170
I3170
F0.0
I0
F0.0
I0
F0.0
I0
F0.0
I143
I0
I140
tp140
a(I141
I3186
I3186
F0.0
I0
F0.0
I0
F0.0
I0
F0.0
I144
I0
I141
tp141
a(I142
I3227
I3227
F0.0
I0
F0.0
I0
F0.0
I0
F0.0
I145
I0
I142
tp142
a(I143
I3366
I3366
F0.0
I0
F0.0
I0
F0.0
I0
F0.0
I146
I0
I143
tp143
a(I144
I3419
I3419
F0.0
I0
F0.0
I0
F0.0
I0
F0.0
I147
I0
I144
tp144
a(I145
I3518
I3518
F0.0
I0
F0.0
I0
F0.0
I0
F0.0
I148
I0
I145
tp145
a(I146
I3643
I3643
F0.0
I0
F0.0
I0
F0.0
I0
F0.0
I149
I0
I146
tp146
a(I147
I3659
I3659
F0.0
I0
F0.0
I0
F0.0
I0
F0.0
I150
I0
I147
tp147
a(I148
I4082
I4082
F0.0
I0
F0.0
I0
F0.0
I0
F0.0
I151
I0
I148
tp148
a(I149
I4137
I4137
F0.0
I0
F0.0
I0
F0.0
I0
F0.0
I152
I0
I149
tp149
a(I150
I4154
I4154
F0.0
I0
F0.0
I0
F0.0
I0
F0.0
I153
I0
I150
tp150
a(I151
I4170
I4170
F0.0
I0
F0.0
I0
F0.0
I0
F0.0
I154
I0
I151
tp151
a(I152
I4342
I4342
F0.0
I0
F0.0
I0
F0.0
I0
F0.0
I156
I1
I152
tp152
a(I153
I4429
I4429
F0.0
I0
F0.0
I0
F0.0
I0
F0.0
I157
I0
I153
tp153
a(I154
I4445
I4445
F0.0
I0
F0.0
I0
F0.0
I0
F0.0
I158
I0
I154
tp154
a(I155
I4466
I4466
F0.0
I0
F0.0
I0
F0.0
I0
F0.0
I159
I0
I155
tp155
a(I156
I4483
I4483
F0.0
I0
F0.0
I0
F0.0
I0
F0.0
I160
I0
I156
tp156
a(I157
I4500
I4500
F0.0
I0
F0.0
I0
F0.0
I0
F0.0
I161
I0
I157
tp157
a(I158
I4544
I4544
F0.0
I0
F0.0
I0
F0.0
I0
F0.0
I162
I0
I158
tp158
a(I159
I4605
I4605
F0.0
I0
F0.0
I0
F0.0
I0
F0.0
I163
I0
I159
tp159
a(I160
I4623
I4623
F0.0
I0
F0.0
I0
F0.0
I0
F0.0
I164
I0
I160
tp160
a(I161
I4659
I4659
F0.0
I0
F0.0
I0
F0.0
I0
F0.0
I165
I0
I161
tp161
a(I162
I4675
I4675
F0.0
I0
F0.0
I0
F0.0
I0
F0.0
I166
I0
I162
tp162
a(I163
I4694
I4694
F0.0
I0
F0.0
I0
F0.0
I0
F0.0
I167
I0
I163
tp163
a(I164
I4743
I4743
F0.0
I0
F0.0
I0
F0.0
I0
F0.0
I168
I0
I164
tp164
a(I165
I4862
I4862
F0.0
I0
F0.0
I0
F0.0
I0
F0.0
I169
I0
I165
tp165
a(I166
I4881
I4881
F0.0
I0
F0.0
I0
F0.0
I0
F0.0
I170
I0
I166
tp166
a(I167
I5061
I5061
F0.0
I0
F0.0
I0
F0.0
I0
F0.0
I171
I0
I167
tp167
a(I168
I5121
I5121
F0.0
I0
F0.0
I0
F0.0
I0
F0.0
I172
I0
I168
tp168
a(I169
I5172
I5172
F0.0
I0
F0.0
I0
F0.0
I0
F0.0
I173
I0
I169
tp169
a(I170
I5226
I5226
F0.0
I0
F0.0
I0
F0.0
I0
F0.0
I174
I0
I170
tp170
a(I171
I5395
I5395
F0.0
I0
F0.0
I0
F0.0
I0
F0.0
I175
I0
I171
tp171
a(I172
I5419
I5419
F0.0
I0
F0.0
I0
F0.0
I0
F0.0
I176
I0
I172
tp172
a(I173
I5435
I5435
F0.0
I0
F0.0
I0
F0.0
I0
F0.0
I177
I0
I173
tp173
a(I174
I5474
I5474
F0.0
I0
F0.0
I0
F0.0
I0
F0.0
I178
I0
I174
tp174
a(I175
I5508
I5508
F0.0
I0
F0.0
I0
F0.0
I0
F0.0
I179
I0
I175
tp175
a(I176
I5561
I5561
F0.0
I0
F0.0
I0
F0.0
I0
F0.0
I180
I0
I176
tp176
a(I177
I5720
I5720
F0.0
I0
F0.0
I0
F0.0
I0
F0.0
I181
I0
I177
tp177
a(I178
I5757
I5757
F0.0
I0
F0.0
I0
F0.0
I0
F0.0
I182
I0
I178
tp178
a(I179
I5781
I5781
F0.0
I0
F0.0
I0
F0.0
I0
F0.0
I183
I0
I179
tp179
a(I180
I5828
I5828
F0.0
I0
F0.0
I0
F0.0
I0
F0.0
I184
I0
I180
tp180
a(I181
I5844
I5844
F0.0
I0
F0.0
I0
F0.0
I0
F0.0
I185
I0
I181
tp181
a(I182
I5860
I5860
F0.0
I0
F0.0
I0
F0.0
I0
F0.0
I186
I0
I182
tp182
a(I183
I5876
I5876
F0.0
I0
F0.0
I0
F0.0
I0
F0.0
I187
I0
I183
tp183
a(I184
I5892
I5892
F0.0
I0
F0.0
I0
F0.0
I0
F0.0
I188
I0
I184
tp184
a(I185
I5910
I5910
F0.0
I0
F0.0
I0
F0.0
I0
F0.0
I189
I0
I185
tp185
a(I186
I6410
I6410
F0.0
I0
F0.0
I0
F0.0
I0
F0.0
I190
I0
I186
tp186
a(I187
I6910
I6910
F0.0
I0
F0.0
I0
F0.0
I0
F0.0
I191
I0
I187
tp187
a(I188
I6928
I6928
F0.0
I0
F0.0
I0
F0.0
I0
F0.0
I192
I0
I188
tp188
a(I189
I6981
I6981
F0.0
I0
F0.0
I0
F0.0
I0
F0.0
I193
I0
I189
tp189
a(I190
I7010
I7010
F0.0
I0
F0.0
I0
F0.0
I0
F0.0
I194
I0
I190
tp190
a(I191
I7046
I7046
F0.0
I0
F0.0
I0
F0.0
I0
F0.0
I195
I0
I191
tp191
a(I192
I7164
I7164
F0.0
I0
F0.0
I0
F0.0
I0
F0.0
I196
I0
I192
tp192
a(I193
I7190
I7190
F0.0
I0
F0.0
I0
F0.0
I0
F0.0
I197
I0
I193
tp193
a(I194
I7209
I7209
F0.0
I0
F0.0
I0
F0.0
I0
F0.0
I198
I0
I194
tp194
a(I195
I7314
I7314
F0.0
I0
F0.0
I0
F0.0
I0
F0.0
I199
I0
I195
tp195
a(I196
I7608
I7608
F0.0
I0
F0.0
I0
F0.0
I0
F0.0
I200
I0
I196
tp196
a(I197
I7624
I7624
F0.0
I0
F0.0
I0
F0.0
I0
F0.0
I201
I0
I197
tp197
a(I198
I7669
I7669
F0.0
I0
F0.0
I0
F0.0
I0
F0.0
I202
I0
I198
tp198
a(I199
I7894
I7894
F0.0
I0
F0.0
I0
F0.0
I0
F0.0
I203
I0
I199
tp199
a(I200
I7942
I7942
F0.0
I0
F0.0
I0
F0.0
I0
F0.0
I204
I0
I200
tp200
a(I201
I8110
I8110
F0.04
I0
F0.0
I0
F0.0
I0
F0.0
I205
I0
I201
tp201
a(I202
I8148
I8148
F0.04
I0
F0.0
I0
F0.0
I0
F0.0
I206
I0
I202
tp202
a(I203
I8274
I8274
F0.04
I0
F0.0
I0
F0.0
I0
F0.0
I207
I0
I203
tp203
a(I204
I8500
I8500
F0.04
I0
F0.0
I0
F0.0
I0
F0.0
I208
I0
I204
tp204
a(I205
I8517
I8517
F0.03
I0
F0.0
I0
F0.0
I0
F0.0
I209
I0
I205
tp205
a(I206
I8667
I8667
F0.03
I0
F0.0
I0
F0.0
I0
F0.0
I210
I0
I206
tp206
a(I207
I8763
I8763
F0.03
I0
F0.0
I0
F0.0
I0
F0.0
I211
I0
I207
tp207
a(I208
I8862
I8862
F0.03
I0
F0.0
I0
F0.0
I0
F0.0
I212
I0
I208
tp208
a(I209
I9177
I9177
F0.04
I0
F0.0
I0
F0.0
I0
F0.0
I214
I1
I209
tp209
a(I210
I9272
I9272
F0.04
I0
F0.0
I0
F0.0
I0
F0.0
I215
I0
I210
tp210
a(I211
I9290
I9290
F0.04
I0
F0.0
I0
F0.0
I0
F0.0
I216
I0
I211
tp211
a(I212
I9470
I9470
F0.04
I0
F0.0
I0
F0.0
I0
F0.0
I217
I0
I212
tp212
a(I213
I9970
I9970
F0.04
I0
F0.0
I0
F0.0
I0
F0.0
I218
I0
I213
tp213
a(I214
I10470
I10470
F0.04
I0
F0.0
I0
F0.0
I0
F0.0
I219
I0
I214
tp214
a(I215
I10480
I10480
F0.04
I0
F0.0
I0
F0.0
I0
F0.0
I220
I0
I215
tp215
a(I216
I10542
I10542
F0.04
I0
F0.0
I0
F0.0
I0
F0.0
I221
I0
I216
tp216
a(I217
I10730
I10730
F0.03
I0
F0.0
I0
F0.0
I0
F0.0
I222
I0
I217
tp217
a(I218
I11113
I11113
F0.03
I0
F0.0
I0
F0.0
I0
F0.0
I223
I0
I218
tp218
a(I219
I11269
I11269
F0.03
I0
F0.0
I0
F0.0
I0
F0.0
I224
I0
I219
tp219
a(I220
I11353
I11353
F0.03
I0
F0.0
I0
F0.0
I0
F0.0
I225
I0
I220
tp220
a(I221
I11390
I11390
F0.03
I0
F0.0
I0
F0.0
I0
F0.0
I226
I0
I221
tp221
a(I222
I11628
I11628
F0.03
I0
F0.0
I0
F0.0
I0
F0.0
I228
I1
I222
tp222
a(I223
I11672
I11672
F0.03
I0
F0.0
I0
F0.0
I0
F0.0
I229
I0
I223
tp223
a(I224
I12068
I12068
F0.03
I0
F0.0
I0
F0.0
I0
F0.0
I230
I0
I224
tp224
a(I225
I12340
I12340
F0.03
I0
F0.0
I0
F0.0
I0
F0.0
I231
I0
I225
tp225
a(I226
I12356
I12356
F0.03
I0
F0.0
I0
F0.0
I0
F0.0
I232
I0
I226
tp226
a(I227
I12856
I12856
F0.03
I0
F0.0
I0
F0.0
I0
F0.0
I233
I0
I227
tp227
a(I228
I12921
I12921
F0.03
I0
F0.0
I0
F0.0
I0
F0.0
I234
I0
I228
tp228
a(I229
I13125
I13125
F0.03
I0
F0.0
I0
F0.0
I0
F0.0
I235
I0
I229
tp229
a(I230
I13612
I13612
F0.03
I0
F0.0
I0
F0.0
I0
F0.0
I236
I0
I230
tp230
a(I231
I13629
I13629
F0.03
I0
F0.0
I0
F0.0
I0
F0.0
I237
I0
I231
tp231
a(I232
I13658
I13658
F0.03
I0
F0.0
I0
F0.0
I0
F0.0
I238
I0
I232
tp232
a(I233
I13721
I13721
F0.03
I0
F0.0
I0
F0.0
I0
F0.0
I239
I0
I233
tp233
a(I234
I13789
I13789
F0.03
I0
F0.0
I0
F0.0
I0
F0.0
I240
I0
I234
tp234
a(I235
I13805
I13805
F0.03
I0
F0.0
I0
F0.0
I0
F0.0
I241
I0
I235
tp235
a(I236
I13821
I13821
F0.03
I0
F0.0
I0
F0.0
I0
F0.0
I242
I0
I236
tp236
a(I237
I13864
I13864
F0.03
I0
F0.0
I0
F0.0
I0
F0.0
I243
I0
I237
tp237
a(I238
I13887
I13887
F0.03
I0
F0.0
I0
F0.0
I0
F0.0
I244
I0
I238
tp238
a(I239
I14026
I14026
F0.03
I0
F0.0
I0
F0.0
I0
F0.0
I245
I0
I239
tp239
a(I240
I14116
I14116
F0.03
I0
F0.0
I0
F0.0
I0
F0.0
I246
I0
I240
tp240
a(I241
I14134
I14134
F0.03
I0
F0.0
I0
F0.0
I0
F0.0
I247
I0
I241
tp241
a(I242
I14150
I14150
F0.03
I0
F0.0
I0
F0.0
I0
F0.0
I248
I0
I242
tp242
a(I243
I14167
I14167
F0.03
I0
F0.0
I0
F0.0
I0
F0.0
I249
I0
I243
tp243
a(I244
I14183
I14183
F0.03
I0
F0.0
I0
F0.0
I0
F0.0
I250
I0
I244
tp244
a(I245
I14199
I14199
F0.03
I0
F0.0
I0
F0.0
I0
F0.0
I251
I0
I245
tp245
a(I246
I14495
I14495
F0.03
I0
F0.0
I0
F0.0
I0
F0.0
I252
I0
I246
tp246
a(I247
I14581
I14581
F0.04
I0
F0.0
I0
F0.0
I0
F0.0
I254
I1
I247
tp247
a(I248
I14653
I14653
F0.04
I0
F0.0
I0
F0.0
I0
F0.0
I255
I0
I248
tp248
a(I249
I14869
I14869
F0.04
I0
F0.0
I0
F0.0
I0
F0.0
I256
I0
I249
tp249
a(I250
I14888
I14888
F0.04
I0
F0.0
I0
F0.0
I0
F0.0
I257
I0
I250
tp250
a(I251
I15059
I15059
F0.04
I0
F0.0
I0
F0.0
I0
F0.0
I258
I0
I251
tp251
a(I252
I15293
I15293
F0.03
I0
F0.0
I0
F0.0
I0
F0.0
I259
I0
I252
tp252
a(I253
I15515
I15515
F0.03
I0
F0.0
I0
F0.0
I0
F0.0
I260
I0
I253
tp253
a(I254
I15579
I15579
F0.03
I0
F0.0
I0
F0.0
I0
F0.0
I261
I0
I254
tp254
a(I255
I15596
I15596
F0.03
I0
F0.0
I0
F0.0
I0
F0.0
I262
I0
I255
tp255
a(I256
I16031
I16031
F0.03
I0
F0.0
I0
F0.0
I0
F0.0
I263
I0
I256
tp256
a(I257
I16048
I16048
F0.03
I0
F0.0
I0
F0.0
I0
F0.0
I264
I0
I257
tp257
a(I258
I16066
I16066
F0.03
I0
F0.0
I0
F0.0
I0
F0.0
I265
I0
I258
tp258
a(I259
I16219
I16219
F0.03
I0
F0.0
I0
F0.0
I0
F0.0
I266
I0
I259
tp259
a(I260
I16264
I16264
F0.03
I0
F0.0
I0
F0.0
I0
F0.0
I267
I0
I260
tp260
a(I261
I16520
I16520
F0.03
I0
F0.0
I0
F0.0
I0
F0.0
I268
I0
I261
tp261
a(I262
I16536
I16536
F0.03
I0
F0.0
I0
F0.0
I0
F0.0
I269
I0
I262
tp262
a(I263
I16552
I16552
F0.03
I0
F0.0
I0
F0.0
I0
F0.0
I270
I0
I263
tp263
a(I264
I16640
I16640
F0.03
I0
F0.0
I0
F0.0
I0
F0.0
I271
I0
I264
tp264
a(I265
I16657
I16657
F0.03
I0
F0.0
I0
F0.0
I0
F0.0
I272
I0
I265
tp265
a(I266
I16839
I16839
F0.04
I0
F0.0
I0
F0.0
I0
F0.0
I274
I1
I266
tp266
a(I267
I17016
I17016
F0.04
I0
F0.0
I0
F0.0
I0
F0.0
I275
I0
I267
tp267
a(I268
I17175
I17175
F0.04
I0
F0.0
I0
F0.0
I0
F0.0
I276
I0
I268
tp268
a(I269
I17214
I17214
F0.04
I0
F0.0
I0
F0.0
I0
F0.0
I277
I0
I269
tp269
a(I270
I17425
I17425
F0.04
I0
F0.0
I0
F0.0
I0
F0.0
I278
I0
I270
tp270
a(I271
I17442
I17442
F0.04
I0
F0.0
I0
F0.0
I0
F0.0
I279
I0
I271
tp271
a(I272
I17602
I17602
F0.05
I0
F0.0
I0
F0.0
I0
F0.0
I281
I1
I272
tp272
a(I273
I17794
I17794
F0.05
I0
F0.0
I0
F0.0
I0
F0.0
I282
I0
I273
tp273
a(I274
I17812
I17812
F0.05
I0
F0.0
I0
F0.0
I0
F0.0
I283
I0
I274
tp274
a(I275
I17930
I17930
F0.05
I0
F0.0
I0
F0.0
I0
F0.0
I284
I0
I275
tp275
a(I276
I17947
I17947
F0.05
I0
F0.0
I0
F0.0
I0
F0.0
I285
I0
I276
tp276
a(I277
I18057
I18057
F0.05
I0
F0.0
I0
F0.0
I0
F0.0
I286
I0
I277
tp277
a(I278
I18213
I18213
F0.05
I0
F0.0
I0
F0.0
I0
F0.0
I287
I0
I278
tp278
a(I279
I18230
I18230
F0.05
I0
F0.0
I0
F0.0
I0
F0.0
I288
I0
I279
tp279
a(I280
I18730
I18730
F0.05
I0
F0.0
I0
F0.0
I0
F0.0
I289
I0
I280
tp280
a(I281
I18747
I18747
F0.05
I0
F0.0
I0
F0.0
I0
F0.0
I290
I0
I281
tp281
a(I282
I19247
I19247
F0.05
I0
F0.0
I0
F0.0
I0
F0.0
I291
I0
I282
tp282
a(I283
I19287
I19287
F0.05
I0
F0.0
I0
F0.0
I0
F0.0
I292
I0
I283
tp283
a(I284
I19305
I19305
F0.05
I0
F0.0
I0
F0.0
I0
F0.0
I293
I0
I284
tp284
a(I285
I19628
I19628
F0.05
I0
F0.0
I0
F0.0
I0
F0.0
I294
I0
I285
tp285
a(I286
I19653
I19653
F0.05
I0
F0.0
I0
F0.0
I0
F0.0
I295
I0
I286
tp286
a(I287
I20043
I20043
F0.05
I0
F0.0
I0
F0.0
I0
F0.0
I296
I0
I287
tp287
a(I288
I20065
I20065
F0.05
I0
F0.0
I0
F0.0
I0
F0.0
I297
I0
I288
tp288
a(I289
I20543
I20543
F0.06
I0
F0.0
I0
F0.0
I0
F0.0
I299
I1
I289
tp289
a(I290
I20930
I20930
F0.06
I0
F0.0
I0
F0.0
I0
F0.0
I300
I0
I290
tp290
a(I291
I20953
I20953
F0.06
I0
F0.0
I0
F0.0
I0
F0.0
I301
I0
I291
tp291
a(I292
I20990
I20990
F0.06
I0
F0.0
I0
F0.0
I0
F0.0
I302
I0
I292
tp292
a(I293
I21490
I21490
F0.06
I0
F0.0
I0
F0.0
I0
F0.0
I303
I0
I293
tp293
a(I294
I21606
I21606
F0.07
I0
F0.0
I0
F0.0
I0
F0.0
I305
I1
I294
tp294
a(I295
I21660
I21660
F0.07
I0
F0.0
I0
F0.0
I0
F0.0
I306
I0
I295
tp295
a(I296
I21722
I21722
F0.08
I0
F0.0
I0
F0.0
I0
F0.0
I308
I1
I296
tp296
a(I297
I21738
I21738
F0.08
I0
F0.0
I0
F0.0
I0
F0.0
I309
I0
I297
tp297
a(I298
I22238
I22238
F0.08
I0
F0.0
I0
F0.0
I0
F0.0
I310
I0
I298
tp298
a(I299
I22255
I22255
F0.08
I0
F0.0
I0
F0.0
I0
F0.0
I311
I0
I299
tp299
a(I300
I22631
I22631
F0.09
I0
F0.0
I0
F0.0
I0
F0.0
I313
I1
I300
tp300
a(I301
I22686
I22686
F0.09
I0
F0.0
I0
F0.0
I0
F0.0
I314
I0
I301
tp301
a(I302
I23186
I23186
F0.09
I0
F0.0
I0
F0.0
I0
F0.0
I315
I0
I302
tp302
a(I303
I23686
I23686
F0.09
I0
F0.0
I0
F0.0
I0
F0.0
I316
I0
I303
tp303
a(I304
I23766
I23766
F0.09
I0
F0.0
I0
F0.0
I0
F0.0
I317
I0
I304
tp304
a(I305
I23933
I23933
F0.09
I0
F0.0
I0
F0.0
I0
F0.0
I318
I0
I305
tp305
a(I306
I24433
I24433
F0.09
I0
F0.0
I0
F0.0
I0
F0.0
I319
I0
I306
tp306
a(I307
I24933
I24933
F0.09
I0
F0.0
I0
F0.0
I0
F0.0
I320
I0
I307
tp307
a(I308
I25073
I25073
F0.09
I0
F0.0
I0
F0.0
I0
F0.0
I321
I0
I308
tp308
a(I309
I25193
I25193
F0.08
I0
F0.0
I0
F0.0
I0
F0.0
I322
I0
I309
tp309
a(I310
I25211
I25211
F0.08
I0
F0.0
I0
F0.0
I0
F0.0
I323
I0
I310
tp310
a(I311
I25372
I25372
F0.08
I0
F0.0
I0
F0.0
I0
F0.0
I324
I0
I311
tp311
a(I312
I25533
I25533
F0.08
I0
F0.0
I0
F0.0
I0
F0.0
I325
I0
I312
tp312
a(I313
I25589
I25589
F0.08
I0
F0.0
I0
F0.0
I0
F0.0
I326
I0
I313
tp313
a(I314
I25605
I25605
F0.08
I0
F0.0
I0
F0.0
I0
F0.0
I327
I0
I314
tp314
a(I315
I25671
I25671
F0.09
I0
F0.0
I0
F0.0
I0
F0.0
I329
I1
I315
tp315
a(I316
I25687
I25687
F0.09
I0
F0.0
I0
F0.0
I0
F0.0
I330
I0
I316
tp316
a(I317
I26144
I26144
F0.09
I0
F0.0
I0
F0.0
I0
F0.0
I331
I0
I317
tp317
a(I318
I26167
I26167
F0.09
I0
F0.0
I0
F0.0
I0
F0.0
I332
I0
I318
tp318
a(I319
I26481
I26481
F0.09
I0
F0.0
I0
F0.0
I0
F0.0
I333
I0
I319
tp319
a(I320
I26548
I26548
F0.1
I0
F0.0
I0
F0.0
I0
F0.0
I335
I1
I320
tp320
a(I321
I26715
I26715
F0.1
I0
F0.0
I0
F0.0
I0
F0.0
I336
I0
I321
tp321
a(I322
I26796
I26796
F0.09
I0
F0.0
I0
F0.0
I0
F0.0
I337
I0
I322
tp322
a(I323
I26841
I26841
F0.09
I0
F0.0
I0
F0.0
I0
F0.0
I338
I0
I323
tp323
a(I324
I26860
I26860
F0.09
I0
F0.0
I0
F0.0
I0
F0.0
I339
I0
I324
tp324
a(I325
I27015
I27015
F0.09
I0
F0.0
I0
F0.0
I0
F0.0
I340
I0
I325
tp325
a(I326
I27135
I27135
F0.09
I0
F0.0
I0
F0.0
I0
F0.0
I341
I0
I326
tp326
a(I327
I27153
I27153
F0.09
I0
F0.0
I0
F0.0
I0
F0.0
I342
I0
I327
tp327
a(I328
I27324
I27324
F0.1
I0
F0.0
I0
F0.0
I0
F0.0
I344
I1
I328
tp328
a(I329
I27371
I27371
F0.1
I0
F0.0
I0
F0.0
I0
F0.0
I345
I0
I329
tp329
a(I330
I27498
I27498
F0.1
I0
F0.0
I0
F0.0
I0
F0.0
I346
I0
I330
tp330
a(I331
I27633
I27633
F0.11
I0
F0.0
I0
F0.0
I0
F0.0
I348
I1
I331
tp331
a(I332
I27948
I27948
F0.12
I0
F0.0
I0
F0.0
I0
F0.0
I350
I1
I332
tp332
a(I333
I27970
I27970
F0.12
I0
F0.0
I0
F0.0
I0
F0.0
I351
I0
I333
tp333
a(I334
I28470
I28470
F0.12
I0
F0.0
I0
F0.0
I0
F0.0
I352
I0
I334
tp334
a(I335
I28489
I28489
F0.12
I0
F0.0
I0
F0.0
I0
F0.0
I353
I0
I335
tp335
a(I336
I28553
I28553
F0.13
I0
F0.0
I0
F0.0
I0
F0.0
I355
I1
I336
tp336
a(I337
I28650
I28650
F0.13
I0
F0.0
I0
F0.0
I0
F0.0
I356
I0
I337
tp337
a(I338
I28674
I28674
F0.13
I0
F0.0
I0
F0.0
I0
F0.0
I357
I0
I338
tp338
a(I339
I28729
I28729
F0.14
I0
F0.0
I0
F0.0
I0
F0.0
I359
I1
I339
tp339
a(I340
I28747
I28747
F0.14
I0
F0.0
I0
F0.0
I0
F0.0
I360
I0
I340
tp340
a(I341
I28806
I28806
F0.14
I0
F0.0
I0
F0.0
I0
F0.0
I361
I0
I341
tp341
a(I342
I28880
I28880
F0.15
I0
F0.0
I0
F0.0
I0
F0.0
I363
I1
I342
tp342
a(I343
I28923
I28923
F0.15
I0
F0.0
I0
F0.0
I0
F0.0
I364
I0
I343
tp343
a(I344
I29053
I29053
F0.16
I0
F0.0
I0
F0.0
I0
F0.0
I366
I1
I344
tp344
a(I345
I29211
I29211
F0.16
I0
F0.0
I0
F0.0
I0
F0.0
I367
I0
I345
tp345
a(I346
I29711
I29711
F0.16
I0
F0.0
I0
F0.0
I0
F0.0
I368
I0
I346
tp346
a(I347
I29761
I29761
F0.15
I0
F0.0
I0
F0.0
I0
F0.0
I369
I0
I347
tp347
a(I348
I29777
I29777
F0.15
I0
F0.0
I0
F0.0
I0
F0.0
I370
I0
I348
tp348
a(I349
I29863
I29863
F0.16
I0
F0.0
I0
F0.0
I0
F0.0
I372
I1
I349
tp349
a(I350
I29939
I29939
F0.17
I0
F0.0
I0
F0.0
I0
F0.0
I374
I1
I350
tp350
a(I351
I30050
I30050
F0.18
I0
F0.0
I0
F0.0
I0
F0.0
I376
I1
I351
tp351
a(I352
I30099
I30099
F0.18
I0
F0.0
I0
F0.0
I0
F0.0
I377
I0
I352
tp352
a(I353
I30145
I30145
F0.18
I0
F0.0
I0
F0.0
I0
F0.0
I378
I0
I353
tp353
a(I354
I30160
I30160
F0.18
I0
F0.0
I0
F0.0
I0
F0.0
I379
I0
I354
tp354
a(I355
I30193
I30193
F0.18
I0
F0.0
I0
F0.0
I0
F0.0
I380
I0
I355
tp355
a(I356
I30277
I30277
F0.18
I0
F0.0
I0
F0.0
I0
F0.0
I381
I0
I356
tp356
a(I357
I30752
I30752
F0.19
I0
F0.0
I0
F0.0
I0
F0.0
I383
I1
I357
tp357
a(I358
I30866
I30866
F0.2
I0
F0.0
I0
F0.0
I0
F0.0
I385
I1
I358
tp358
a(I359
I30882
I30882
F0.2
I0
F0.0
I0
F0.0
I0
F0.0
I386
I0
I359
tp359
a(I360
I31382
I31382
F0.2
I0
F0.0
I0
F0.0
I0
F0.0
I387
I0
I360
tp360
a(I361
I31882
I31882
F0.2
I0
F0.0
I0
F0.0
I0
F0.0
I388
I0
I361
tp361
a(I362
I32382
I32382
F0.2
I0
F0.0
I0
F0.0
I0
F0.0
I389
I0
I362
tp362
a(I363
I32882
I32882
F0.2
I0
F0.0
I0
F0.0
I0
F0.0
I390
I0
I363
tp363
a(I364
I33225
I33225
F0.2
I0
F0.0
I0
F0.0
I0
F0.0
I391
I0
I364
tp364
a(I365
I33242
I33242
F0.2
I0
F0.0
I0
F0.0
I0
F0.0
I392
I0
I365
tp365
a(I366
I33742
I33742
F0.19
I0
F0.0
I0
F0.0
I0
F0.0
I393
I0
I366
tp366
a(I367
I33860
I33860
F0.19
I0
F0.0
I0
F0.0
I0
F0.0
I394
I0
I367
tp367
a(I368
I33897
I33897
F0.19
I0
F0.0
I0
F0.0
I0
F0.0
I395
I0
I368
tp368
a(I369
I34397
I34397
F0.19
I0
F0.0
I0
F0.0
I0
F0.0
I396
I0
I369
tp369
a(I370
I34897
I34897
F0.19
I0
F0.0
I0
F0.0
I0
F0.0
I397
I0
I370
tp370
a(I371
I34913
I34913
F0.19
I0
F0.0
I0
F0.0
I0
F0.0
I398
I0
I371
tp371
a(I372
I34970
I34970
F0.18
I0
F0.0
I0
F0.0
I0
F0.0
I399
I0
I372
tp372
a(I373
I34999
I34999
F0.18
I0
F0.0
I0
F0.0
I0
F0.0
I400
I0
I373
tp373
a(I374
I35016
I35016
F0.18
I0
F0.0
I0
F0.0
I0
F0.0
I401
I0
I374
tp374
a(I375
I35225
I35225
F0.18
I0
F0.0
I0
F0.0
I0
F0.0
I402
I0
I375
tp375
a(I376
I35725
I35725
F0.18
I0
F0.0
I0
F0.0
I0
F0.0
I403
I0
I376
tp376
a(I377
I36225
I36225
F0.18
I0
F0.0
I0
F0.0
I0
F0.0
I404
I0
I377
tp377
a(I378
I36247
I36247
F0.18
I0
F0.0
I0
F0.0
I0
F0.0
I405
I0
I378
tp378
a(I379
I36264
I36264
F0.18
I0
F0.0
I0
F0.0
I0
F0.0
I406
I0
I379
tp379
a(I380
I36764
I36764
F0.18
I0
F0.0
I0
F0.0
I0
F0.0
I407
I0
I380
tp380
a(I381
I36782
I36782
F0.18
I0
F0.0
I0
F0.0
I0
F0.0
I408
I0
I381
tp381
a(I382
I36799
I36799
F0.18
I0
F0.0
I0
F0.0
I0
F0.0
I409
I0
I382
tp382
a(I383
I36833
I36833
F0.18
I0
F0.0
I0
F0.0
I0
F0.0
I410
I0
I383
tp383
a(I384
I36849
I36849
F0.18
I0
F0.0
I0
F0.0
I0
F0.0
I411
I0
I384
tp384
a(I385
I36928
I36928
F0.18
I0
F0.0
I0
F0.0
I0
F0.0
I412
I0
I385
tp385
a(I386
I37006
I37006
F0.18
I0
F0.0
I0
F0.0
I0
F0.0
I413
I0
I386
tp386
a(I387
I37506
I37506
F0.18
I0
F0.0
I0
F0.0
I0
F0.0
I414
I0
I387
tp387
a(I388
I38006
I38006
F0.18
I0
F0.0
I0
F0.0
I0
F0.0
I415
I0
I388
tp388
a(I389
I38053
I38053
F0.17
I0
F0.0
I0
F0.0
I0
F0.0
I416
I0
I389
tp389
a(I390
I38553
I38553
F0.17
I0
F0.0
I0
F0.0
I0
F0.0
I417
I0
I390
tp390
a(I391
I39053
I39053
F0.17
I0
F0.0
I0
F0.0
I0
F0.0
I418
I0
I391
tp391
a(I392
I39553
I39553
F0.17
I0
F0.0
I0
F0.0
I0
F0.0
I419
I0
I392
tp392
a(I393
I40053
I40053
F0.17
I0
F0.0
I0
F0.0
I0
F0.0
I420
I0
I393
tp393
a(I394
I40553
I40553
F0.16
I0
F0.0
I0
F0.0
I0
F0.0
I421
I0
I394
tp394
a(I395
I41053
I41053
F0.16
I0
F0.0
I0
F0.0
I0
F0.0
I422
I0
I395
tp395
a(I396
I41069
I41069
F0.15
I0
F0.0
I0
F0.0
I0
F0.0
I423
I0
I396
tp396
a(I397
I41569
I41569
F0.15
I0
F0.0
I0
F0.0
I0
F0.0
I424
I0
I397
tp397
a(I398
I41691
I41691
F0.15
I0
F0.0
I0
F0.0
I0
F0.0
I425
I0
I398
tp398
a(I399
I42191
I42191
F0.15
I0
F0.0
I0
F0.0
I0
F0.0
I426
I0
I399
tp399
a(I400
I42691
I42691
F0.14
I0
F0.0
I0
F0.0
I0
F0.0
I427
I0
I400
tp400
a(I401
I42707
I42707
F0.14
I0
F0.0
I0
F0.0
I0
F0.0
I428
I0
I401
tp401
a(I402
I43207
I43207
F0.14
I0
F0.0
I0
F0.0
I0
F0.0
I429
I0
I402
tp402
a(I403
I43707
I43707
F0.14
I0
F0.0
I0
F0.0
I0
F0.0
I430
I0
I403
tp403
a(I404
I44207
I44207
F0.14
I0
F0.0
I0
F0.0
I0
F0.0
I431
I0
I404
tp404
a(I405
I44707
I44707
F0.14
I0
F0.0
I0
F0.0
I0
F0.0
I432
I0
I405
tp405
a(I406
I45207
I45207
F0.14
I0
F0.0
I0
F0.0
I0
F0.0
I433
I0
I406
tp406
a(I407
I45707
I45707
F0.14
I0
F0.0
I0
F0.0
I0
F0.0
I434
I0
I407
tp407
a(I408
I45724
I45724
F0.14
I0
F0.0
I0
F0.0
I0
F0.0
I435
I0
I408
tp408
a(I409
I45740
I45740
F0.14
I0
F0.0
I0
F0.0
I0
F0.0
I436
I0
I409
tp409
a(I410
I46240
I46240
F0.14
I0
F0.0
I0
F0.0
I0
F0.0
I437
I0
I410
tp410
a(I411
I46740
I46740
F0.14
I0
F0.0
I0
F0.0
I0
F0.0
I438
I0
I411
tp411
a(I412
I47240
I47240
F0.14
I0
F0.0
I0
F0.0
I0
F0.0
I439
I0
I412
tp412
a(I413
I47740
I47740
F0.14
I0
F0.0
I0
F0.0
I0
F0.0
I440
I0
I413
tp413
a(I414
I48240
I48240
F0.14
I0
F0.0
I0
F0.0
I0
F0.0
I441
I0
I414
tp414
a(I415
I48740
I48740
F0.13
I0
F0.0
I0
F0.0
I0
F0.0
I442
I0
I415
tp415
a(I416
I49240
I49240
F0.13
I0
F0.0
I0
F0.0
I0
F0.0
I443
I0
I416
tp416
a(I417
I49740
I49740
F0.13
I0
F0.0
I0
F0.0
I0
F0.0
I444
I0
I417
tp417
a(I418
I49756
I49756
F0.13
I0
F0.0
I0
F0.0
I0
F0.0
I445
I0
I418
tp418
a(I419
I50256
I50256
F0.13
I0
F0.0
I0
F0.0
I0
F0.0
I446
I0
I419
tp419
a(I420
I50756
I50756
F0.12
I0
F0.0
I0
F0.0
I0
F0.0
I447
I0
I420
tp420
a(I421
I51256
I51256
F0.12
I0
F0.0
I0
F0.0
I0
F0.0
I448
I0
I421
tp421
a(I422
I51756
I51756
F0.12
I0
F0.0
I0
F0.0
I0
F0.0
I449
I0
I422
tp422
a(I423
I52225
I52225
F0.13
I0
F0.0
I0
F0.0
I0
F0.0
I451
I1
I423
tp423
a(I424
I52725
I52725
F0.13
I0
F0.0
I0
F0.0
I0
F0.0
I452
I0
I424
tp424
a(I425
I53225
I53225
F0.13
I0
F0.0
I0
F0.0
I0
F0.0
I453
I0
I425
tp425
a(I426
I53725
I53725
F0.13
I0
F0.0
I0
F0.0
I0
F0.0
I454
I0
I426
tp426
a(I427
I54225
I54225
F0.13
I0
F0.0
I0
F0.0
I0
F0.0
I455
I0
I427
tp427
a(I428
I54725
I54725
F0.12
I0
F0.0
I0
F0.0
I0
F0.0
I456
I0
I428
tp428
a(I429
I55225
I55225
F0.12
I0
F0.0
I0
F0.0
I0
F0.0
I457
I0
I429
tp429
a(I430
I55725
I55725
F0.12
I0
F0.0
I0
F0.0
I0
F0.0
I458
I0
I430
tp430
a(I431
I56225
I56225
F0.11
I0
F0.0
I0
F0.0
I0
F0.0
I459
I0
I431
tp431
a(I432
I56725
I56725
F0.1
I0
F0.0
I0
F0.0
I0
F0.0
I460
I0
I432
tp432
a(I433
I57225
I57225
F0.1
I0
F0.0
I0
F0.0
I0
F0.0
I461
I0
I433
tp433
a(I434
I57725
I57725
F0.1
I0
F0.0
I0
F0.0
I0
F0.0
I462
I0
I434
tp434
a(I435
I58225
I58225
F0.1
I0
F0.0
I0
F0.0
I0
F0.0
I463
I0
I435
tp435
a(I436
I58725
I58725
F0.09
I0
F0.0
I0
F0.0
I0
F0.0
I464
I0
I436
tp436
a(I437
I59225
I59225
F0.09
I0
F0.0
I0
F0.0
I0
F0.0
I465
I0
I437
tp437
a(I438
I59725
I59725
F0.09
I0
F0.0
I0
F0.0
I0
F0.0
I466
I0
I438
tp438
a(I439
I60225
I60225
F0.08
I0
F0.0
I0
F0.0
I0
F0.0
I467
I0
I439
tp439
a(I440
I60725
I60725
F0.08
I0
F0.0
I0
F0.0
I0
F0.0
I468
I0
I440
tp440
a(I441
I61225
I61225
F0.08
I0
F0.0
I0
F0.0
I0
F0.0
I469
I0
I441
tp441
a(I442
I61345
I61345
F0.07
I0
F0.0
I0
F0.0
I0
F0.0
I470
I0
I442
tp442
a(I443
I61845
I61845
F0.07
I0
F0.0
I0
F0.0
I0
F0.0
I471
I0
I443
tp443
a(I444
I62345
I62345
F0.06
I0
F0.0
I0
F0.0
I0
F0.0
I472
I0
I444
tp444
a(I445
I62845
I62845
F0.06
I0
F0.0
I0
F0.0
I0
F0.0
I473
I0
I445
tp445
a(I446
I63345
I63345
F0.06
I0
F0.0
I0
F0.0
I0
F0.0
I474
I0
I446
tp446
a(I447
I63845
I63845
F0.06
I0
F0.0
I0
F0.0
I0
F0.0
I475
I0
I447
tp447
a(I448
I64345
I64345
F0.06
I0
F0.0
I0
F0.0
I0
F0.0
I476
I0
I448
tp448
a(I449
I64845
I64845
F0.05
I0
F0.0
I0
F0.0
I0
F0.0
I477
I0
I449
tp449
a(I450
I65345
I65345
F0.04
I0
F0.0
I0
F0.0
I0
F0.0
I478
I0
I450
tp450
a(I451
I65845
I65845
F0.03
I0
F0.0
I0
F0.0
I0
F0.0
I479
I0
I451
tp451
a(I452
I66062
I66062
F0.03
I0
F0.0
I0
F0.0
I0
F0.0
I480
I0
I452
tp452
a(I453
I66562
I66562
F0.03
I0
F0.0
I0
F0.0
I0
F0.0
I481
I0
I453
tp453
a(I454
I67062
I67062
F0.03
I0
F0.0
I0
F0.0
I0
F0.0
I482
I0
I454
tp454
a(I455
I67562
I67562
F0.03
I0
F0.0
I0
F0.0
I0
F0.0
I483
I0
I455
tp455
a(I456
I68062
I68062
F0.03
I0
F0.0
I0
F0.0
I0
F0.0
I484
I0
I456
tp456
a(I457
I68562
I68562
F0.02
I0
F0.0
I0
F0.0
I0
F0.0
I485
I0
I457
tp457
a(I458
I69062
I69062
F0.01
I0
F0.0
I0
F0.0
I0
F0.0
I486
I0
I458
tp458
a(I459
I69562
I69562
F0.01
I0
F0.0
I0
F0.0
I0
F0.0
I487
I0
I459
tp459
a(I460
I70062
I70062
F0.01
I0
F0.0
I0
F0.0
I0
F0.0
I488
I0
I460
tp460
a(I461
I70562
I70562
F0.01
I0
F0.0
I0
F0.0
I0
F0.0
I489
I0
I461
tp461
a(I462
I71062
I71062
F0.01
I0
F0.0
I0
F0.0
I0
F0.0
I490
I0
I462
tp462
a(I463
I71562
I71562
F0.01
I0
F0.0
I0
F0.0
I0
F0.0
I491
I0
I463
tp463
a(I464
I72062
I72062
F0.01
I0
F0.0
I0
F0.0
I0
F0.0
I492
I0
I464
tp464
a(I465
I72562
I72562
F0.01
I0
F0.0
I0
F0.0
I0
F0.0
I493
I0
I465
tp465
a(I466
I73062
I73062
F0.01
I0
F0.0
I0
F0.0
I0
F0.0
I494
I0
I466
tp466
a(I467
I73562
I73562
F0.01
I0
F0.0
I0
F0.0
I0
F0.0
I495
I0
I467
tp467
a(I468
I74062
I74062
F0.01
I0
F0.0
I0
F0.0
I0
F0.0
I496
I0
I468
tp468
a(I469
I74562
I74562
F0.01
I0
F0.0
I0
F0.0
I0
F0.0
I497
I0
I469
tp469
a(I470
I75062
I75062
F0.01
I0
F0.0
I0
F0.0
I0
F0.0
I498
I0
I470
tp470
a(I471
I75562
I75562
F0.01
I0
F0.0
I0
F0.0
I0
F0.0
I499
I0
I471
tp471
a(I472
I76062
I76062
F0.01
I0
F0.0
I0
F0.0
I0
F0.0
I500
I0
I472
tp472
a(I473
I76562
I76562
F0.01
I0
F0.0
I0
F0.0
I0
F0.0
I501
I0
I473
tp473
a(I474
I77062
I77062
F0.01
I0
F0.0
I0
F0.0
I0
F0.0
I502
I0
I474
tp474
a(I475
I77562
I77562
F0.01
I0
F0.0
I0
F0.0
I0
F0.0
I503
I0
I475
tp475
a(I476
I78062
I78062
F0.01
I0
F0.0
I0
F0.0
I0
F0.0
I504
I0
I476
tp476
a(I477
I78562
I78562
F0.01
I0
F0.0
I0
F0.0
I0
F0.0
I505
I0
I477
tp477
a(I478
I79062
I79062
F0.01
I0
F0.0
I0
F0.0
I0
F0.0
I506
I0
I478
tp478
a(I479
I79562
I79562
F0.01
I0
F0.0
I0
F0.0
I0
F0.0
I507
I0
I479
tp479
a(I480
I79818
I79818
F0.01
I0
F0.0
I0
F0.0
I0
F0.0
I508
I0
I480
tp480
a(I481
I79869
I79869
F0.01
I0
F0.0
I0
F0.0
I0
F0.0
I509
I0
I481
tp481
a(I482
I79907
I79907
F0.01
I0
F0.0
I0
F0.0
I0
F0.0
I510
I0
I482
tp482
a(I483
I80033
I80033
F0.01
I0
F0.0
I0
F0.0
I0
F0.0
I511
I0
I483
tp483
a(I484
I80533
I80533
F0.01
I0
F0.0
I0
F0.0
I0
F0.0
I512
I0
I484
tp484
a(I485
I81033
I81033
F0.01
I0
F0.0
I0
F0.0
I0
F0.0
I513
I0
I485
tp485
a(I486
I81533
I81533
F0.01
I0
F0.0
I0
F0.0
I0
F0.0
I514
I0
I486
tp486
a(I487
I81591
I81591
F0.01
I0
F0.0
I0
F0.0
I0
F0.0
I515
I0
I487
tp487
a(I488
I82091
I82091
F0.01
I0
F0.0
I0
F0.0
I0
F0.0
I516
I0
I488
tp488
a(I489
I82591
I82591
F0.01
I0
F0.0
I0
F0.0
I0
F0.0
I517
I0
I489
tp489
a(I490
I83091
I83091
F0.01
I0
F0.0
I0
F0.0
I0
F0.0
I518
I0
I490
tp490
a(I491
I83591
I83591
F0.01
I0
F0.0
I0
F0.0
I0
F0.0
I519
I0
I491
tp491
a(I492
I83758
I83758
F0.01
I0
F0.0
I0
F0.0
I0
F0.0
I520
I0
I492
tp492
a(I493
I84258
I84258
F0.01
I0
F0.0
I0
F0.0
I0
F0.0
I521
I0
I493
tp493
a(I494
I84758
I84758
F0.01
I0
F0.0
I0
F0.0
I0
F0.0
I522
I0
I494
tp494
a(I495
I85258
I85258
F0.01
I0
F0.0
I0
F0.0
I0
F0.0
I523
I0
I495
tp495
a(I496
I85758
I85758
F0.01
I0
F0.0
I0
F0.0
I0
F0.0
I524
I0
I496
tp496
a(I497
I86258
I86258
F0.01
I0
F0.0
I0
F0.0
I0
F0.0
I525
I0
I497
tp497
a(I498
I86758
I86758
F0.01
I0
F0.0
I0
F0.0
I0
F0.0
I526
I0
I498
tp498
a(I499
I86792
I86792
F0.01
I0
F0.0
I0
F0.0
I0
F0.0
I527
I0
I499
tp499
a(I500
I86831
I86831
F0.01
I0
F0.0
I0
F0.0
I0
F0.0
I528
I0
I500
tp500
a(I501
I87331
I87331
F0.01
I0
F0.0
I0
F0.0
I0
F0.0
I529
I0
I501
tp501
a(I502
I87831
I87831
F0.01
I0
F0.0
I0
F0.0
I0
F0.0
I530
I0
I502
tp502
a(I503
I88331
I88331
F0.01
I0
F0.0
I0
F0.0
I0
F0.0
I531
I0
I503
tp503
a(I504
I88831
I88831
F0.01
I0
F0.0
I0
F0.0
I0
F0.0
I532
I0
I504
tp504
a(I505
I89331
I89331
F0.01
I0
F0.0
I0
F0.0
I0
F0.0
I533
I0
I505
tp505
a(I506
I89831
I89831
F0.01
I0
F0.0
I0
F0.0
I0
F0.0
I534
I0
I506
tp506
a(I507
I89867
I89867
F0.01
I0
F0.0
I0
F0.0
I0
F0.0
I535
I0
I507
tp507
a(I508
I90367
I90367
F0.01
I0
F0.0
I0
F0.0
I0
F0.0
I536
I0
I508
tp508
a(I509
I90867
I90867
F0.01
I0
F0.0
I0
F0.0
I0
F0.0
I537
I0
I509
tp509
a(I510
I91367
I91367
F0.01
I0
F0.0
I0
F0.0
I0
F0.0
I538
I0
I510
tp510
a(I511
I91533
I91533
F0.01
I0
F0.0
I0
F0.0
I0
F0.0
I539
I0
I511
tp511
a(I512
I92033
I92033
F0.01
I0
F0.0
I0
F0.0
I0
F0.0
I540
I0
I512
tp512
a(I513
I92055
I92055
F0.01
I0
F0.0
I0
F0.0
I0
F0.0
I541
I0
I513
tp513
a(I514
I92393
I92393
F0.01
I0
F0.0
I0
F0.0
I0
F0.0
I542
I0
I514
tp514
a(I515
I92549
I92549
F0.01
I0
F0.0
I0
F0.0
I0
F0.0
I543
I0
I515
tp515
a(I516
I92624
I92624
F0.01
I0
F0.0
I0
F0.0
I0
F0.0
I544
I0
I516
tp516
a(I517
I93124
I93124
F0.01
I0
F0.0
I0
F0.0
I0
F0.0
I545
I0
I517
tp517
a(I518
I93624
I93624
F0.01
I0
F0.0
I0
F0.0
I0
F0.0
I546
I0
I518
tp518
a(I519
I94124
I94124
F0.01
I0
F0.0
I0
F0.0
I0
F0.0
I547
I0
I519
tp519
a(I520
I94624
I94624
F0.01
I0
F0.0
I0
F0.0
I0
F0.0
I548
I0
I520
tp520
a(I521
I95124
I95124
F0.01
I0
F0.0
I0
F0.0
I0
F0.0
I549
I0
I521
tp521
a(I522
I95624
I95624
F0.01
I0
F0.0
I0
F0.0
I0
F0.0
I550
I0
I522
tp522
a(I523
I96124
I96124
F0.0
I0
F0.0
I0
F0.0
I0
F0.0
I551
I0
I523
tp523
a(I524
I96624
I96624
F0.0
I0
F0.0
I0
F0.0
I0
F0.0
I552
I0
I524
tp524
a(I525
I97124
I97124
F0.0
I0
F0.0
I0
F0.0
I0
F0.0
I553
I0
I525
tp525
a(I526
I97624
I97624
F0.0
I0
F0.0
I0
F0.0
I0
F0.0
I554
I0
I526
tp526
a(I527
I98124
I98124
F0.0
I0
F0.0
I0
F0.0
I0
F0.0
I555
I0
I527
tp527
a(I528
I98624
I98624
F0.0
I0
F0.0
I0
F0.0
I0
F0.0
I556
I0
I528
tp528
a(I529
I99124
I99124
F0.0
I0
F0.0
I0
F0.0
I0
F0.0
I557
I0
I529
tp529
a(I530
I99624
I99624
F0.0
I0
F0.0
I0
F0.0
I0
F0.0
I558
I0
I530
tp530
a(I531
I100124
I100124
F0.0
I0
F0.0
I0
F0.0
I0
F0.0
I559
I0
I531
tp531
a(I532
I100624
I100624
F0.0
I0
F0.0
I0
F0.0
I0
F0.0
I560
I0
I532
tp532
a(I533
I101124
I101124
F0.0
I0
F0.0
I0
F0.0
I0
F0.0
I561
I0
I533
tp533
a(I534
I101174
I101174
F0.0
I0
F0.0
I0
F0.0
I0
F0.0
I562
I0
I534
tp534
a(I535
I101674
I101674
F0.0
I0
F0.0
I0
F0.0
I0
F0.0
I563
I0
I535
tp535
a(I536
I102174
I102174
F0.0
I0
F0.0
I0
F0.0
I0
F0.0
I564
I0
I536
tp536
a(I537
I102674
I102674
F0.0
I0
F0.0
I0
F0.0
I0
F0.0
I565
I0
I537
tp537
a(I538
I103174
I103174
F0.0
I0
F0.0
I0
F0.0
I0
F0.0
I566
I0
I538
tp538
a(I539
I103674
I103674
F0.0
I0
F0.0
I0
F0.0
I0
F0.0
I567
I0
I539
tp539
a(I540
I104174
I104174
F0.0
I0
F0.0
I0
F0.0
I0
F0.0
I568
I0
I540
tp540
a(I541
I104674
I104674
F0.0
I0
F0.0
I0
F0.0
I0
F0.0
I569
I0
I541
tp541
a(I542
I105174
I105174
F0.0
I0
F0.0
I0
F0.0
I0
F0.0
I570
I0
I542
tp542
a(I543
I105674
I105674
F0.0
I0
F0.0
I0
F0.0
I0
F0.0
I571
I0
I543
tp543
a(I544
I106174
I106174
F0.0
I0
F0.0
I0
F0.0
I0
F0.0
I572
I0
I544
tp544
a(I545
I106674
I106674
F0.0
I0
F0.0
I0
F0.0
I0
F0.0
I573
I0
I545
tp545
a(I546
I106735
I106735
F0.0
I0
F0.0
I0
F0.0
I0
F0.0
I574
I0
I546
tp546
a(I547
I107235
I107235
F0.0
I0
F0.0
I0
F0.0
I0
F0.0
I575
I0
I547
tp547
a(I548
I107735
I107735
F0.0
I0
F0.0
I0
F0.0
I0
F0.0
I576
I0
I548
tp548
a(I549
I108235
I108235
F0.0
I0
F0.0
I0
F0.0
I0
F0.0
I577
I0
I549
tp549
a(I550
I108735
I108735
F0.0
I0
F0.0
I0
F0.0
I0
F0.0
I578
I0
I550
tp550
a(I551
I109235
I109235
F0.0
I0
F0.0
I0
F0.0
I0
F0.0
I579
I0
I551
tp551
a(I552
I109735
I109735
F0.0
I0
F0.0
I0
F0.0
I0
F0.0
I580
I0
I552
tp552
a(I553
I109783
I109783
F0.0
I0
F0.0
I0
F0.0
I0
F0.0
I581
I0
I553
tp553
a(I554
I110283
I110283
F0.0
I0
F0.0
I0
F0.0
I0
F0.0
I582
I0
I554
tp554
a(I555
I110783
I110783
F0.0
I0
F0.0
I0
F0.0
I0
F0.0
I583
I0
I555
tp555
a(I556
I110889
I110889
F0.0
I0
F0.0
I0
F0.0
I0
F0.0
I584
I0
I556
tp556
a(I557
I111169
I111169
F0.0
I0
F0.0
I0
F0.0
I0
F0.0
I585
I0
I557
tp557
a(I558
I111669
I111669
F0.0
I0
F0.0
I0
F0.0
I0
F0.0
I586
I0
I558
tp558
a(I559
I112169
I112169
F0.0
I0
F0.0
I0
F0.0
I0
F0.0
I587
I0
I559
tp559
a(I560
I112669
I112669
F0.0
I0
F0.0
I0
F0.0
I0
F0.0
I588
I0
I560
tp560
a(I561
I113169
I113169
F0.0
I0
F0.0
I0
F0.0
I0
F0.0
I589
I0
I561
tp561
a(I562
I113669
I113669
F0.0
I0
F0.0
I0
F0.0
I0
F0.0
I590
I0
I562
tp562
a(I563
I114169
I114169
F0.0
I0
F0.0
I0
F0.0
I0
F0.0
I591
I0
I563
tp563
a(I564
I114669
I114669
F0.0
I0
F0.0
I0
F0.0
I0
F0.0
I592
I0
I564
tp564
a(I565
I115169
I115169
F0.0
I0
F0.0
I0
F0.0
I0
F0.0
I593
I0
I565
tp565
a(I566
I115669
I115669
F0.0
I0
F0.0
I0
F0.0
I0
F0.0
I594
I0
I566
tp566
a(I567
I116169
I116169
F0.0
I0
F0.0
I0
F0.0
I0
F0.0
I595
I0
I567
tp567
a(I568
I116669
I116669
F0.0
I0
F0.0
I0
F0.0
I0
F0.0
I596
I0
I568
tp568
a(I569
I117169
I117169
F0.0
I0
F0.0
I0
F0.0
I0
F0.0
I597
I0
I569
tp569
a(I570
I117669
I117669
F0.0
I0
F0.0
I0
F0.0
I0
F0.0
I598
I0
I570
tp570
a(I571
I118169
I118169
F0.0
I0
F0.0
I0
F0.0
I0
F0.0
I599
I0
I571
tp571
a(I572
I118195
I118195
F0.0
I0
F0.0
I0
F0.0
I0
F0.0
I600
I0
I572
tp572
a(I573
I118695
I118695
F0.0
I0
F0.0
I0
F0.0
I0
F0.0
I601
I0
I573
tp573
a(I574
I119195
I119195
F0.0
I0
F0.0
I0
F0.0
I0
F0.0
I602
I0
I574
tp574
a(I575
I119695
I119695
F0.0
I0
F0.0
I0
F0.0
I0
F0.0
I603
I0
I575
tp575
a(I576
I120195
I120195
F0.0
I0
F0.0
I0
F0.0
I0
F0.0
I604
I0
I576
tp576
a(I577
I120695
I120695
F0.0
I0
F0.0
I0
F0.0
I0
F0.0
I605
I0
I577
tp577
a(I578
I121195
I121195
F0.0
I0
F0.0
I0
F0.0
I0
F0.0
I606
I0
I578
tp578
a(I579
I121695
I121695
F0.0
I0
F0.0
I0
F0.0
I0
F0.0
I607
I0
I579
tp579
a(I580
I122195
I122195
F0.0
I0
F0.0
I0
F0.0
I0
F0.0
I608
I0
I580
tp580
a(I581
I122695
I122695
F0.0
I0
F0.0
I0
F0.0
I0
F0.0
I609
I0
I581
tp581
a(I582
I122769
I122769
F0.0
I0
F0.0
I0
F0.0
I0
F0.0
I610
I0
I582
tp582
a(I583
I123269
I123269
F0.0
I0
F0.0
I0
F0.0
I0
F0.0
I611
I0
I583
tp583
a(I584
I123769
I123769
F0.0
I0
F0.0
I0
F0.0
I0
F0.0
I612
I0
I584
tp584
a(I585
I124269
I124269
F0.0
I0
F0.0
I0
F0.0
I0
F0.0
I613
I0
I585
tp585
a(I586
I124769
I124769
F0.0
I0
F0.0
I0
F0.0
I0
F0.0
I614
I0
I586
tp586
a(I587
I125269
I125269
F0.0
I0
F0.0
I0
F0.0
I0
F0.0
I615
I0
I587
tp587
a(I588
I125769
I125769
F0.0
I0
F0.0
I0
F0.0
I0
F0.0
I616
I0
I588
tp588
a(I589
I126269
I126269
F0.0
I0
F0.0
I0
F0.0
I0
F0.0
I617
I0
I589
tp589
a(I590
I126769
I126769
F0.0
I0
F0.0
I0
F0.0
I0
F0.0
I618
I0
I590
tp590
a(I591
I127269
I127269
F0.0
I0
F0.0
I0
F0.0
I0
F0.0
I619
I0
I591
tp591
a(I592
I127721
I127721
F0.0
I0
F0.0
I0
F0.0
I0
F0.0
I620
I0
I592
tp592
a(I593
I128221
I128221
F0.0
I0
F0.0
I0
F0.0
I0
F0.0
I621
I0
I593
tp593
a(I594
I128337
I128337
F0.0
I0
F0.0
I0
F0.0
I0
F0.0
I622
I0
I594
tp594
a(I595
I128837
I128837
F0.0
I0
F0.0
I0
F0.0
I0
F0.0
I623
I0
I595
tp595
a(I596
I129337
I129337
F0.0
I0
F0.0
I0
F0.0
I0
F0.0
I624
I0
I596
tp596
a(I597
I129544
I129544
F0.0
I0
F0.0
I0
F0.0
I0
F0.0
I625
I0
I597
tp597
a(I598
I130044
I130044
F0.0
I0
F0.0
I0
F0.0
I0
F0.0
I626
I0
I598
tp598
a(I599
I130544
I130544
F0.0
I0
F0.0
I0
F0.0
I0
F0.0
I627
I0
I599
tp599
a(I600
I131044
I131044
F0.0
I0
F0.0
I0
F0.0
I0
F0.0
I628
I0
I600
tp600
a.