(lp0
(I1
I0
I0
F0.0
I0
F0.0
I0
F0.0
I0
F0.0
I1
I0
I1
tp1
a(I2
I0
I0
F0.0
I0
F0.0
I0
F0.0
I0
F0.0
I2
I0
I2
tp2
a(I3
I0
I0
F0.0
I0
F0.0
I0
F0.0
I0
F0.0
I3
I0
I3
tp3
a(I4
I0
I0
F0.0
I0
F0.0
I0
F0.0
I0
F0.0
I4
I0
I4
tp4
a(I5
I0
I0
F0.0
I0
F0.0
I0
F0.0
I0
F0.0
I5
I0
I5
tp5
a(I6
I0
I0
F0.0
I0
F0.0
I0
F0.0
I0
F0.0
I6
I0
I6
tp6
a(I7
I0
I0
F0.0
I0
F0.0
I0
F0.0
I0
F0.0
I7
I0
I7
tp7
a(I8
I0
I0
F0.0
I0
F0.0
I0
F0.0
I0
F0.0
I8
I0
I8
tp8
a(I9
I0
I0
F0.0
I0
F0.0
I0
F0.0
I0
F0.0
I9
I0
I9
tp9
a(I10
I0
I0
F0.0
I0
F0.0
I0
F0.0
I0
F0.0
I10
I0
I10
tp10
a(I11
I0
I0
F0.0
I0
F0.0
I0
F0.0
I0
F0.0
I11
I0
I11
tp11
a(I12
I0
I0
F0.0
I0
F0.0
I0
F0.0
I0
F0.0
I12
I0
I12
tp12
a(I13
I0
I0
F0.0
I0
F0.0
I0
F0.0
I0
F0.0
I13
I0
I13
tp13
a(I14
I0
I0
F0.0
I0
F0.0
I0
F0.0
I0
F0.0
I14
I0
I14
tp14
a(I15
I0
I0
F0.0
I0
F0.0
I0
F0.0
I0
F0.0
I15
I0
I15
tp15
a(I16
I0
I0
F0.0
I0
F0.0
I0
F0.0
I0
F0.0
I16
I0
I16
tp16
a(I17
I0
I0
F0.0
I0
F0.0
I0
F0.0
I0
F0.0
I17
I0
I17
tp17
a(I18
I0
I0
F0.0
I0
F0.0
I0
F0.0
I0
F0.0
I18
I0
I18
tp18
a(I19
I0
I0
F0.0
I0
F0.0
I0
F0.0
I0
F0.0
I19
I0
I19
tp19
a(I20
I0
I0
F0.0
I0
F0.0
I0
F0.0
I0
F0.0
I20
I0
I20
tp20
a(I21
I0
I0
F0.0
I0
F0.0
I0
F0.0
I0
F0.0
I21
I0
I21
tp21
a(I22
I0
I0
F0.0
I0
F0.0
I0
F0.0
I0
F0.0
I22
I0
I22
tp22
a(I23
I0
I0
F0.0
I0
F0.0
I0
F0.0
I0
F0.0
I23
I0
I23
tp23
a(I24
I0
I0
F0.0
I0
F0.0
I0
F0.0
I0
F0.0
I24
I0
I24
tp24
a(I25
I0
I0
F0.0
I0
F0.0
I0
F0.0
I0
F0.0
I25
I0
I25
tp25
a(I26
I0
I0
F0.0
I0
F0.0
I0
F0.0
I0
F0.0
I26
I0
I26
tp26
a(I27
I0
I0
F0.0
I0
F0.0
I0
F0.0
I0
F0.0
I27
I0
I27
tp27
a(I28
I0
I0
F0.0
I0
F0.0
I0
F0.0
I0
F0.0
I28
I0
I28
tp28
a(I29
I0
I0
F0.0
I0
F0.0
I0
F0.0
I0
F0.0
I29
I0
I29
tp29
a(I30
I0
I0
F0.0
I0
F0.0
I0
F0.0
I0
F0.0
I30
I0
I30
tp30
a(I31
I0
I0
F0.0
I0
F0.0
I0
F0.0
I0
F0.0
I31
I0
I31
tp31
a(I32
I0
I0
F0.0
I0
F0.0
I0
F0.0
I0
F0.0
I32
I0
I32
tp32
a(I33
I0
I0
F0.0
I0
F0.0
I0
F0.0
I0
F0.0
I33
I0
I33
tp33
a(I34
I0
I0
F0.0
I0
F0.0
I0
F0.0
I0
F0.0
I34
I0
I34
tp34
a(I35
I0
I0
F0.0
I0
F0.0
I0
F0.0
I0
F0.0
I35
I0
I35
tp35
a(I36
I0
I0
F0.0
I0
F0.0
I0
F0.0
I0
F0.0
I36
I0
I36
tp36
a(I37
I0
I0
F0.0
I0
F0.0
I0
F0.0
I0
F0.0
I37
I0
I37
tp37
a(I38
I0
I0
F0.0
I0
F0.0
I0
F0.0
I0
F0.0
I38
I0
I38
tp38
a(I39
I0
I0
F0.0
I0
F0.0
I0
F0.0
I0
F0.0
I39
I0
I39
tp39
a(I40
I0
I0
F0.0
I0
F0.0
I0
F0.0
I0
F0.0
I40
I0
I40
tp40
a(I41
I0
I0
F0.0
I0
F0.0
I0
F0.0
I0
F0.0
I41
I0
I41
tp41
a(I42
I0
I0
F0.0
I0
F0.0
I0
F0.0
I0
F0.0
I42
I0
I42
tp42
a(I43
I0
I0
F0.0
I0
F0.0
I0
F0.0
I0
F0.0
I43
I0
I43
tp43
a(I44
I0
I0
F0.0
I0
F0.0
I0
F0.0
I0
F0.0
I44
I0
I44
tp44
a(I45
I0
I0
F0.0
I0
F0.0
I0
F0.0
I0
F0.0
I45
I0
I45
tp45
a(I46
I0
I0
F0.0
I0
F0.0
I0
F0.0
I0
F0.0
I46
I0
I46
tp46
a(I47
I0
I0
F0.0
I0
F0.0
I0
F0.0
I0
F0.0
I47
I0
I47
tp47
a(I48
I0
I0
F0.0
I0
F0.0
I0
F0.0
I0
F0.0
I48
I0
I48
tp48
a(I49
I0
I0
F0.0
I0
F0.0
I0
F0.0
I0
F0.0
I49
I0
I49
tp49
a(I50
I0
I0
F0.0
I0
F0.0
I0
F0.0
I0
F0.0
I50
I0
I50
tp50
a(I51
I0
I0
F0.0
I0
F0.0
I0
F0.0
I0
F0.0
I51
I0
I51
tp51
a(I52
I0
I0
F0.0
I0
F0.0
I0
F0.0
I0
F0.0
I52
I0
I52
tp52
a(I53
I0
I0
F0.0
I0
F0.0
I0
F0.0
I0
F0.0
I53
I0
I53
tp53
a(I54
I0
I0
F0.0
I0
F0.0
I0
F0.0
I0
F0.0
I54
I0
I54
tp54
a(I55
I0
I0
F0.0
I0
F0.0
I0
F0.0
I0
F0.0
I55
I0
I55
tp55
a(I56
I0
I0
F0.0
I0
F0.0
I0
F0.0
I0
F0.0
I56
I0
I56
tp56
a(I57
I0
I0
F0.0
I0
F0.0
I0
F0.0
I0
F0.0
I57
I0
I57
tp57
a(I58
I0
I0
F0.0
I0
F0.0
I0
F0.0
I0
F0.0
I58
I0
I58
tp58
a(I59
I0
I0
F0.0
I0
F0.0
I0
F0.0
I0
F0.0
I59
I0
I59
tp59
a(I60
I0
I0
F0.0
I0
F0.0
I0
F0.0
I0
F0.0
I60
I0
I60
tp60
a(I61
I0
I0
F0.0
I0
F0.0
I0
F0.0
I0
F0.0
I61
I0
I61
tp61
a(I62
I0
I0
F0.0
I0
F0.0
I0
F0.0
I0
F0.0
I62
I0
I62
tp62
a(I63
I0
I0
F0.0
I0
F0.0
I0
F0.0
I0
F0.0
I63
I0
I63
tp63
a(I64
I0
I0
F0.0
I0
F0.0
I0
F0.0
I0
F0.0
I64
I0
I64
tp64
a(I65
I0
I0
F0.0
I0
F0.0
I0
F0.0
I0
F0.0
I65
I0
I65
tp65
a(I66
I0
I0
F0.0
I0
F0.0
I0
F0.0
I0
F0.0
I66
I0
I66
tp66
a(I67
I0
I0
F0.0
I0
F0.0
I0
F0.0
I0
F0.0
I67
I0
I67
tp67
a(I68
I0
I0
F0.0
I0
F0.0
I0
F0.0
I0
F0.0
I68
I0
I68
tp68
a(I69
I0
I0
F0.0
I0
F0.0
I0
F0.0
I0
F0.0
I69
I0
I69
tp69
a(I70
I0
I0
F0.0
I0
F0.0
I0
F0.0
I0
F0.0
I70
I0
I70
tp70
a(I71
I0
I0
F0.0
I0
F0.0
I0
F0.0
I0
F0.0
I71
I0
I71
tp71
a(I72
I0
I0
F0.0
I0
F0.0
I0
F0.0
I0
F0.0
I72
I0
I72
tp72
a(I73
I0
I0
F0.0
I0
F0.0
I0
F0.0
I0
F0.0
I73
I0
I73
tp73
a(I74
I0
I0
F0.0
I0
F0.0
I0
F0.0
I0
F0.0
I74
I0
I74
tp74
a(I75
I0
I0
F0.0
I0
F0.0
I0
F0.0
I0
F0.0
I75
I0
I75
tp75
a(I76
I0
I0
F0.0
I0
F0.0
I0
F0.0
I0
F0.0
I76
I0
I76
tp76
a(I77
I0
I0
F0.0
I0
F0.0
I0
F0.0
I0
F0.0
I77
I0
I77
tp77
a(I78
I0
I0
F0.0
I0
F0.0
I0
F0.0
I0
F0.0
I78
I0
I78
tp78
a(I79
I0
I0
F0.0
I0
F0.0
I0
F0.0
I0
F0.0
I79
I0
I79
tp79
a(I80
I0
I0
F0.0
I0
F0.0
I0
F0.0
I0
F0.0
I80
I0
I80
tp80
a(I81
I0
I0
F0.0
I0
F0.0
I0
F0.0
I0
F0.0
I81
I0
I81
tp81
a(I82
I0
I0
F0.0
I0
F0.0
I0
F0.0
I0
F0.0
I82
I0
I82
tp82
a(I83
I0
I0
F0.0
I0
F0.0
I0
F0.0
I0
F0.0
I83
I0
I83
tp83
a(I84
I0
I0
F0.0
I0
F0.0
I0
F0.0
I0
F0.0
I84
I0
I84
tp84
a(I85
I0
I0
F0.0
I0
F0.0
I0
F0.0
I0
F0.0
I85
I0
I85
tp85
a(I86
I0
I0
F0.0
I0
F0.0
I0
F0.0
I0
F0.0
I86
I0
I86
tp86
a(I87
I0
I0
F0.0
I0
F0.0
I0
F0.0
I0
F0.0
I87
I0
I87
tp87
a(I88
I0
I0
F0.0
I0
F0.0
I0
F0.0
I0
F0.0
I88
I0
I88
tp88
a(I89
I0
I0
F0.0
I0
F0.0
I0
F0.0
I0
F0.0
I89
I0
I89
tp89
a(I90
I0
I0
F0.0
I0
F0.0
I0
F0.0
I0
F0.0
I90
I0
I90
tp90
a(I91
I0
I0
F0.0
I0
F0.0
I0
F0.0
I0
F0.0
I91
I0
I91
tp91
a(I92
I0
I0
F0.0
I0
F0.0
I0
F0.0
I0
F0.0
I92
I0
I92
tp92
a(I93
I0
I0
F0.0
I0
F0.0
I0
F0.0
I0
F0.0
I93
I0
I93
tp93
a(I94
I0
I0
F0.0
I0
F0.0
I0
F0.0
I0
F0.0
I94
I0
I94
tp94
a(I95
I0
I0
F0.0
I0
F0.0
I0
F0.0
I0
F0.0
I95
I0
I95
tp95
a(I96
I0
I0
F0.0
I0
F0.0
I0
F0.0
I0
F0.0
I96
I0
I96
tp96
a(I97
I0
I0
F0.0
I0
F0.0
I0
F0.0
I0
F0.0
I97
I0
I97
tp97
a(I98
I0
I0
F0.0
I0
F0.0
I0
F0.0
I0
F0.0
I98
I0
I98
tp98
a(I99
I0
I0
F0.0
I0
F0.0
I0
F0.0
I0
F0.0
I99
I0
I99
tp99
a(I100
I0
I0
F0.0
I0
F0.0
I0
F0.0
I0
F0.0
I100
I0
I100
tp100
a(I101
I0
I0
F0.0
I0
F0.0
I0
F0.0
I0
F0.0
I102
I1
I101
tp101
a(I102
I0
I0
F0.0
I0
F0.0
I0
F0.0
I0
F0.0
I104
I1
I102
tp102
a(I103
I0
I0
F0.0
I0
F0.0
I0
F0.0
I0
F0.0
I106
I1
I103
tp103
a(I104
I0
I0
F0.0
I0
F0.0
I0
F0.0
I0
F0.0
I108
I1
I104
tp104
a(I105
I0
I0
F0.0
I0
F0.0
I0
F0.0
I0
F0.0
I110
I1
I105
tp105
a(I106
I0
I0
F0.0
I0
F0.0
I0
F0.0
I0
F0.0
I112
I1
I106
tp106
a(I107
I0
I0
F0.0
I0
F0.0
I0
F0.0
I0
F0.0
I114
I1
I107
tp107
a(I108
I0
I0
F0.0
I0
F0.0
I0
F0.0
I0
F0.0
I116
I1
I108
tp108
a(I109
I0
I0
F0.0
I0
F0.0
I0
F0.0
I0
F0.0
I118
I1
I109
tp109
a(I110
I0
I0
F0.0
I0
F0.0
I0
F0.0
I0
F0.0
I120
I1
I110
tp110
a(I111
I0
I0
F0.0
I0
F0.0
I0
F0.0
I0
F0.0
I122
I1
I111
tp111
a(I112
I0
I0
F0.0
I0
F0.0
I0
F0.0
I0
F0.0
I124
I1
I112
tp112
a(I113
I0
I0
F0.0
I0
F0.0
I0
F0.0
I0
F0.0
I126
I1
I113
tp113
a(I114
I0
I0
F0.0
I0
F0.0
I0
F0.0
I0
F0.0
I128
I1
I114
tp114
a(I115
I0
I0
F0.0
I0
F0.0
I0
F0.0
I0
F0.0
I130
I1
I115
tp115
a(I116
I0
I0
F0.0
I0
F0.0
I0
F0.0
I0
F0.0
I132
I1
I116
tp116
a(I117
I0
I0
F0.0
I0
F0.0
I0
F0.0
I0
F0.0
I134
I1
I117
tp117
a(I118
I0
I0
F0.0
I0
F0.0
I0
F0.0
I0
F0.0
I136
I1
I118
tp118
a(I119
I0
I0
F0.0
I0
F0.0
I0
F0.0
I0
F0.0
I138
I1
I119
tp119
a(I120
I0
I0
F0.0
I0
F0.0
I0
F0.0
I0
F0.0
I140
I1
I120
tp120
a(I121
I0
I0
F0.0
I0
F0.0
I0
F0.0
I0
F0.0
I142
I1
I121
tp121
a(I122
I0
I0
F0.0
I0
F0.0
I0
F0.0
I0
F0.0
I144
I1
I122
tp122
a(I123
I0
I0
F0.0
I0
F0.0
I0
F0.0
I0
F0.0
I146
I1
I123
tp123
a(I124
I0
I0
F0.0
I0
F0.0
I0
F0.0
I0
F0.0
I148
I1
I124
tp124
a(I125
I0
I0
F0.0
I0
F0.0
I0
F0.0
I0
F0.0
I150
I1
I125
tp125
a(I126
I0
I0
F0.0
I0
F0.0
I0
F0.0
I0
F0.0
I152
I1
I126
tp126
a(I127
I0
I0
F0.0
I0
F0.0
I0
F0.0
I0
F0.0
I154
I1
I127
tp127
a(I128
I0
I0
F0.0
I0
F0.0
I0
F0.0
I0
F0.0
I156
I1
I128
tp128
a(I129
I0
I0
F0.0
I0
F0.0
I0
F0.0
I0
F0.0
I158
I1
I129
tp129
a(I130
I0
I0
F0.0
I0
F0.0
I0
F0.0
I0
F0.0
I160
I1
I130
tp130
a(I131
I0
I0
F0.0
I0
F0.0
I0
F0.0
I0
F0.0
I162
I1
I131
tp131
a(I132
I0
I0
F0.0
I0
F0.0
I0
F0.0
I0
F0.0
I164
I1
I132
tp132
a(I133
I0
I0
F0.0
I0
F0.0
I0
F0.0
I0
F0.0
I166
I1
I133
tp133
a(I134
I0
I0
F0.0
I0
F0.0
I0
F0.0
I0
F0.0
I168
I1
I134
tp134
a(I135
I0
I0
F0.0
I0
F0.0
I0
F0.0
I0
F0.0
I170
I1
I135
tp135
a(I136
I0
I0
F0.0
I0
F0.0
I0
F0.0
I0
F0.0
I172
I1
I136
tp136
a(I137
I0
I0
F0.0
I0
F0.0
I0
F0.0
I0
F0.0
I174
I1
I137
tp137
a(I138
I0
I0
F0.0
I0
F0.0
I0
F0.0
I0
F0.0
I176
I1
I138
tp138
a(I139
I0
I0
F0.0
I0
F0.0
I0
F0.0
I0
F0.0
I178
I1
I139
tp139
a(I140
I0
I0
F0.0
I0
F0.0
I0
F0.0
I0
F0.0
I180
I1
I140
tp140
a(I141
I0
I0
F0.0
I0
F0.0
I0
F0.0
I0
F0.0
I182
I1
I141
tp141
a(I142
I0
I0
F0.0
I0
F0.0
I0
F0.0
I0
F0.0
I184
I1
I142
tp142
a(I143
I0
I0
F0.0
I0
F0.0
I0
F0.0
I0
F0.0
I186
I1
I143
tp143
a(I144
I0
I0
F0.0
I0
F0.0
I0
F0.0
I0
F0.0
I188
I1
I144
tp144
a(I145
I0
I0
F0.0
I0
F0.0
I0
F0.0
I0
F0.0
I190
I1
I145
tp145
a(I146
I0
I0
F0.0
I0
F0.0
I0
F0.0
I0
F0.0
I192
I1
I146
tp146
a(I147
I0
I0
F0.0
I0
F0.0
I0
F0.0
I0
F0.0
I194
I1
I147
tp147
a(I148
I0
I0
F0.0
I0
F0.0
I0
F0.0
I0
F0.0
I196
I1
I148
tp148
a(I149
I0
I0
F0.0
I0
F0.0
I0
F0.0
I0
F0.0
I198
I1
I149
tp149
a(I150
I0
I0
F0.0
I0
F0.0
I0
F0.0
I0
F0.0
I200
I1
I150
tp150
a(I151
I0
I0
F0.0
I0
F0.0
I0
F0.0
I0
F0.0
I202
I1
I151
tp151
a(I152
I0
I0
F0.0
I0
F0.0
I0
F0.0
I0
F0.0
I204
I1
I152
tp152
a(I153
I0
I0
F0.0
I0
F0.0
I0
F0.0
I0
F0.0
I206
I1
I153
tp153
a(I154
I0
I0
F0.0
I0
F0.0
I0
F0.0
I0
F0.0
I208
I1
I154
tp154
a(I155
I0
I0
F0.0
I0
F0.0
I0
F0.0
I0
F0.0
I210
I1
I155
tp155
a(I156
I0
I0
F0.0
I0
F0.0
I0
F0.0
I0
F0.0
I212
I1
I156
tp156
a(I157
I0
I0
F0.0
I0
F0.0
I0
F0.0
I0
F0.0
I214
I1
I157
tp157
a(I158
I0
I0
F0.0
I0
F0.0
I0
F0.0
I0
F0.0
I216
I1
I158
tp158
a(I159
I0
I0
F0.0
I0
F0.0
I0
F0.0
I0
F0.0
I218
I1
I159
tp159
a(I160
I0
I0
F0.0
I0
F0.0
I0
F0.0
I0
F0.0
I220
I1
I160
tp160
a(I161
I0
I0
F0.0
I0
F0.0
I0
F0.0
I0
F0.0
I222
I1
I161
tp161
a(I162
I0
I0
F0.0
I0
F0.0
I0
F0.0
I0
F0.0
I224
I1
I162
tp162
a(I163
I0
I0
F0.0
I0
F0.0
I0
F0.0
I0
F0.0
I226
I1
I163
tp163
a(I164
I0
I0
F0.0
I0
F0.0
I0
F0.0
I0
F0.0
I228
I1
I164
tp164
a(I165
I0
I0
F0.0
I0
F0.0
I0
F0.0
I0
F0.0
I230
I1
I165
tp165
a(I166
I0
I0
F0.0
I0
F0.0
I0
F0.0
I0
F0.0
I232
I1
I166
tp166
a(I167
I0
I0
F0.0
I0
F0.0
I0
F0.0
I0
F0.0
I234
I1
I167
tp167
a(I168
I0
I0
F0.0
I0
F0.0
I0
F0.0
I0
F0.0
I236
I1
I168
tp168
a(I169
I0
I0
F0.0
I0
F0.0
I0
F0.0
I0
F0.0
I238
I1
I169
tp169
a(I170
I0
I0
F0.0
I0
F0.0
I0
F0.0
I0
F0.0
I240
I1
I170
tp170
a(I171
I0
I0
F0.0
I0
F0.0
I0
F0.0
I0
F0.0
I242
I1
I171
tp171
a(I172
I0
I0
F0.0
I0
F0.0
I0
F0.0
I0
F0.0
I244
I1
I172
tp172
a(I173
I0
I0
F0.0
I0
F0.0
I0
F0.0
I0
F0.0
I246
I1
I173
tp173
a(I174
I0
I0
F0.0
I0
F0.0
I0
F0.0
I0
F0.0
I248
I1
I174
tp174
a(I175
I0
I0
F0.0
I0
F0.0
I0
F0.0
I0
F0.0
I250
I1
I175
tp175
a(I176
I0
I0
F0.0
I0
F0.0
I0
F0.0
I0
F0.0
I252
I1
I176
tp176
a(I177
I0
I0
F0.0
I0
F0.0
I0
F0.0
I0
F0.0
I254
I1
I177
tp177
a(I178
I0
I0
F0.0
I0
F0.0
I0
F0.0
I0
F0.0
I256
I1
I178
tp178
a(I179
I0
I0
F0.0
I0
F0.0
I0
F0.0
I0
F0.0
I258
I1
I179
tp179
a(I180
I0
I0
F0.0
I0
F0.0
I0
F0.0
I0
F0.0
I260
I1
I180
tp180
a(I181
I0
I0
F0.0
I0
F0.0
I0
F0.0
I0
F0.0
I262
I1
I181
tp181
a(I182
I0
I0
F0.0
I0
F0.0
I0
F0.0
I0
F0.0
I264
I1
I182
tp182
a(I183
I0
I0
F0.0
I0
F0.0
I0
F0.0
I0
F0.0
I266
I1
I183
tp183
a(I184
I0
I0
F0.0
I0
F0.0
I0
F0.0
I0
F0.0
I268
I1
I184
tp184
a(I185
I0
I0
F0.0
I0
F0.0
I0
F0.0
I0
F0.0
I270
I1
I185
tp185
a(I186
I0
I0
F0.0
I0
F0.0
I0
F0.0
I0
F0.0
I272
I1
I186
tp186
a(I187
I0
I0
F0.0
I0
F0.0
I0
F0.0
I0
F0.0
I274
I1
I187
tp187
a(I188
I0
I0
F0.0
I0
F0.0
I0
F0.0
I0
F0.0
I276
I1
I188
tp188
a(I189
I0
I0
F0.0
I0
F0.0
I0
F0.0
I0
F0.0
I278
I1
I189
tp189
a(I190
I0
I0
F0.0
I0
F0.0
I0
F0.0
I0
F0.0
I280
I1
I190
tp190
a(I191
I0
I0
F0.0
I0
F0.0
I0
F0.0
I0
F0.0
I282
I1
I191
tp191
a(I192
I0
I0
F0.0
I0
F0.0
I0
F0.0
I0
F0.0
I284
I1
I192
tp192
a(I193
I0
I0
F0.0
I0
F0.0
I0
F0.0
I0
F0.0
I286
I1
I193
tp193
a(I194
I0
I0
F0.0
I0
F0.0
I0
F0.0
I0
F0.0
I288
I1
I194
tp194
a(I195
I0
I0
F0.0
I0
F0.0
I0
F0.0
I0
F0.0
I290
I1
I195
tp195
a(I196
I0
I0
F0.0
I0
F0.0
I0
F0.0
I0
F0.0
I292
I1
I196
tp196
a(I197
I0
I0
F0.0
I0
F0.0
I0
F0.0
I0
F0.0
I294
I1
I197
tp197
a(I198
I0
I0
F0.0
I0
F0.0
I0
F0.0
I0
F0.0
I296
I1
I198
tp198
a(I199
I0
I0
F0.0
I0
F0.0
I0
F0.0
I0
F0.0
I298
I1
I199
tp199
a(I200
I0
I0
F0.0
I0
F0.0
I0
F0.0
I0
F0.0
I300
I1
I200
tp200
a(I201
I0
I0
F1.0
I0
F0.0
I0
F0.0
I0
F0.0
I302
I1
I201
tp201
a(I202
I0
I0
F1.0
I0
F0.0
I0
F0.0
I0
F0.0
I304
I1
I202
tp202
a(I203
I0
I0
F1.0
I0
F0.0
I0
F0.0
I0
F0.0
I306
I1
I203
tp203
a(I204
I0
I0
F1.0
I0
F0.0
I0
F0.0
I0
F0.0
I308
I1
I204
tp204
a(I205
I0
I0
F1.0
I0
F0.0
I0
F0.0
I0
F0.0
I310
I1
I205
tp205
a(I206
I0
I0
F1.0
I0
F0.0
I0
F0.0
I0
F0.0
I312
I1
I206
tp206
a(I207
I0
I0
F1.0
I0
F0.0
I0
F0.0
I0
F0.0
I314
I1
I207
tp207
a(I208
I0
I0
F1.0
I0
F0.0
I0
F0.0
I0
F0.0
I316
I1
I208
tp208
a(I209
I0
I0
F1.0
I0
F0.0
I0
F0.0
I0
F0.0
I318
I1
I209
tp209
a(I210
I0
I0
F1.0
I0
F0.0
I0
F0.0
I0
F0.0
I320
I1
I210
tp210
a(I211
I0
I0
F1.0
I0
F0.0
I0
F0.0
I0
F0.0
I322
I1
I211
tp211
a(I212
I0
I0
F1.0
I0
F0.0
I0
F0.0
I0
F0.0
I324
I1
I212
tp212
a(I213
I0
I0
F1.0
I0
F0.0
I0
F0.0
I0
F0.0
I326
I1
I213
tp213
a(I214
I0
I0
F1.0
I0
F0.0
I0
F0.0
I0
F0.0
I328
I1
I214
tp214
a(I215
I0
I0
F1.0
I0
F0.0
I0
F0.0
I0
F0.0
I330
I1
I215
tp215
a(I216
I0
I0
F1.0
I0
F0.0
I0
F0.0
I0
F0.0
I332
I1
I216
tp216
a(I217
I0
I0
F1.0
I0
F0.0
I0
F0.0
I0
F0.0
I334
I1
I217
tp217
a(I218
I0
I0
F1.0
I0
F0.0
I0
F0.0
I0
F0.0
I336
I1
I218
tp218
a(I219
I0
I0
F1.0
I0
F0.0
I0
F0.0
I0
F0.0
I338
I1
I219
tp219
a(I220
I0
I0
F1.0
I0
F0.0
I0
F0.0
I0
F0.0
I340
I1
I220
tp220
a(I221
I0
I0
F1.0
I0
F0.0
I0
F0.0
I0
F0.0
I342
I1
I221
tp221
a(I222
I0
I0
F1.0
I0
F0.0
I0
F0.0
I0
F0.0
I344
I1
I222
tp222
a(I223
I0
I0
F1.0
I0
F0.0
I0
F0.0
I0
F0.0
I346
I1
I223
tp223
a(I224
I0
I0
F1.0
I0
F0.0
I0
F0.0
I0
F0.0
I348
I1
I224
tp224
a(I225
I0
I0
F1.0
I0
F0.0
I0
F0.0
I0
F0.0
I350
I1
I225
tp225
a(I226
I0
I0
F1.0
I0
F0.0
I0
F0.0
I0
F0.0
I352
I1
I226
tp226
a(I227
I0
I0
F1.0
I0
F0.0
I0
F0.0
I0
F0.0
I354
I1
I227
tp227
a(I228
I0
I0
F1.0
I0
F0.0
I0
F0.0
I0
F0.0
I356
I1
I228
tp228
a(I229
I0
I0
F1.0
I0
F0.0
I0
F0.0
I0
F0.0
I358
I1
I229
tp229
a(I230
I0
I0
F1.0
I0
F0.0
I0
F0.0
I0
F0.0
I360
I1
I230
tp230
a(I231
I0
I0
F1.0
I0
F0.0
I0
F0.0
I0
F0.0
I362
I1
I231
tp231
a(I232
I0
I0
F1.0
I0
F0.0
I0
F0.0
I0
F0.0
I364
I1
I232
tp232
a(I233
I0
I0
F1.0
I0
F0.0
I0
F0.0
I0
F0.0
I366
I1
I233
tp233
a(I234
I0
I0
F1.0
I0
F0.0
I0
F0.0
I0
F0.0
I368
I1
I234
tp234
a(I235
I0
I0
F1.0
I0
F0.0
I0
F0.0
I0
F0.0
I370
I1
I235
tp235
a(I236
I0
I0
F1.0
I0
F0.0
I0
F0.0
I0
F0.0
I372
I1
I236
tp236
a(I237
I0
I0
F1.0
I0
F0.0
I0
F0.0
I0
F0.0
I374
I1
I237
tp237
a(I238
I0
I0
F1.0
I0
F0.0
I0
F0.0
I0
F0.0
I376
I1
I238
tp238
a(I239
I0
I0
F1.0
I0
F0.0
I0
F0.0
I0
F0.0
I378
I1
I239
tp239
a(I240
I0
I0
F1.0
I0
F0.0
I0
F0.0
I0
F0.0
I380
I1
I240
tp240
a(I241
I0
I0
F1.0
I0
F0.0
I0
F0.0
I0
F0.0
I382
I1
I241
tp241
a(I242
I0
I0
F1.0
I0
F0.0
I0
F0.0
I0
F0.0
I384
I1
I242
tp242
a(I243
I0
I0
F1.0
I0
F0.0
I0
F0.0
I0
F0.0
I386
I1
I243
tp243
a(I244
I0
I0
F1.0
I0
F0.0
I0
F0.0
I0
F0.0
I388
I1
I244
tp244
a(I245
I0
I0
F1.0
I0
F0.0
I0
F0.0
I0
F0.0
I390
I1
I245
tp245
a(I246
I0
I0
F1.0
I0
F0.0
I0
F0.0
I0
F0.0
I392
I1
I246
tp246
a(I247
I0
I0
F1.0
I0
F0.0
I0
F0.0
I0
F0.0
I394
I1
I247
tp247
a(I248
I0
I0
F1.0
I0
F0.0
I0
F0.0
I0
F0.0
I396
I1
I248
tp248
a(I249
I0
I0
F1.0
I0
F0.0
I0
F0.0
I0
F0.0
I398
I1
I249
tp249
a(I250
I0
I0
F1.0
I0
F0.0
I0
F0.0
I0
F0.0
I400
I1
I250
tp250
a(I251
I0
I0
F1.0
I0
F0.0
I0
F0.0
I0
F0.0
I402
I1
I251
tp251
a(I252
I0
I0
F1.0
I0
F0.0
I0
F0.0
I0
F0.0
I404
I1
I252
tp252
a(I253
I0
I0
F1.0
I0
F0.0
I0
F0.0
I0
F0.0
I406
I1
I253
tp253
a(I254
I0
I0
F1.0
I0
F0.0
I0
F0.0
I0
F0.0
I408
I1
I254
tp254
a(I255
I0
I0
F1.0
I0
F0.0
I0
F0.0
I0
F0.0
I410
I1
I255
tp255
a(I256
I0
I0
F1.0
I0
F0.0
I0
F0.0
I0
F0.0
I412
I1
I256
tp256
a(I257
I0
I0
F1.0
I0
F0.0
I0
F0.0
I0
F0.0
I414
I1
I257
tp257
a(I258
I0
I0
F1.0
I0
F0.0
I0
F0.0
I0
F0.0
I416
I1
I258
tp258
a(I259
I0
I0
F1.0
I0
F0.0
I0
F0.0
I0
F0.0
I418
I1
I259
tp259
a(I260
I0
I0
F1.0
I0
F0.0
I0
F0.0
I0
F0.0
I420
I1
I260
tp260
a(I261
I0
I0
F1.0
I0
F0.0
I0
F0.0
I0
F0.0
I422
I1
I261
tp261
a(I262
I0
I0
F1.0
I0
F0.0
I0
F0.0
I0
F0.0
I424
I1
I262
tp262
a(I263
I0
I0
F1.0
I0
F0.0
I0
F0.0
I0
F0.0
I426
I1
I263
tp263
a(I264
I0
I0
F1.0
I0
F0.0
I0
F0.0
I0
F0.0
I428
I1
I264
tp264
a(I265
I0
I0
F1.0
I0
F0.0
I0
F0.0
I0
F0.0
I430
I1
I265
tp265
a(I266
I0
I0
F1.0
I0
F0.0
I0
F0.0
I0
F0.0
I432
I1
I266
tp266
a(I267
I0
I0
F1.0
I0
F0.0
I0
F0.0
I0
F0.0
I434
I1
I267
tp267
a(I268
I0
I0
F1.0
I0
F0.0
I0
F0.0
I0
F0.0
I436
I1
I268
tp268
a(I269
I0
I0
F1.0
I0
F0.0
I0
F0.0
I0
F0.0
I438
I1
I269
tp269
a(I270
I0
I0
F1.0
I0
F0.0
I0
F0.0
I0
F0.0
I440
I1
I270
tp270
a(I271
I0
I0
F1.0
I0
F0.0
I0
F0.0
I0
F0.0
I442
I1
I271
tp271
a(I272
I0
I0
F1.0
I0
F0.0
I0
F0.0
I0
F0.0
I444
I1
I272
tp272
a(I273
I0
I0
F1.0
I0
F0.0
I0
F0.0
I0
F0.0
I446
I1
I273
tp273
a(I274
I0
I0
F1.0
I0
F0.0
I0
F0.0
I0
F0.0
I448
I1
I274
tp274
a(I275
I0
I0
F1.0
I0
F0.0
I0
F0.0
I0
F0.0
I450
I1
I275
tp275
a(I276
I0
I0
F1.0
I0
F0.0
I0
F0.0
I0
F0.0
I452
I1
I276
tp276
a(I277
I0
I0
F1.0
I0
F0.0
I0
F0.0
I0
F0.0
I454
I1
I277
tp277
a(I278
I0
I0
F1.0
I0
F0.0
I0
F0.0
I0
F0.0
I456
I1
I278
tp278
a(I279
I0
I0
F1.0
I0
F0.0
I0
F0.0
I0
F0.0
I458
I1
I279
tp279
a(I280
I0
I0
F1.0
I0
F0.0
I0
F0.0
I0
F0.0
I460
I1
I280
tp280
a(I281
I0
I0
F1.0
I0
F0.0
I0
F0.0
I0
F0.0
I462
I1
I281
tp281
a(I282
I0
I0
F1.0
I0
F0.0
I0
F0.0
I0
F0.0
I464
I1
I282
tp282
a(I283
I0
I0
F1.0
I0
F0.0
I0
F0.0
I0
F0.0
I466
I1
I283
tp283
a(I284
I0
I0
F1.0
I0
F0.0
I0
F0.0
I0
F0.0
I468
I1
I284
tp284
a(I285
I0
I0
F1.0
I0
F0.0
I0
F0.0
I0
F0.0
I470
I1
I285
tp285
a(I286
I0
I0
F1.0
I0
F0.0
I0
F0.0
I0
F0.0
I472
I1
I286
tp286
a(I287
I0
I0
F1.0
I0
F0.0
I0
F0.0
I0
F0.0
I474
I1
I287
tp287
a(I288
I0
I0
F1.0
I0
F0.0
I0
F0.0
I0
F0.0
I476
I1
I288
tp288
a(I289
I0
I0
F1.0
I0
F0.0
I0
F0.0
I0
F0.0
I478
I1
I289
tp289
a(I290
I0
I0
F1.0
I0
F0.0
I0
F0.0
I0
F0.0
I480
I1
I290
tp290
a(I291
I0
I0
F1.0
I0
F0.0
I0
F0.0
I0
F0.0
I482
I1
I291
tp291
a(I292
I0
I0
F1.0
I0
F0.0
I0
F0.0
I0
F0.0
I484
I1
I292
tp292
a(I293
I0
I0
F1.0
I0
F0.0
I0
F0.0
I0
F0.0
I486
I1
I293
tp293
a(I294
I0
I0
F1.0
I0
F0.0
I0
F0.0
I0
F0.0
I488
I1
I294
tp294
a(I295
I0
I0
F1.0
I0
F0.0
I0
F0.0
I0
F0.0
I490
I1
I295
tp295
a(I296
I0
I0
F1.0
I0
F0.0
I0
F0.0
I0
F0.0
I492
I1
I296
tp296
a(I297
I0
I0
F1.0
I0
F0.0
I0
F0.0
I0
F0.0
I494
I1
I297
tp297
a(I298
I0
I0
F1.0
I0
F0.0
I0
F0.0
I0
F0.0
I496
I1
I298
tp298
a(I299
I0
I0
F1.0
I0
F0.0
I0
F0.0
I0
F0.0
I498
I1
I299
tp299
a(I300
I0
I0
F1.0
I0
F0.0
I0
F0.0
I0
F0.0
I500
I1
I300
tp300
a(I301
I0
I0
F1.0
I0
F0.0
I0
F0.0
I0
F0.0
I501
I0
I301
tp301
a(I302
I0
I0
F1.0
I0
F0.0
I0
F0.0
I0
F0.0
I502
I0
I302
tp302
a(I303
I0
I0
F1.0
I0
F0.0
I0
F0.0
I0
F0.0
I503
I0
I303
tp303
a(I304
I0
I0
F1.0
I0
F0.0
I0
F0.0
I0
F0.0
I504
I0
I304
tp304
a(I305
I0
I0
F1.0
I0
F0.0
I0
F0.0
I0
F0.0
I505
I0
I305
tp305
a(I306
I0
I0
F1.0
I0
F0.0
I0
F0.0
I0
F0.0
I506
I0
I306
tp306
a(I307
I0
I0
F1.0
I0
F0.0
I0
F0.0
I0
F0.0
I507
I0
I307
tp307
a(I308
I0
I0
F1.0
I0
F0.0
I0
F0.0
I0
F0.0
I508
I0
I308
tp308
a(I309
I0
I0
F1.0
I0
F0.0
I0
F0.0
I0
F0.0
I509
I0
I309
tp309
a(I310
I0
I0
F1.0
I0
F0.0
I0
F0.0
I0
F0.0
I510
I0
I310
tp310
a(I311
I0
I0
F1.0
I0
F0.0
I0
F0.0
I0
F0.0
I511
I0
I311
tp311
a(I312
I0
I0
F1.0
I0
F0.0
I0
F0.0
I0
F0.0
I512
I0
I312
tp312
a(I313
I0
I0
F1.0
I0
F0.0
I0
F0.0
I0
F0.0
I513
I0
I313
tp313
a(I314
I0
I0
F1.0
I0
F0.0
I0
F0.0
I0
F0.0
I514
I0
I314
tp314
a(I315
I0
I0
F1.0
I0
F0.0
I0
F0.0
I0
F0.0
I515
I0
I315
tp315
a(I316
I0
I0
F1.0
I0
F0.0
I0
F0.0
I0
F0.0
I516
I0
I316
tp316
a(I317
I0
I0
F1.0
I0
F0.0
I0
F0.0
I0
F0.0
I517
I0
I317
tp317
a(I318
I0
I0
F1.0
I0
F0.0
I0
F0.0
I0
F0.0
I518
I0
I318
tp318
a(I319
I0
I0
F1.0
I0
F0.0
I0
F0.0
I0
F0.0
I519
I0
I319
tp319
a(I320
I0
I0
F1.0
I0
F0.0
I0
F0.0
I0
F0.0
I520
I0
I320
tp320
a(I321
I0
I0
F1.0
I0
F0.0
I0
F0.0
I0
F0.0
I521
I0
I321
tp321
a(I322
I0
I0
F1.0
I0
F0.0
I0
F0.0
I0
F0.0
I522
I0
I322
tp322
a(I323
I0
I0
F1.0
I0
F0.0
I0
F0.0
I0
F0.0
I523
I0
I323
tp323
a(I324
I0
I0
F1.0
I0
F0.0
I0
F0.0
I0
F0.0
I524
I0
I324
tp324
a(I325
I0
I0
F1.0
I0
F0.0
I0
F0.0
I0
F0.0
I525
I0
I325
tp325
a(I326
I0
I0
F1.0
I0
F0.0
I0
F0.0
I0
F0.0
I526
I0
I326
tp326
a(I327
I0
I0
F1.0
I0
F0.0
I0
F0.0
I0
F0.0
I527
I0
I327
tp327
a(I328
I0
I0
F1.0
I0
F0.0
I0
F0.0
I0
F0.0
I528
I0
I328
tp328
a(I329
I0
I0
F1.0
I0
F0.0
I0
F0.0
I0
F0.0
I529
I0
I329
tp329
a(I330
I0
I0
F1.0
I0
F0.0
I0
F0.0
I0
F0.0
I530
I0
I330
tp330
a(I331
I0
I0
F1.0
I0
F0.0
I0
F0.0
I0
F0.0
I531
I0
I331
tp331
a(I332
I0
I0
F1.0
I0
F0.0
I0
F0.0
I0
F0.0
I532
I0
I332
tp332
a(I333
I0
I0
F1.0
I0
F0.0
I0
F0.0
I0
F0.0
I533
I0
I333
tp333
a(I334
I0
I0
F1.0
I0
F0.0
I0
F0.0
I0
F0.0
I534
I0
I334
tp334
a(I335
I0
I0
F1.0
I0
F0.0
I0
F0.0
I0
F0.0
I535
I0
I335
tp335
a(I336
I0
I0
F1.0
I0
F0.0
I0
F0.0
I0
F0.0
I536
I0
I336
tp336
a(I337
I0
I0
F1.0
I0
F0.0
I0
F0.0
I0
F0.0
I537
I0
I337
tp337
a(I338
I0
I0
F1.0
I0
F0.0
I0
F0.0
I0
F0.0
I538
I0
I338
tp338
a(I339
I0
I0
F1.0
I0
F0.0
I0
F0.0
I0
F0.0
I539
I0
I339
tp339
a(I340
I0
I0
F1.0
I0
F0.0
I0
F0.0
I0
F0.0
I540
I0
I340
tp340
a(I341
I0
I0
F1.0
I0
F0.0
I0
F0.0
I0
F0.0
I541
I0
I341
tp341
a(I342
I0
I0
F1.0
I0
F0.0
I0
F0.0
I0
F0.0
I542
I0
I342
tp342
a(I343
I0
I0
F1.0
I0
F0.0
I0
F0.0
I0
F0.0
I543
I0
I343
tp343
a(I344
I0
I0
F1.0
I0
F0.0
I0
F0.0
I0
F0.0
I544
I0
I344
tp344
a(I345
I0
I0
F1.0
I0
F0.0
I0
F0.0
I0
F0.0
I545
I0
I345
tp345
a(I346
I0
I0
F1.0
I0
F0.0
I0
F0.0
I0
F0.0
I546
I0
I346
tp346
a(I347
I0
I0
F1.0
I0
F0.0
I0
F0.0
I0
F0.0
I547
I0
I347
tp347
a(I348
I0
I0
F1.0
I0
F0.0
I0
F0.0
I0
F0.0
I548
I0
I348
tp348
a(I349
I0
I0
F1.0
I0
F0.0
I0
F0.0
I0
F0.0
I549
I0
I349
tp349
a(I350
I0
I0
F1.0
I0
F0.0
I0
F0.0
I0
F0.0
I550
I0
I350
tp350
a(I351
I0
I0
F1.0
I0
F0.0
I0
F0.0
I0
F0.0
I551
I0
I351
tp351
a(I352
I0
I0
F1.0
I0
F0.0
I0
F0.0
I0
F0.0
I552
I0
I352
tp352
a(I353
I0
I0
F1.0
I0
F0.0
I0
F0.0
I0
F0.0
I553
I0
I353
tp353
a(I354
I0
I0
F1.0
I0
F0.0
I0
F0.0
I0
F0.0
I554
I0
I354
tp354
a(I355
I0
I0
F1.0
I0
F0.0
I0
F0.0
I0
F0.0
I555
I0
I355
tp355
a(I356
I0
I0
F1.0
I0
F0.0
I0
F0.0
I0
F0.0
I556
I0
I356
tp356
a(I357
I0
I0
F1.0
I0
F0.0
I0
F0.0
I0
F0.0
I557
I0
I357
tp357
a(I358
I0
I0
F1.0
I0
F0.0
I0
F0.0
I0
F0.0
I558
I0
I358
tp358
a(I359
I0
I0
F1.0
I0
F0.0
I0
F0.0
I0
F0.0
I559
I0
I359
tp359
a(I360
I0
I0
F1.0
I0
F0.0
I0
F0.0
I0
F0.0
I560
I0
I360
tp360
a(I361
I0
I0
F1.0
I0
F0.0
I0
F0.0
I0
F0.0
I561
I0
I361
tp361
a(I362
I0
I0
F1.0
I0
F0.0
I0
F0.0
I0
F0.0
I562
I0
I362
tp362
a(I363
I0
I0
F1.0
I0
F0.0
I0
F0.0
I0
F0.0
I563
I0
I363
tp363
a(I364
I0
I0
F1.0
I0
F0.0
I0
F0.0
I0
F0.0
I564
I0
I364
tp364
a(I365
I0
I0
F1.0
I0
F0.0
I0
F0.0
I0
F0.0
I565
I0
I365
tp365
a(I366
I0
I0
F1.0
I0
F0.0
I0
F0.0
I0
F0.0
I566
I0
I366
tp366
a(I367
I0
I0
F1.0
I0
F0.0
I0
F0.0
I0
F0.0
I567
I0
I367
tp367
a(I368
I0
I0
F1.0
I0
F0.0
I0
F0.0
I0
F0.0
I568
I0
I368
tp368
a(I369
I0
I0
F1.0
I0
F0.0
I0
F0.0
I0
F0.0
I569
I0
I369
tp369
a(I370
I0
I0
F1.0
I0
F0.0
I0
F0.0
I0
F0.0
I570
I0
I370
tp370
a(I371
I0
I0
F1.0
I0
F0.0
I0
F0.0
I0
F0.0
I571
I0
I371
tp371
a(I372
I0
I0
F1.0
I0
F0.0
I0
F0.0
I0
F0.0
I572
I0
I372
tp372
a(I373
I0
I0
F1.0
I0
F0.0
I0
F0.0
I0
F0.0
I573
I0
I373
tp373
a(I374
I0
I0
F1.0
I0
F0.0
I0
F0.0
I0
F0.0
I574
I0
I374
tp374
a(I375
I0
I0
F1.0
I0
F0.0
I0
F0.0
I0
F0.0
I575
I0
I375
tp375
a(I376
I0
I0
F1.0
I0
F0.0
I0
F0.0
I0
F0.0
I576
I0
I376
tp376
a(I377
I0
I0
F1.0
I0
F0.0
I0
F0.0
I0
F0.0
I577
I0
I377
tp377
a(I378
I0
I0
F1.0
I0
F0.0
I0
F0.0
I0
F0.0
I578
I0
I378
tp378
a(I379
I0
I0
F1.0
I0
F0.0
I0
F0.0
I0
F0.0
I579
I0
I379
tp379
a(I380
I0
I0
F1.0
I0
F0.0
I0
F0.0
I0
F0.0
I580
I0
I380
tp380
a(I381
I0
I0
F1.0
I0
F0.0
I0
F0.0
I0
F0.0
I581
I0
I381
tp381
a(I382
I0
I0
F1.0
I0
F0.0
I0
F0.0
I0
F0.0
I582
I0
I382
tp382
a(I383
I0
I0
F1.0
I0
F0.0
I0
F0.0
I0
F0.0
I583
I0
I383
tp383
a(I384
I0
I0
F1.0
I0
F0.0
I0
F0.0
I0
F0.0
I584
I0
I384
tp384
a(I385
I0
I0
F1.0
I0
F0.0
I0
F0.0
I0
F0.0
I585
I0
I385
tp385
a(I386
I0
I0
F1.0
I0
F0.0
I0
F0.0
I0
F0.0
I586
I0
I386
tp386
a(I387
I0
I0
F1.0
I0
F0.0
I0
F0.0
I0
F0.0
I587
I0
I387
tp387
a(I388
I0
I0
F1.0
I0
F0.0
I0
F0.0
I0
F0.0
I588
I0
I388
tp388
a(I389
I0
I0
F1.0
I0
F0.0
I0
F0.0
I0
F0.0
I589
I0
I389
tp389
a(I390
I0
I0
F1.0
I0
F0.0
I0
F0.0
I0
F0.0
I590
I0
I390
tp390
a(I391
I0
I0
F1.0
I0
F0.0
I0
F0.0
I0
F0.0
I591
I0
I391
tp391
a(I392
I0
I0
F1.0
I0
F0.0
I0
F0.0
I0
F0.0
I592
I0
I392
tp392
a(I393
I0
I0
F1.0
I0
F0.0
I0
F0.0
I0
F0.0
I593
I0
I393
tp393
a(I394
I0
I0
F1.0
I0
F0.0
I0
F0.0
I0
F0.0
I594
I0
I394
tp394
a(I395
I0
I0
F1.0
I0
F0.0
I0
F0.0
I0
F0.0
I595
I0
I395
tp395
a(I396
I0
I0
F1.0
I0
F0.0
I0
F0.0
I0
F0.0
I596
I0
I396
tp396
a(I397
I0
I0
F1.0
I0
F0.0
I0
F0.0
I0
F0.0
I597
I0
I397
tp397
a(I398
I0
I0
F1.0
I0
F0.0
I0
F0.0
I0
F0.0
I598
I0
I398
tp398
a(I399
I0
I0
F1.0
I0
F0.0
I0
F0.0
I0
F0.0
I599
I0
I399
tp399
a(I400
I0
I0
F1.0
I0
F0.0
I0
F0.0
I0
F0.0
I600
I0
I400
tp400
a(I401
I0
I0
F1.0
I0
F0.0
I0
F0.0
I0
F0.0
I601
I0
I401
tp401
a(I402
I0
I0
F1.0
I0
F0.0
I0
F0.0
I0
F0.0
I602
I0
I402
tp402
a(I403
I0
I0
F1.0
I0
F0.0
I0
F0.0
I0
F0.0
I603
I0
I403
tp403
a(I404
I0
I0
F1.0
I0
F0.0
I0
F0.0
I0
F0.0
I604
I0
I404
tp404
a(I405
I0
I0
F1.0
I0
F0.0
I0
F0.0
I0
F0.0
I605
I0
I405
tp405
a(I406
I0
I0
F1.0
I0
F0.0
I0
F0.0
I0
F0.0
I606
I0
I406
tp406
a(I407
I0
I0
F1.0
I0
F0.0
I0
F0.0
I0
F0.0
I607
I0
I407
tp407
a(I408
I0
I0
F1.0
I0
F0.0
I0
F0.0
I0
F0.0
I608
I0
I408
tp408
a(I409
I0
I0
F1.0
I0
F0.0
I0
F0.0
I0
F0.0
I609
I0
I409
tp409
a(I410
I0
I0
F1.0
I0
F0.0
I0
F0.0
I0
F0.0
I610
I0
I410
tp410
a(I411
I0
I0
F1.0
I0
F0.0
I0
F0.0
I0
F0.0
I611
I0
I411
tp411
a(I412
I0
I0
F1.0
I0
F0.0
I0
F0.0
I0
F0.0
I612
I0
I412
tp412
a(I413
I0
I0
F1.0
I0
F0.0
I0
F0.0
I0
F0.0
I613
I0
I413
tp413
a(I414
I0
I0
F1.0
I0
F0.0
I0
F0.0
I0
F0.0
I614
I0
I414
tp414
a(I415
I0
I0
F1.0
I0
F0.0
I0
F0.0
I0
F0.0
I615
I0
I415
tp415
a(I416
I0
I0
F1.0
I0
F0.0
I0
F0.0
I0
F0.0
I616
I0
I416
tp416
a(I417
I0
I0
F1.0
I0
F0.0
I0
F0.0
I0
F0.0
I617
I0
I417
tp417
a(I418
I0
I0
F1.0
I0
F0.0
I0
F0.0
I0
F0.0
I618
I0
I418
tp418
a(I419
I0
I0
F1.0
I0
F0.0
I0
F0.0
I0
F0.0
I619
I0
I419
tp419
a(I420
I0
I0
F1.0
I0
F0.0
I0
F0.0
I0
F0.0
I620
I0
I420
tp420
a(I421
I0
I0
F1.0
I0
F0.0
I0
F0.0
I0
F0.0
I621
I0
I421
tp421
a(I422
I0
I0
F1.0
I0
F0.0
I0
F0.0
I0
F0.0
I622
I0
I422
tp422
a(I423
I0
I0
F1.0
I0
F0.0
I0
F0.0
I0
F0.0
I623
I0
I423
tp423
a(I424
I0
I0
F1.0
I0
F0.0
I0
F0.0
I0
F0.0
I624
I0
I424
tp424
a(I425
I0
I0
F1.0
I0
F0.0
I0
F0.0
I0
F0.0
I625
I0
I425
tp425
a(I426
I0
I0
F1.0
I0
F0.0
I0
F0.0
I0
F0.0
I626
I0
I426
tp426
a(I427
I0
I0
F1.0
I0
F0.0
I0
F0.0
I0
F0.0
I627
I0
I427
tp427
a(I428
I0
I0
F1.0
I0
F0.0
I0
F0.0
I0
F0.0
I628
I0
I428
tp428
a(I429
I0
I0
F1.0
I0
F0.0
I0
F0.0
I0
F0.0
I629
I0
I429
tp429
a(I430
I0
I0
F1.0
I0
F0.0
I0
F0.0
I0
F0.0
I630
I0
I430
tp430
a(I431
I0
I0
F1.0
I0
F0.0
I0
F0.0
I0
F0.0
I631
I0
I431
tp431
a(I432
I0
I0
F1.0
I0
F0.0
I0
F0.0
I0
F0.0
I632
I0
I432
tp432
a(I433
I0
I0
F1.0
I0
F0.0
I0
F0.0
I0
F0.0
I633
I0
I433
tp433
a(I434
I0
I0
F1.0
I0
F0.0
I0
F0.0
I0
F0.0
I634
I0
I434
tp434
a(I435
I0
I0
F1.0
I0
F0.0
I0
F0.0
I0
F0.0
I635
I0
I435
tp435
a(I436
I0
I0
F1.0
I0
F0.0
I0
F0.0
I0
F0.0
I636
I0
I436
tp436
a(I437
I0
I0
F1.0
I0
F0.0
I0
F0.0
I0
F0.0
I637
I0
I437
tp437
a(I438
I0
I0
F1.0
I0
F0.0
I0
F0.0
I0
F0.0
I638
I0
I438
tp438
a(I439
I0
I0
F1.0
I0
F0.0
I0
F0.0
I0
F0.0
I639
I0
I439
tp439
a(I440
I0
I0
F1.0
I0
F0.0
I0
F0.0
I0
F0.0
I640
I0
I440
tp440
a(I441
I0
I0
F1.0
I0
F0.0
I0
F0.0
I0
F0.0
I641
I0
I441
tp441
a(I442
I0
I0
F1.0
I0
F0.0
I0
F0.0
I0
F0.0
I642
I0
I442
tp442
a(I443
I0
I0
F1.0
I0
F0.0
I0
F0.0
I0
F0.0
I643
I0
I443
tp443
a(I444
I0
I0
F1.0
I0
F0.0
I0
F0.0
I0
F0.0
I644
I0
I444
tp444
a(I445
I0
I0
F1.0
I0
F0.0
I0
F0.0
I0
F0.0
I645
I0
I445
tp445
a(I446
I0
I0
F1.0
I0
F0.0
I0
F0.0
I0
F0.0
I646
I0
I446
tp446
a(I447
I0
I0
F1.0
I0
F0.0
I0
F0.0
I0
F0.0
I647
I0
I447
tp447
a(I448
I0
I0
F1.0
I0
F0.0
I0
F0.0
I0
F0.0
I648
I0
I448
tp448
a(I449
I0
I0
F1.0
I0
F0.0
I0
F0.0
I0
F0.0
I649
I0
I449
tp449
a(I450
I0
I0
F1.0
I0
F0.0
I0
F0.0
I0
F0.0
I650
I0
I450
tp450
a(I451
I0
I0
F1.0
I0
F0.0
I0
F0.0
I0
F0.0
I651
I0
I451
tp451
a(I452
I0
I0
F1.0
I0
F0.0
I0
F0.0
I0
F0.0
I652
I0
I452
tp452
a(I453
I0
I0
F1.0
I0
F0.0
I0
F0.0
I0
F0.0
I653
I0
I453
tp453
a(I454
I0
I0
F1.0
I0
F0.0
I0
F0.0
I0
F0.0
I654
I0
I454
tp454
a(I455
I0
I0
F1.0
I0
F0.0
I0
F0.0
I0
F0.0
I655
I0
I455
tp455
a(I456
I0
I0
F1.0
I0
F0.0
I0
F0.0
I0
F0.0
I656
I0
I456
tp456
a(I457
I0
I0
F1.0
I0
F0.0
I0
F0.0
I0
F0.0
I657
I0
I457
tp457
a(I458
I0
I0
F1.0
I0
F0.0
I0
F0.0
I0
F0.0
I658
I0
I458
tp458
a(I459
I0
I0
F1.0
I0
F0.0
I0
F0.0
I0
F0.0
I659
I0
I459
tp459
a(I460
I0
I0
F1.0
I0
F0.0
I0
F0.0
I0
F0.0
I660
I0
I460
tp460
a(I461
I0
I0
F1.0
I0
F0.0
I0
F0.0
I0
F0.0
I661
I0
I461
tp461
a(I462
I0
I0
F1.0
I0
F0.0
I0
F0.0
I0
F0.0
I662
I0
I462
tp462
a(I463
I0
I0
F1.0
I0
F0.0
I0
F0.0
I0
F0.0
I663
I0
I463
tp463
a(I464
I0
I0
F1.0
I0
F0.0
I0
F0.0
I0
F0.0
I664
I0
I464
tp464
a(I465
I0
I0
F1.0
I0
F0.0
I0
F0.0
I0
F0.0
I665
I0
I465
tp465
a(I466
I0
I0
F1.0
I0
F0.0
I0
F0.0
I0
F0.0
I666
I0
I466
tp466
a(I467
I0
I0
F1.0
I0
F0.0
I0
F0.0
I0
F0.0
I667
I0
I467
tp467
a(I468
I0
I0
F1.0
I0
F0.0
I0
F0.0
I0
F0.0
I668
I0
I468
tp468
a(I469
I0
I0
F1.0
I0
F0.0
I0
F0.0
I0
F0.0
I669
I0
I469
tp469
a(I470
I0
I0
F1.0
I0
F0.0
I0
F0.0
I0
F0.0
I670
I0
I470
tp470
a(I471
I0
I0
F1.0
I0
F0.0
I0
F0.0
I0
F0.0
I671
I0
I471
tp471
a(I472
I0
I0
F1.0
I0
F0.0
I0
F0.0
I0
F0.0
I672
I0
I472
tp472
a(I473
I0
I0
F1.0
I0
F0.0
I0
F0.0
I0
F0.0
I673
I0
I473
tp473
a(I474
I0
I0
F1.0
I0
F0.0
I0
F0.0
I0
F0.0
I674
I0
I474
tp474
a(I475
I0
I0
F1.0
I0
F0.0
I0
F0.0
I0
F0.0
I675
I0
I475
tp475
a(I476
I0
I0
F1.0
I0
F0.0
I0
F0.0
I0
F0.0
I676
I0
I476
tp476
a(I477
I0
I0
F1.0
I0
F0.0
I0
F0.0
I0
F0.0
I677
I0
I477
tp477
a(I478
I0
I0
F1.0
I0
F0.0
I0
F0.0
I0
F0.0
I678
I0
I478
tp478
a(I479
I0
I0
F1.0
I0
F0.0
I0
F0.0
I0
F0.0
I679
I0
I479
tp479
a(I480
I0
I0
F1.0
I0
F0.0
I0
F0.0
I0
F0.0
I680
I0
I480
tp480
a(I481
I0
I0
F1.0
I0
F0.0
I0
F0.0
I0
F0.0
I681
I0
I481
tp481
a(I482
I0
I0
F1.0
I0
F0.0
I0
F0.0
I0
F0.0
I682
I0
I482
tp482
a(I483
I0
I0
F1.0
I0
F0.0
I0
F0.0
I0
F0.0
I683
I0
I483
tp483
a(I484
I0
I0
F1.0
I0
F0.0
I0
F0.0
I0
F0.0
I684
I0
I484
tp484
a(I485
I0
I0
F1.0
I0
F0.0
I0
F0.0
I0
F0.0
I685
I0
I485
tp485
a(I486
I0
I0
F1.0
I0
F0.0
I0
F0.0
I0
F0.0
I686
I0
I486
tp486
a(I487
I0
I0
F1.0
I0
F0.0
I0
F0.0
I0
F0.0
I687
I0
I487
tp487
a(I488
I0
I0
F1.0
I0
F0.0
I0
F0.0
I0
F0.0
I688
I0
I488
tp488
a(I489
I0
I0
F1.0
I0
F0.0
I0
F0.0
I0
F0.0
I689
I0
I489
tp489
a(I490
I0
I0
F1.0
I0
F0.0
I0
F0.0
I0
F0.0
I690
I0
I490
tp490
a(I491
I0
I0
F1.0
I0
F0.0
I0
F0.0
I0
F0.0
I691
I0
I491
tp491
a(I492
I0
I0
F1.0
I0
F0.0
I0
F0.0
I0
F0.0
I692
I0
I492
tp492
a(I493
I0
I0
F1.0
I0
F0.0
I0
F0.0
I0
F0.0
I693
I0
I493
tp493
a(I494
I0
I0
F1.0
I0
F0.0
I0
F0.0
I0
F0.0
I694
I0
I494
tp494
a(I495
I0
I0
F1.0
I0
F0.0
I0
F0.0
I0
F0.0
I695
I0
I495
tp495
a(I496
I0
I0
F1.0
I0
F0.0
I0
F0.0
I0
F0.0
I696
I0
I496
tp496
a(I497
I0
I0
F1.0
I0
F0.0
I0
F0.0
I0
F0.0
I697
I0
I497
tp497
a(I498
I0
I0
F1.0
I0
F0.0
I0
F0.0
I0
F0.0
I698
I0
I498
tp498
a(I499
I0
I0
F1.0
I0
F0.0
I0
F0.0
I0
F0.0
I699
I0
I499
tp499
a(I500
I0
I0
F1.0
I0
F0.0
I0
F0.0
I0
F0.0
I700
I0
I500
tp500
a(I501
I0
I0
F1.0
I0
F0.0
I0
F0.0
I0
F0.0
I702
I1
I501
tp501
a(I502
I0
I0
F1.0
I0
F0.0
I0
F0.0
I0
F0.0
I704
I1
I502
tp502
a(I503
I0
I0
F1.0
I0
F0.0
I0
F0.0
I0
F0.0
I706
I1
I503
tp503
a(I504
I0
I0
F1.0
I0
F0.0
I0
F0.0
I0
F0.0
I708
I1
I504
tp504
a(I505
I0
I0
F1.0
I0
F0.0
I0
F0.0
I0
F0.0
I710
I1
I505
tp505
a(I506
I0
I0
F1.0
I0
F0.0
I0
F0.0
I0
F0.0
I712
I1
I506
tp506
a(I507
I0
I0
F1.0
I0
F0.0
I0
F0.0
I0
F0.0
I714
I1
I507
tp507
a(I508
I0
I0
F1.0
I0
F0.0
I0
F0.0
I0
F0.0
I716
I1
I508
tp508
a(I509
I0
I0
F1.0
I0
F0.0
I0
F0.0
I0
F0.0
I718
I1
I509
tp509
a(I510
I0
I0
F1.0
I0
F0.0
I0
F0.0
I0
F0.0
I720
I1
I510
tp510
a(I511
I0
I0
F1.0
I0
F0.0
I0
F0.0
I0
F0.0
I722
I1
I511
tp511
a(I512
I0
I0
F1.0
I0
F0.0
I0
F0.0
I0
F0.0
I724
I1
I512
tp512
a(I513
I0
I0
F1.0
I0
F0.0
I0
F0.0
I0
F0.0
I726
I1
I513
tp513
a(I514
I0
I0
F1.0
I0
F0.0
I0
F0.0
I0
F0.0
I728
I1
I514
tp514
a(I515
I0
I0
F1.0
I0
F0.0
I0
F0.0
I0
F0.0
I730
I1
I515
tp515
a(I516
I0
I0
F1.0
I0
F0.0
I0
F0.0
I0
F0.0
I732
I1
I516
tp516
a(I517
I0
I0
F1.0
I0
F0.0
I0
F0.0
I0
F0.0
I734
I1
I517
tp517
a(I518
I0
I0
F1.0
I0
F0.0
I0
F0.0
I0
F0.0
I736
I1
I518
tp518
a(I519
I0
I0
F1.0
I0
F0.0
I0
F0.0
I0
F0.0
I738
I1
I519
tp519
a(I520
I0
I0
F1.0
I0
F0.0
I0
F0.0
I0
F0.0
I740
I1
I520
tp520
a(I521
I0
I0
F1.0
I0
F0.0
I0
F0.0
I0
F0.0
I742
I1
I521
tp521
a(I522
I0
I0
F1.0
I0
F0.0
I0
F0.0
I0
F0.0
I744
I1
I522
tp522
a(I523
I0
I0
F1.0
I0
F0.0
I0
F0.0
I0
F0.0
I746
I1
I523
tp523
a(I524
I0
I0
F1.0
I0
F0.0
I0
F0.0
I0
F0.0
I748
I1
I524
tp524
a(I525
I0
I0
F1.0
I0
F0.0
I0
F0.0
I0
F0.0
I750
I1
I525
tp525
a(I526
I0
I0
F1.0
I0
F0.0
I0
F0.0
I0
F0.0
I752
I1
I526
tp526
a(I527
I0
I0
F1.0
I0
F0.0
I0
F0.0
I0
F0.0
I754
I1
I527
tp527
a(I528
I0
I0
F1.0
I0
F0.0
I0
F0.0
I0
F0.0
I756
I1
I528
tp528
a(I529
I0
I0
F1.0
I0
F0.0
I0
F0.0
I0
F0.0
I758
I1
I529
tp529
a(I530
I0
I0
F1.0
I0
F0.0
I0
F0.0
I0
F0.0
I760
I1
I530
tp530
a(I531
I0
I0
F1.0
I0
F0.0
I0
F0.0
I0
F0.0
I762
I1
I531
tp531
a(I532
I0
I0
F1.0
I0
F0.0
I0
F0.0
I0
F0.0
I764
I1
I532
tp532
a(I533
I0
I0
F1.0
I0
F0.0
I0
F0.0
I0
F0.0
I766
I1
I533
tp533
a(I534
I0
I0
F1.0
I0
F0.0
I0
F0.0
I0
F0.0
I768
I1
I534
tp534
a(I535
I0
I0
F1.0
I0
F0.0
I0
F0.0
I0
F0.0
I770
I1
I535
tp535
a(I536
I0
I0
F1.0
I0
F0.0
I0
F0.0
I0
F0.0
I772
I1
I536
tp536
a(I537
I0
I0
F1.0
I0
F0.0
I0
F0.0
I0
F0.0
I774
I1
I537
tp537
a(I538
I0
I0
F1.0
I0
F0.0
I0
F0.0
I0
F0.0
I776
I1
I538
tp538
a(I539
I0
I0
F1.0
I0
F0.0
I0
F0.0
I0
F0.0
I778
I1
I539
tp539
a(I540
I0
I0
F1.0
I0
F0.0
I0
F0.0
I0
F0.0
I780
I1
I540
tp540
a(I541
I0
I0
F1.0
I0
F0.0
I0
F0.0
I0
F0.0
I782
I1
I541
tp541
a(I542
I0
I0
F1.0
I0
F0.0
I0
F0.0
I0
F0.0
I784
I1
I542
tp542
a(I543
I0
I0
F1.0
I0
F0.0
I0
F0.0
I0
F0.0
I786
I1
I543
tp543
a(I544
I0
I0
F1.0
I0
F0.0
I0
F0.0
I0
F0.0
I788
I1
I544
tp544
a(I545
I0
I0
F1.0
I0
F0.0
I0
F0.0
I0
F0.0
I790
I1
I545
tp545
a(I546
I0
I0
F1.0
I0
F0.0
I0
F0.0
I0
F0.0
I792
I1
I546
tp546
a(I547
I0
I0
F1.0
I0
F0.0
I0
F0.0
I0
F0.0
I794
I1
I547
tp547
a(I548
I0
I0
F1.0
I0
F0.0
I0
F0.0
I0
F0.0
I796
I1
I548
tp548
a(I549
I0
I0
F1.0
I0
F0.0
I0
F0.0
I0
F0.0
I798
I1
I549
tp549
a(I550
I0
I0
F1.0
I0
F0.0
I0
F0.0
I0
F0.0
I800
I1
I550
tp550
a(I551
I0
I0
F1.0
I0
F0.0
I0
F0.0
I0
F0.0
I802
I1
I551
tp551
a(I552
I0
I0
F1.0
I0
F0.0
I0
F0.0
I0
F0.0
I804
I1
I552
tp552
a(I553
I0
I0
F1.0
I0
F0.0
I0
F0.0
I0
F0.0
I806
I1
I553
tp553
a(I554
I0
I0
F1.0
I0
F0.0
I0
F0.0
I0
F0.0
I808
I1
I554
tp554
a(I555
I0
I0
F1.0
I0
F0.0
I0
F0.0
I0
F0.0
I810
I1
I555
tp555
a(I556
I0
I0
F1.0
I0
F0.0
I0
F0.0
I0
F0.0
I812
I1
I556
tp556
a(I557
I0
I0
F1.0
I0
F0.0
I0
F0.0
I0
F0.0
I814
I1
I557
tp557
a(I558
I0
I0
F1.0
I0
F0.0
I0
F0.0
I0
F0.0
I816
I1
I558
tp558
a(I559
I0
I0
F1.0
I0
F0.0
I0
F0.0
I0
F0.0
I818
I1
I559
tp559
a(I560
I0
I0
F1.0
I0
F0.0
I0
F0.0
I0
F0.0
I820
I1
I560
tp560
a(I561
I0
I0
F1.0
I0
F0.0
I0
F0.0
I0
F0.0
I822
I1
I561
tp561
a(I562
I0
I0
F1.0
I0
F0.0
I0
F0.0
I0
F0.0
I824
I1
I562
tp562
a(I563
I0
I0
F1.0
I0
F0.0
I0
F0.0
I0
F0.0
I826
I1
I563
tp563
a(I564
I0
I0
F1.0
I0
F0.0
I0
F0.0
I0
F0.0
I828
I1
I564
tp564
a(I565
I0
I0
F1.0
I0
F0.0
I0
F0.0
I0
F0.0
I830
I1
I565
tp565
a(I566
I0
I0
F1.0
I0
F0.0
I0
F0.0
I0
F0.0
I832
I1
I566
tp566
a(I567
I0
I0
F1.0
I0
F0.0
I0
F0.0
I0
F0.0
I834
I1
I567
tp567
a(I568
I0
I0
F1.0
I0
F0.0
I0
F0.0
I0
F0.0
I836
I1
I568
tp568
a(I569
I0
I0
F1.0
I0
F0.0
I0
F0.0
I0
F0.0
I838
I1
I569
tp569
a(I570
I0
I0
F1.0
I0
F0.0
I0
F0.0
I0
F0.0
I840
I1
I570
tp570
a(I571
I0
I0
F1.0
I0
F0.0
I0
F0.0
I0
F0.0
I842
I1
I571
tp571
a(I572
I0
I0
F1.0
I0
F0.0
I0
F0.0
I0
F0.0
I844
I1
I572
tp572
a(I573
I0
I0
F1.0
I0
F0.0
I0
F0.0
I0
F0.0
I846
I1
I573
tp573
a(I574
I0
I0
F1.0
I0
F0.0
I0
F0.0
I0
F0.0
I848
I1
I574
tp574
a(I575
I0
I0
F1.0
I0
F0.0
I0
F0.0
I0
F0.0
I850
I1
I575
tp575
a(I576
I0
I0
F1.0
I0
F0.0
I0
F0.0
I0
F0.0
I852
I1
I576
tp576
a(I577
I0
I0
F1.0
I0
F0.0
I0
F0.0
I0
F0.0
I854
I1
I577
tp577
a(I578
I0
I0
F1.0
I0
F0.0
I0
F0.0
I0
F0.0
I856
I1
I578
tp578
a(I579
I0
I0
F1.0
I0
F0.0
I0
F0.0
I0
F0.0
I858
I1
I579
tp579
a(I580
I0
I0
F1.0
I0
F0.0
I0
F0.0
I0
F0.0
I860
I1
I580
tp580
a(I581
I0
I0
F1.0
I0
F0.0
I0
F0.0
I0
F0.0
I862
I1
I581
tp581
a(I582
I0
I0
F1.0
I0
F0.0
I0
F0.0
I0
F0.0
I864
I1
I582
tp582
a(I583
I0
I0
F1.0
I0
F0.0
I0
F0.0
I0
F0.0
I866
I1
I583
tp583
a(I584
I0
I0
F1.0
I0
F0.0
I0
F0.0
I0
F0.0
I868
I1
I584
tp584
a(I585
I0
I0
F1.0
I0
F0.0
I0
F0.0
I0
F0.0
I870
I1
I585
tp585
a(I586
I0
I0
F1.0
I0
F0.0
I0
F0.0
I0
F0.0
I872
I1
I586
tp586
a(I587
I0
I0
F1.0
I0
F0.0
I0
F0.0
I0
F0.0
I874
I1
I587
tp587
a(I588
I0
I0
F1.0
I0
F0.0
I0
F0.0
I0
F0.0
I876
I1
I588
tp588
a(I589
I0
I0
F1.0
I0
F0.0
I0
F0.0
I0
F0.0
I878
I1
I589
tp589
a(I590
I0
I0
F1.0
I0
F0.0
I0
F0.0
I0
F0.0
I880
I1
I590
tp590
a(I591
I0
I0
F1.0
I0
F0.0
I0
F0.0
I0
F0.0
I882
I1
I591
tp591
a(I592
I0
I0
F1.0
I0
F0.0
I0
F0.0
I0
F0.0
I884
I1
I592
tp592
a(I593
I0
I0
F1.0
I0
F0.0
I0
F0.0
I0
F0.0
I886
I1
I593
tp593
a(I594
I0
I0
F1.0
I0
F0.0
I0
F0.0
I0
F0.0
I888
I1
I594
tp594
a(I595
I0
I0
F1.0
I0
F0.0
I0
F0.0
I0
F0.0
I890
I1
I595
tp595
a(I596
I0
I0
F1.0
I0
F0.0
I0
F0.0
I0
F0.0
I892
I1
I596
tp596
a(I597
I0
I0
F1.0
I0
F0.0
I0
F0.0
I0
F0.0
I894
I1
I597
tp597
a(I598
I0
I0
F1.0
I0
F0.0
I0
F0.0
I0
F0.0
I896
I1
I598
tp598
a(I599
I0
I0
F1.0
I0
F0.0
I0
F0.0
I0
F0.0
I898
I1
I599
tp599
a(I600
I0
I0
F1.0
I0
F0.0
I0
F0.0
I0
F0.0
I900
I1
I600
tp600
a(I601
I0
I0
F1.0
I0
F0.0
I0
F0.0
I0
F0.0
I901
I0
I601
tp601
a(I602
I0
I0
F1.0
I0
F0.0
I0
F0.0
I0
F0.0
I902
I0
I602
tp602
a(I603
I0
I0
F1.0
I0
F0.0
I0
F0.0
I0
F0.0
I903
I0
I603
tp603
a(I604
I0
I0
F1.0
I0
F0.0
I0
F0.0
I0
F0.0
I904
I0
I604
tp604
a(I605
I0
I0
F1.0
I0
F0.0
I0
F0.0
I0
F0.0
I905
I0
I605
tp605
a(I606
I0
I0
F1.0
I0
F0.0
I0
F0.0
I0
F0.0
I906
I0
I606
tp606
a(I607
I0
I0
F1.0
I0
F0.0
I0
F0.0
I0
F0.0
I907
I0
I607
tp607
a(I608
I0
I0
F1.0
I0
F0.0
I0
F0.0
I0
F0.0
I908
I0
I608
tp608
a(I609
I0
I0
F1.0
I0
F0.0
I0
F0.0
I0
F0.0
I909
I0
I609
tp609
a(I610
I0
I0
F1.0
I0
F0.0
I0
F0.0
I0
F0.0
I910
I0
I610
tp610
a(I611
I0
I0
F1.0
I0
F0.0
I0
F0.0
I0
F0.0
I911
I0
I611
tp611
a(I612
I0
I0
F1.0
I0
F0.0
I0
F0.0
I0
F0.0
I912
I0
I612
tp612
a(I613
I0
I0
F1.0
I0
F0.0
I0
F0.0
I0
F0.0
I913
I0
I613
tp613
a(I614
I0
I0
F1.0
I0
F0.0
I0
F0.0
I0
F0.0
I914
I0
I614
tp614
a(I615
I0
I0
F1.0
I0
F0.0
I0
F0.0
I0
F0.0
I915
I0
I615
tp615
a(I616
I0
I0
F1.0
I0
F0.0
I0
F0.0
I0
F0.0
I916
I0
I616
tp616
a(I617
I0
I0
F1.0
I0
F0.0
I0
F0.0
I0
F0.0
I917
I0
I617
tp617
a(I618
I0
I0
F1.0
I0
F0.0
I0
F0.0
I0
F0.0
I918
I0
I618
tp618
a(I619
I0
I0
F1.0
I0
F0.0
I0
F0.0
I0
F0.0
I919
I0
I619
tp619
a(I620
I0
I0
F1.0
I0
F0.0
I0
F0.0
I0
F0.0
I920
I0
I620
tp620
a(I621
I0
I0
F1.0
I0
F0.0
I0
F0.0
I0
F0.0
I921
I0
I621
tp621
a(I622
I0
I0
F1.0
I0
F0.0
I0
F0.0
I0
F0.0
I922
I0
I622
tp622
a(I623
I0
I0
F1.0
I0
F0.0
I0
F0.0
I0
F0.0
I923
I0
I623
tp623
a(I624
I0
I0
F1.0
I0
F0.0
I0
F0.0
I0
F0.0
I924
I0
I624
tp624
a(I625
I0
I0
F1.0
I0
F0.0
I0
F0.0
I0
F0.0
I925
I0
I625
tp625
a(I626
I0
I0
F1.0
I0
F0.0
I0
F0.0
I0
F0.0
I926
I0
I626
tp626
a(I627
I0
I0
F1.0
I0
F0.0
I0
F0.0
I0
F0.0
I927
I0
I627
tp627
a(I628
I0
I0
F1.0
I0
F0.0
I0
F0.0
I0
F0.0
I928
I0
I628
tp628
a(I629
I0
I0
F1.0
I0
F0.0
I0
F0.0
I0
F0.0
I929
I0
I629
tp629
a(I630
I0
I0
F1.0
I0
F0.0
I0
F0.0
I0
F0.0
I930
I0
I630
tp630
a(I631
I0
I0
F1.0
I0
F0.0
I0
F0.0
I0
F0.0
I931
I0
I631
tp631
a(I632
I0
I0
F1.0
I0
F0.0
I0
F0.0
I0
F0.0
I932
I0
I632
tp632
a(I633
I0
I0
F1.0
I0
F0.0
I0
F0.0
I0
F0.0
I933
I0
I633
tp633
a(I634
I0
I0
F1.0
I0
F0.0
I0
F0.0
I0
F0.0
I934
I0
I634
tp634
a(I635
I0
I0
F1.0
I0
F0.0
I0
F0.0
I0
F0.0
I935
I0
I635
tp635
a(I636
I0
I0
F1.0
I0
F0.0
I0
F0.0
I0
F0.0
I936
I0
I636
tp636
a(I637
I0
I0
F1.0
I0
F0.0
I0
F0.0
I0
F0.0
I937
I0
I637
tp637
a(I638
I0
I0
F1.0
I0
F0.0
I0
F0.0
I0
F0.0
I938
I0
I638
tp638
a(I639
I0
I0
F1.0
I0
F0.0
I0
F0.0
I0
F0.0
I939
I0
I639
tp639
a(I640
I0
I0
F1.0
I0
F0.0
I0
F0.0
I0
F0.0
I940
I0
I640
tp640
a(I641
I0
I0
F1.0
I0
F0.0
I0
F0.0
I0
F0.0
I941
I0
I641
tp641
a(I642
I0
I0
F1.0
I0
F0.0
I0
F0.0
I0
F0.0
I942
I0
I642
tp642
a(I643
I0
I0
F1.0
I0
F0.0
I0
F0.0
I0
F0.0
I943
I0
I643
tp643
a(I644
I0
I0
F1.0
I0
F0.0
I0
F0.0
I0
F0.0
I944
I0
I644
tp644
a(I645
I0
I0
F1.0
I0
F0.0
I0
F0.0
I0
F0.0
I945
I0
I645
tp645
a(I646
I0
I0
F1.0
I0
F0.0
I0
F0.0
I0
F0.0
I946
I0
I646
tp646
a(I647
I0
I0
F1.0
I0
F0.0
I0
F0.0
I0
F0.0
I947
I0
I647
tp647
a(I648
I0
I0
F1.0
I0
F0.0
I0
F0.0
I0
F0.0
I948
I0
I648
tp648
a(I649
I0
I0
F1.0
I0
F0.0
I0
F0.0
I0
F0.0
I949
I0
I649
tp649
a(I650
I0
I0
F1.0
I0
F0.0
I0
F0.0
I0
F0.0
I950
I0
I650
tp650
a(I651
I0
I0
F1.0
I0
F0.0
I0
F0.0
I0
F0.0
I951
I0
I651
tp651
a(I652
I0
I0
F1.0
I0
F0.0
I0
F0.0
I0
F0.0
I952
I0
I652
tp652
a(I653
I0
I0
F1.0
I0
F0.0
I0
F0.0
I0
F0.0
I953
I0
I653
tp653
a(I654
I0
I0
F1.0
I0
F0.0
I0
F0.0
I0
F0.0
I954
I0
I654
tp654
a(I655
I0
I0
F1.0
I0
F0.0
I0
F0.0
I0
F0.0
I955
I0
I655
tp655
a(I656
I0
I0
F1.0
I0
F0.0
I0
F0.0
I0
F0.0
I956
I0
I656
tp656
a(I657
I0
I0
F1.0
I0
F0.0
I0
F0.0
I0
F0.0
I957
I0
I657
tp657
a(I658
I0
I0
F1.0
I0
F0.0
I0
F0.0
I0
F0.0
I958
I0
I658
tp658
a(I659
I0
I0
F1.0
I0
F0.0
I0
F0.0
I0
F0.0
I959
I0
I659
tp659
a(I660
I0
I0
F1.0
I0
F0.0
I0
F0.0
I0
F0.0
I960
I0
I660
tp660
a(I661
I0
I0
F1.0
I0
F0.0
I0
F0.0
I0
F0.0
I961
I0
I661
tp661
a(I662
I0
I0
F1.0
I0
F0.0
I0
F0.0
I0
F0.0
I962
I0
I662
tp662
a(I663
I0
I0
F1.0
I0
F0.0
I0
F0.0
I0
F0.0
I963
I0
I663
tp663
a(I664
I0
I0
F1.0
I0
F0.0
I0
F0.0
I0
F0.0
I964
I0
I664
tp664
a(I665
I0
I0
F1.0
I0
F0.0
I0
F0.0
I0
F0.0
I965
I0
I665
tp665
a(I666
I0
I0
F1.0
I0
F0.0
I0
F0.0
I0
F0.0
I966
I0
I666
tp666
a(I667
I0
I0
F1.0
I0
F0.0
I0
F0.0
I0
F0.0
I967
I0
I667
tp667
a(I668
I0
I0
F1.0
I0
F0.0
I0
F0.0
I0
F0.0
I968
I0
I668
tp668
a(I669
I0
I0
F1.0
I0
F0.0
I0
F0.0
I0
F0.0
I969
I0
I669
tp669
a(I670
I0
I0
F1.0
I0
F0.0
I0
F0.0
I0
F0.0
I970
I0
I670
tp670
a(I671
I0
I0
F1.0
I0
F0.0
I0
F0.0
I0
F0.0
I971
I0
I671
tp671
a(I672
I0
I0
F1.0
I0
F0.0
I0
F0.0
I0
F0.0
I972
I0
I672
tp672
a(I673
I0
I0
F1.0
I0
F0.0
I0
F0.0
I0
F0.0
I973
I0
I673
tp673
a(I674
I0
I0
F1.0
I0
F0.0
I0
F0.0
I0
F0.0
I974
I0
I674
tp674
a(I675
I0
I0
F1.0
I0
F0.0
I0
F0.0
I0
F0.0
I975
I0
I675
tp675
a(I676
I0
I0
F1.0
I0
F0.0
I0
F0.0
I0
F0.0
I976
I0
I676
tp676
a(I677
I0
I0
F1.0
I0
F0.0
I0
F0.0
I0
F0.0
I977
I0
I677
tp677
a(I678
I0
I0
F1.0
I0
F0.0
I0
F0.0
I0
F0.0
I978
I0
I678
tp678
a(I679
I0
I0
F1.0
I0
F0.0
I0
F0.0
I0
F0.0
I979
I0
I679
tp679
a(I680
I0
I0
F1.0
I0
F0.0
I0
F0.0
I0
F0.0
I980
I0
I680
tp680
a(I681
I0
I0
F1.0
I0
F0.0
I0
F0.0
I0
F0.0
I981
I0
I681
tp681
a(I682
I0
I0
F1.0
I0
F0.0
I0
F0.0
I0
F0.0
I982
I0
I682
tp682
a(I683
I0
I0
F1.0
I0
F0.0
I0
F0.0
I0
F0.0
I983
I0
I683
tp683
a(I684
I0
I0
F1.0
I0
F0.0
I0
F0.0
I0
F0.0
I984
I0
I684
tp684
a(I685
I0
I0
F1.0
I0
F0.0
I0
F0.0
I0
F0.0
I985
I0
I685
tp685
a(I686
I0
I0
F1.0
I0
F0.0
I0
F0.0
I0
F0.0
I986
I0
I686
tp686
a(I687
I0
I0
F1.0
I0
F0.0
I0
F0.0
I0
F0.0
I987
I0
I687
tp687
a(I688
I0
I0
F1.0
I0
F0.0
I0
F0.0
I0
F0.0
I988
I0
I688
tp688
a(I689
I0
I0
F1.0
I0
F0.0
I0
F0.0
I0
F0.0
I989
I0
I689
tp689
a(I690
I0
I0
F1.0
I0
F0.0
I0
F0.0
I0
F0.0
I990
I0
I690
tp690
a(I691
I0
I0
F1.0
I0
F0.0
I0
F0.0
I0
F0.0
I991
I0
I691
tp691
a(I692
I0
I0
F1.0
I0
F0.0
I0
F0.0
I0
F0.0
I992
I0
I692
tp692
a(I693
I0
I0
F1.0
I0
F0.0
I0
F0.0
I0
F0.0
I993
I0
I693
tp693
a(I694
I0
I0
F1.0
I0
F0.0
I0
F0.0
I0
F0.0
I994
I0
I694
tp694
a(I695
I0
I0
F1.0
I0
F0.0
I0
F0.0
I0
F0.0
I995
I0
I695
tp695
a(I696
I0
I0
F1.0
I0
F0.0
I0
F0.0
I0
F0.0
I996
I0
I696
tp696
a(I697
I0
I0
F1.0
I0
F0.0
I0
F0.0
I0
F0.0
I997
I0
I697
tp697
a(I698
I0
I0
F1.0
I0
F0.0
I0
F0.0
I0
F0.0
I998
I0
I698
tp698
a(I699
I0
I0
F1.0
I0
F0.0
I0
F0.0
I0
F0.0
I999
I0
I699
tp699
a(I700
I0
I0
F1.0
I0
F0.0
I0
F0.0
I0
F0.0
I1000
I0
I700
tp700
a(I701
I0
I0
F1.0
I0
F0.0
I0
F0.0
I0
F0.0
I1001
I0
I701
tp701
a(I702
I0
I0
F1.0
I0
F0.0
I0
F0.0
I0
F0.0
I1002
I0
I702
tp702
a(I703
I0
I0
F1.0
I0
F0.0
I0
F0.0
I0
F0.0
I1003
I0
I703
tp703
a(I704
I0
I0
F1.0
I0
F0.0
I0
F0.0
I0
F0.0
I1004
I0
I704
tp704
a(I705
I0
I0
F1.0
I0
F0.0
I0
F0.0
I0
F0.0
I1005
I0
I705
tp705
a(I706
I0
I0
F1.0
I0
F0.0
I0
F0.0
I0
F0.0
I1006
I0
I706
tp706
a(I707
I0
I0
F1.0
I0
F0.0
I0
F0.0
I0
F0.0
I1007
I0
I707
tp707
a(I708
I0
I0
F1.0
I0
F0.0
I0
F0.0
I0
F0.0
I1008
I0
I708
tp708
a(I709
I0
I0
F1.0
I0
F0.0
I0
F0.0
I0
F0.0
I1009
I0
I709
tp709
a(I710
I0
I0
F1.0
I0
F0.0
I0
F0.0
I0
F0.0
I1010
I0
I710
tp710
a(I711
I0
I0
F1.0
I0
F0.0
I0
F0.0
I0
F0.0
I1011
I0
I711
tp711
a(I712
I0
I0
F1.0
I0
F0.0
I0
F0.0
I0
F0.0
I1012
I0
I712
tp712
a(I713
I0
I0
F1.0
I0
F0.0
I0
F0.0
I0
F0.0
I1013
I0
I713
tp713
a(I714
I0
I0
F1.0
I0
F0.0
I0
F0.0
I0
F0.0
I1014
I0
I714
tp714
a(I715
I0
I0
F1.0
I0
F0.0
I0
F0.0
I0
F0.0
I1015
I0
I715
tp715
a(I716
I0
I0
F1.0
I0
F0.0
I0
F0.0
I0
F0.0
I1016
I0
I716
tp716
a(I717
I0
I0
F1.0
I0
F0.0
I0
F0.0
I0
F0.0
I1017
I0
I717
tp717
a(I718
I0
I0
F1.0
I0
F0.0
I0
F0.0
I0
F0.0
I1018
I0
I718
tp718
a(I719
I0
I0
F1.0
I0
F0.0
I0
F0.0
I0
F0.0
I1019
I0
I719
tp719
a(I720
I0
I0
F1.0
I0
F0.0
I0
F0.0
I0
F0.0
I1020
I0
I720
tp720
a(I721
I0
I0
F1.0
I0
F0.0
I0
F0.0
I0
F0.0
I1021
I0
I721
tp721
a(I722
I0
I0
F1.0
I0
F0.0
I0
F0.0
I0
F0.0
I1022
I0
I722
tp722
a(I723
I0
I0
F1.0
I0
F0.0
I0
F0.0
I0
F0.0
I1023
I0
I723
tp723
a(I724
I0
I0
F1.0
I0
F0.0
I0
F0.0
I0
F0.0
I1024
I0
I724
tp724
a(I725
I0
I0
F1.0
I0
F0.0
I0
F0.0
I0
F0.0
I1025
I0
I725
tp725
a(I726
I0
I0
F1.0
I0
F0.0
I0
F0.0
I0
F0.0
I1026
I0
I726
tp726
a(I727
I0
I0
F1.0
I0
F0.0
I0
F0.0
I0
F0.0
I1027
I0
I727
tp727
a(I728
I0
I0
F1.0
I0
F0.0
I0
F0.0
I0
F0.0
I1028
I0
I728
tp728
a(I729
I0
I0
F1.0
I0
F0.0
I0
F0.0
I0
F0.0
I1029
I0
I729
tp729
a(I730
I0
I0
F1.0
I0
F0.0
I0
F0.0
I0
F0.0
I1030
I0
I730
tp730
a(I731
I0
I0
F1.0
I0
F0.0
I0
F0.0
I0
F0.0
I1031
I0
I731
tp731
a(I732
I0
I0
F1.0
I0
F0.0
I0
F0.0
I0
F0.0
I1032
I0
I732
tp732
a(I733
I0
I0
F1.0
I0
F0.0
I0
F0.0
I0
F0.0
I1033
I0
I733
tp733
a(I734
I0
I0
F1.0
I0
F0.0
I0
F0.0
I0
F0.0
I1034
I0
I734
tp734
a(I735
I0
I0
F1.0
I0
F0.0
I0
F0.0
I0
F0.0
I1035
I0
I735
tp735
a(I736
I0
I0
F1.0
I0
F0.0
I0
F0.0
I0
F0.0
I1036
I0
I736
tp736
a(I737
I0
I0
F1.0
I0
F0.0
I0
F0.0
I0
F0.0
I1037
I0
I737
tp737
a(I738
I0
I0
F1.0
I0
F0.0
I0
F0.0
I0
F0.0
I1038
I0
I738
tp738
a(I739
I0
I0
F1.0
I0
F0.0
I0
F0.0
I0
F0.0
I1039
I0
I739
tp739
a(I740
I0
I0
F1.0
I0
F0.0
I0
F0.0
I0
F0.0
I1040
I0
I740
tp740
a(I741
I0
I0
F1.0
I0
F0.0
I0
F0.0
I0
F0.0
I1041
I0
I741
tp741
a(I742
I0
I0
F1.0
I0
F0.0
I0
F0.0
I0
F0.0
I1042
I0
I742
tp742
a(I743
I0
I0
F1.0
I0
F0.0
I0
F0.0
I0
F0.0
I1043
I0
I743
tp743
a(I744
I0
I0
F1.0
I0
F0.0
I0
F0.0
I0
F0.0
I1044
I0
I744
tp744
a(I745
I0
I0
F1.0
I0
F0.0
I0
F0.0
I0
F0.0
I1045
I0
I745
tp745
a(I746
I0
I0
F1.0
I0
F0.0
I0
F0.0
I0
F0.0
I1046
I0
I746
tp746
a(I747
I0
I0
F1.0
I0
F0.0
I0
F0.0
I0
F0.0
I1047
I0
I747
tp747
a(I748
I0
I0
F1.0
I0
F0.0
I0
F0.0
I0
F0.0
I1048
I0
I748
tp748
a(I749
I0
I0
F1.0
I0
F0.0
I0
F0.0
I0
F0.0
I1049
I0
I749
tp749
a(I750
I0
I0
F1.0
I0
F0.0
I0
F0.0
I0
F0.0
I1050
I0
I750
tp750
a(I751
I0
I0
F1.0
I0
F0.0
I0
F0.0
I0
F0.0
I1051
I0
I751
tp751
a(I752
I0
I0
F1.0
I0
F0.0
I0
F0.0
I0
F0.0
I1052
I0
I752
tp752
a(I753
I0
I0
F1.0
I0
F0.0
I0
F0.0
I0
F0.0
I1053
I0
I753
tp753
a(I754
I0
I0
F1.0
I0
F0.0
I0
F0.0
I0
F0.0
I1054
I0
I754
tp754
a(I755
I0
I0
F1.0
I0
F0.0
I0
F0.0
I0
F0.0
I1055
I0
I755
tp755
a(I756
I0
I0
F1.0
I0
F0.0
I0
F0.0
I0
F0.0
I1056
I0
I756
tp756
a(I757
I0
I0
F1.0
I0
F0.0
I0
F0.0
I0
F0.0
I1057
I0
I757
tp757
a(I758
I0
I0
F1.0
I0
F0.0
I0
F0.0
I0
F0.0
I1058
I0
I758
tp758
a(I759
I0
I0
F1.0
I0
F0.0
I0
F0.0
I0
F0.0
I1059
I0
I759
tp759
a(I760
I0
I0
F1.0
I0
F0.0
I0
F0.0
I0
F0.0
I1060
I0
I760
tp760
a(I761
I0
I0
F1.0
I0
F0.0
I0
F0.0
I0
F0.0
I1061
I0
I761
tp761
a(I762
I0
I0
F1.0
I0
F0.0
I0
F0.0
I0
F0.0
I1062
I0
I762
tp762
a(I763
I0
I0
F1.0
I0
F0.0
I0
F0.0
I0
F0.0
I1063
I0
I763
tp763
a(I764
I0
I0
F1.0
I0
F0.0
I0
F0.0
I0
F0.0
I1064
I0
I764
tp764
a(I765
I0
I0
F1.0
I0
F0.0
I0
F0.0
I0
F0.0
I1065
I0
I765
tp765
a(I766
I0
I0
F1.0
I0
F0.0
I0
F0.0
I0
F0.0
I1066
I0
I766
tp766
a(I767
I0
I0
F1.0
I0
F0.0
I0
F0.0
I0
F0.0
I1067
I0
I767
tp767
a(I768
I0
I0
F1.0
I0
F0.0
I0
F0.0
I0
F0.0
I1068
I0
I768
tp768
a(I769
I0
I0
F1.0
I0
F0.0
I0
F0.0
I0
F0.0
I1069
I0
I769
tp769
a(I770
I0
I0
F1.0
I0
F0.0
I0
F0.0
I0
F0.0
I1070
I0
I770
tp770
a(I771
I0
I0
F1.0
I0
F0.0
I0
F0.0
I0
F0.0
I1071
I0
I771
tp771
a(I772
I0
I0
F1.0
I0
F0.0
I0
F0.0
I0
F0.0
I1072
I0
I772
tp772
a(I773
I0
I0
F1.0
I0
F0.0
I0
F0.0
I0
F0.0
I1073
I0
I773
tp773
a(I774
I0
I0
F1.0
I0
F0.0
I0
F0.0
I0
F0.0
I1074
I0
I774
tp774
a(I775
I0
I0
F1.0
I0
F0.0
I0
F0.0
I0
F0.0
I1075
I0
I775
tp775
a(I776
I0
I0
F1.0
I0
F0.0
I0
F0.0
I0
F0.0
I1076
I0
I776
tp776
a(I777
I0
I0
F1.0
I0
F0.0
I0
F0.0
I0
F0.0
I1077
I0
I777
tp777
a(I778
I0
I0
F1.0
I0
F0.0
I0
F0.0
I0
F0.0
I1078
I0
I778
tp778
a(I779
I0
I0
F1.0
I0
F0.0
I0
F0.0
I0
F0.0
I1079
I0
I779
tp779
a(I780
I0
I0
F1.0
I0
F0.0
I0
F0.0
I0
F0.0
I1080
I0
I780
tp780
a(I781
I0
I0
F1.0
I0
F0.0
I0
F0.0
I0
F0.0
I1081
I0
I781
tp781
a(I782
I0
I0
F1.0
I0
F0.0
I0
F0.0
I0
F0.0
I1082
I0
I782
tp782
a(I783
I0
I0
F1.0
I0
F0.0
I0
F0.0
I0
F0.0
I1083
I0
I783
tp783
a(I784
I0
I0
F1.0
I0
F0.0
I0
F0.0
I0
F0.0
I1084
I0
I784
tp784
a(I785
I0
I0
F1.0
I0
F0.0
I0
F0.0
I0
F0.0
I1085
I0
I785
tp785
a(I786
I0
I0
F1.0
I0
F0.0
I0
F0.0
I0
F0.0
I1086
I0
I786
tp786
a(I787
I0
I0
F1.0
I0
F0.0
I0
F0.0
I0
F0.0
I1087
I0
I787
tp787
a(I788
I0
I0
F1.0
I0
F0.0
I0
F0.0
I0
F0.0
I1088
I0
I788
tp788
a(I789
I0
I0
F1.0
I0
F0.0
I0
F0.0
I0
F0.0
I1089
I0
I789
tp789
a(I790
I0
I0
F1.0
I0
F0.0
I0
F0.0
I0
F0.0
I1090
I0
I790
tp790
a(I791
I0
I0
F1.0
I0
F0.0
I0
F0.0
I0
F0.0
I1091
I0
I791
tp791
a(I792
I0
I0
F1.0
I0
F0.0
I0
F0.0
I0
F0.0
I1092
I0
I792
tp792
a(I793
I0
I0
F1.0
I0
F0.0
I0
F0.0
I0
F0.0
I1093
I0
I793
tp793
a(I794
I0
I0
F1.0
I0
F0.0
I0
F0.0
I0
F0.0
I1094
I0
I794
tp794
a(I795
I0
I0
F1.0
I0
F0.0
I0
F0.0
I0
F0.0
I1095
I0
I795
tp795
a(I796
I0
I0
F1.0
I0
F0.0
I0
F0.0
I0
F0.0
I1096
I0
I796
tp796
a(I797
I0
I0
F1.0
I0
F0.0
I0
F0.0
I0
F0.0
I1097
I0
I797
tp797
a(I798
I0
I0
F1.0
I0
F0.0
I0
F0.0
I0
F0.0
I1098
I0
I798
tp798
a(I799
I0
I0
F1.0
I0
F0.0
I0
F0.0
I0
F0.0
I1099
I0
I799
tp799
a(I800
I0
I0
F1.0
I0
F0.0
I0
F0.0
I0
F0.0
I1100
I0
I800
tp800
a(I801
I0
I0
F1.0
I0
F0.0
I0
F0.0
I0
F0.0
I1102
I1
I801
tp801
a(I802
I0
I0
F1.0
I0
F0.0
I0
F0.0
I0
F0.0
I1104
I1
I802
tp802
a(I803
I0
I0
F1.0
I0
F0.0
I0
F0.0
I0
F0.0
I1106
I1
I803
tp803
a(I804
I0
I0
F1.0
I0
F0.0
I0
F0.0
I0
F0.0
I1108
I1
I804
tp804
a(I805
I0
I0
F1.0
I0
F0.0
I0
F0.0
I0
F0.0
I1110
I1
I805
tp805
a(I806
I0
I0
F1.0
I0
F0.0
I0
F0.0
I0
F0.0
I1112
I1
I806
tp806
a(I807
I0
I0
F1.0
I0
F0.0
I0
F0.0
I0
F0.0
I1114
I1
I807
tp807
a(I808
I0
I0
F1.0
I0
F0.0
I0
F0.0
I0
F0.0
I1116
I1
I808
tp808
a(I809
I0
I0
F1.0
I0
F0.0
I0
F0.0
I0
F0.0
I1118
I1
I809
tp809
a(I810
I0
I0
F1.0
I0
F0.0
I0
F0.0
I0
F0.0
I1120
I1
I810
tp810
a(I811
I0
I0
F1.0
I0
F0.0
I0
F0.0
I0
F0.0
I1122
I1
I811
tp811
a(I812
I0
I0
F1.0
I0
F0.0
I0
F0.0
I0
F0.0
I1124
I1
I812
tp812
a(I813
I0
I0
F1.0
I0
F0.0
I0
F0.0
I0
F0.0
I1126
I1
I813
tp813
a(I814
I0
I0
F1.0
I0
F0.0
I0
F0.0
I0
F0.0
I1128
I1
I814
tp814
a(I815
I0
I0
F1.0
I0
F0.0
I0
F0.0
I0
F0.0
I1130
I1
I815
tp815
a(I816
I0
I0
F1.0
I0
F0.0
I0
F0.0
I0
F0.0
I1132
I1
I816
tp816
a(I817
I0
I0
F1.0
I0
F0.0
I0
F0.0
I0
F0.0
I1134
I1
I817
tp817
a(I818
I0
I0
F1.0
I0
F0.0
I0
F0.0
I0
F0.0
I1136
I1
I818
tp818
a(I819
I0
I0
F1.0
I0
F0.0
I0
F0.0
I0
F0.0
I1138
I1
I819
tp819
a(I820
I0
I0
F1.0
I0
F0.0
I0
F0.0
I0
F0.0
I1140
I1
I820
tp820
a(I821
I0
I0
F1.0
I0
F0.0
I0
F0.0
I0
F0.0
I1142
I1
I821
tp821
a(I822
I0
I0
F1.0
I0
F0.0
I0
F0.0
I0
F0.0
I1144
I1
I822
tp822
a(I823
I0
I0
F1.0
I0
F0.0
I0
F0.0
I0
F0.0
I1146
I1
I823
tp823
a(I824
I0
I0
F1.0
I0
F0.0
I0
F0.0
I0
F0.0
I1148
I1
I824
tp824
a(I825
I0
I0
F1.0
I0
F0.0
I0
F0.0
I0
F0.0
I1150
I1
I825
tp825
a(I826
I0
I0
F1.0
I0
F0.0
I0
F0.0
I0
F0.0
I1152
I1
I826
tp826
a(I827
I0
I0
F1.0
I0
F0.0
I0
F0.0
I0
F0.0
I1154
I1
I827
tp827
a(I828
I0
I0
F1.0
I0
F0.0
I0
F0.0
I0
F0.0
I1156
I1
I828
tp828
a(I829
I0
I0
F1.0
I0
F0.0
I0
F0.0
I0
F0.0
I1158
I1
I829
tp829
a(I830
I0
I0
F1.0
I0
F0.0
I0
F0.0
I0
F0.0
I1160
I1
I830
tp830
a(I831
I0
I0
F1.0
I0
F0.0
I0
F0.0
I0
F0.0
I1162
I1
I831
tp831
a(I832
I0
I0
F1.0
I0
F0.0
I0
F0.0
I0
F0.0
I1164
I1
I832
tp832
a(I833
I0
I0
F1.0
I0
F0.0
I0
F0.0
I0
F0.0
I1166
I1
I833
tp833
a(I834
I0
I0
F1.0
I0
F0.0
I0
F0.0
I0
F0.0
I1168
I1
I834
tp834
a(I835
I0
I0
F1.0
I0
F0.0
I0
F0.0
I0
F0.0
I1170
I1
I835
tp835
a(I836
I0
I0
F1.0
I0
F0.0
I0
F0.0
I0
F0.0
I1172
I1
I836
tp836
a(I837
I0
I0
F1.0
I0
F0.0
I0
F0.0
I0
F0.0
I1174
I1
I837
tp837
a(I838
I0
I0
F1.0
I0
F0.0
I0
F0.0
I0
F0.0
I1176
I1
I838
tp838
a(I839
I0
I0
F1.0
I0
F0.0
I0
F0.0
I0
F0.0
I1178
I1
I839
tp839
a(I840
I0
I0
F1.0
I0
F0.0
I0
F0.0
I0
F0.0
I1180
I1
I840
tp840
a(I841
I0
I0
F1.0
I0
F0.0
I0
F0.0
I0
F0.0
I1182
I1
I841
tp841
a(I842
I0
I0
F1.0
I0
F0.0
I0
F0.0
I0
F0.0
I1184
I1
I842
tp842
a(I843
I0
I0
F1.0
I0
F0.0
I0
F0.0
I0
F0.0
I1186
I1
I843
tp843
a(I844
I0
I0
F1.0
I0
F0.0
I0
F0.0
I0
F0.0
I1188
I1
I844
tp844
a(I845
I0
I0
F1.0
I0
F0.0
I0
F0.0
I0
F0.0
I1190
I1
I845
tp845
a(I846
I0
I0
F1.0
I0
F0.0
I0
F0.0
I0
F0.0
I1192
I1
I846
tp846
a(I847
I0
I0
F1.0
I0
F0.0
I0
F0.0
I0
F0.0
I1194
I1
I847
tp847
a(I848
I0
I0
F1.0
I0
F0.0
I0
F0.0
I0
F0.0
I1196
I1
I848
tp848
a(I849
I0
I0
F1.0
I0
F0.0
I0
F0.0
I0
F0.0
I1198
I1
I849
tp849
a(I850
I0
I0
F1.0
I0
F0.0
I0
F0.0
I0
F0.0
I1200
I1
I850
tp850
a(I851
I0
I0
F1.0
I0
F0.0
I0
F0.0
I0
F0.0
I1202
I1
I851
tp851
a(I852
I0
I0
F1.0
I0
F0.0
I0
F0.0
I0
F0.0
I1204
I1
I852
tp852
a(I853
I0
I0
F1.0
I0
F0.0
I0
F0.0
I0
F0.0
I1206
I1
I853
tp853
a(I854
I0
I0
F1.0
I0
F0.0
I0
F0.0
I0
F0.0
I1208
I1
I854
tp854
a(I855
I0
I0
F1.0
I0
F0.0
I0
F0.0
I0
F0.0
I1210
I1
I855
tp855
a(I856
I0
I0
F1.0
I0
F0.0
I0
F0.0
I0
F0.0
I1212
I1
I856
tp856
a(I857
I0
I0
F1.0
I0
F0.0
I0
F0.0
I0
F0.0
I1214
I1
I857
tp857
a(I858
I0
I0
F1.0
I0
F0.0
I0
F0.0
I0
F0.0
I1216
I1
I858
tp858
a(I859
I0
I0
F1.0
I0
F0.0
I0
F0.0
I0
F0.0
I1218
I1
I859
tp859
a(I860
I0
I0
F1.0
I0
F0.0
I0
F0.0
I0
F0.0
I1220
I1
I860
tp860
a(I861
I0
I0
F1.0
I0
F0.0
I0
F0.0
I0
F0.0
I1222
I1
I861
tp861
a(I862
I0
I0
F1.0
I0
F0.0
I0
F0.0
I0
F0.0
I1224
I1
I862
tp862
a(I863
I0
I0
F1.0
I0
F0.0
I0
F0.0
I0
F0.0
I1226
I1
I863
tp863
a(I864
I0
I0
F1.0
I0
F0.0
I0
F0.0
I0
F0.0
I1228
I1
I864
tp864
a(I865
I0
I0
F1.0
I0
F0.0
I0
F0.0
I0
F0.0
I1230
I1
I865
tp865
a(I866
I0
I0
F1.0
I0
F0.0
I0
F0.0
I0
F0.0
I1232
I1
I866
tp866
a(I867
I0
I0
F1.0
I0
F0.0
I0
F0.0
I0
F0.0
I1234
I1
I867
tp867
a(I868
I0
I0
F1.0
I0
F0.0
I0
F0.0
I0
F0.0
I1236
I1
I868
tp868
a(I869
I0
I0
F1.0
I0
F0.0
I0
F0.0
I0
F0.0
I1238
I1
I869
tp869
a(I870
I0
I0
F1.0
I0
F0.0
I0
F0.0
I0
F0.0
I1240
I1
I870
tp870
a(I871
I0
I0
F1.0
I0
F0.0
I0
F0.0
I0
F0.0
I1242
I1
I871
tp871
a(I872
I0
I0
F1.0
I0
F0.0
I0
F0.0
I0
F0.0
I1244
I1
I872
tp872
a(I873
I0
I0
F1.0
I0
F0.0
I0
F0.0
I0
F0.0
I1246
I1
I873
tp873
a(I874
I0
I0
F1.0
I0
F0.0
I0
F0.0
I0
F0.0
I1248
I1
I874
tp874
a(I875
I0
I0
F1.0
I0
F0.0
I0
F0.0
I0
F0.0
I1250
I1
I875
tp875
a(I876
I0
I0
F1.0
I0
F0.0
I0
F0.0
I0
F0.0
I1252
I1
I876
tp876
a(I877
I0
I0
F1.0
I0
F0.0
I0
F0.0
I0
F0.0
I1254
I1
I877
tp877
a(I878
I0
I0
F1.0
I0
F0.0
I0
F0.0
I0
F0.0
I1256
I1
I878
tp878
a(I879
I0
I0
F1.0
I0
F0.0
I0
F0.0
I0
F0.0
I1258
I1
I879
tp879
a(I880
I0
I0
F1.0
I0
F0.0
I0
F0.0
I0
F0.0
I1260
I1
I880
tp880
a(I881
I0
I0
F1.0
I0
F0.0
I0
F0.0
I0
F0.0
I1262
I1
I881
tp881
a(I882
I0
I0
F1.0
I0
F0.0
I0
F0.0
I0
F0.0
I1264
I1
I882
tp882
a(I883
I0
I0
F1.0
I0
F0.0
I0
F0.0
I0
F0.0
I1266
I1
I883
tp883
a(I884
I0
I0
F1.0
I0
F0.0
I0
F0.0
I0
F0.0
I1268
I1
I884
tp884
a(I885
I0
I0
F1.0
I0
F0.0
I0
F0.0
I0
F0.0
I1270
I1
I885
tp885
a(I886
I0
I0
F1.0
I0
F0.0
I0
F0.0
I0
F0.0
I1272
I1
I886
tp886
a(I887
I0
I0
F1.0
I0
F0.0
I0
F0.0
I0
F0.0
I1274
I1
I887
tp887
a(I888
I0
I0
F1.0
I0
F0.0
I0
F0.0
I0
F0.0
I1276
I1
I888
tp888
a(I889
I0
I0
F1.0
I0
F0.0
I0
F0.0
I0
F0.0
I1278
I1
I889
tp889
a(I890
I0
I0
F1.0
I0
F0.0
I0
F0.0
I0
F0.0
I1280
I1
I890
tp890
a(I891
I0
I0
F1.0
I0
F0.0
I0
F0.0
I0
F0.0
I1282
I1
I891
tp891
a(I892
I0
I0
F1.0
I0
F0.0
I0
F0.0
I0
F0.0
I1284
I1
I892
tp892
a(I893
I0
I0
F1.0
I0
F0.0
I0
F0.0
I0
F0.0
I1286
I1
I893
tp893
a(I894
I0
I0
F1.0
I0
F0.0
I0
F0.0
I0
F0.0
I1288
I1
I894
tp894
a(I895
I0
I0
F1.0
I0
F0.0
I0
F0.0
I0
F0.0
I1290
I1
I895
tp895
a(I896
I0
I0
F1.0
I0
F0.0
I0
F0.0
I0
F0.0
I1292
I1
I896
tp896
a(I897
I0
I0
F1.0
I0
F0.0
I0
F0.0
I0
F0.0
I1294
I1
I897
tp897
a(I898
I0
I0
F1.0
I0
F0.0
I0
F0.0
I0
F0.0
I1296
I1
I898
tp898
a(I899
I0
I0
F1.0
I0
F0.0
I0
F0.0
I0
F0.0
I1298
I1
I899
tp899
a(I900
I0
I0
F1.0
I0
F0.0
I0
F0.0
I0
F0.0
I1300
I1
I900
tp900
a(I901
I0
I0
F1.0
I0
F0.0
I0
F0.0
I0
F0.0
I1302
I1
I901
tp901
a(I902
I0
I0
F1.0
I0
F0.0
I0
F0.0
I0
F0.0
I1304
I1
I902
tp902
a(I903
I0
I0
F1.0
I0
F0.0
I0
F0.0
I0
F0.0
I1306
I1
I903
tp903
a(I904
I0
I0
F1.0
I0
F0.0
I0
F0.0
I0
F0.0
I1308
I1
I904
tp904
a(I905
I0
I0
F1.0
I0
F0.0
I0
F0.0
I0
F0.0
I1310
I1
I905
tp905
a(I906
I0
I0
F1.0
I0
F0.0
I0
F0.0
I0
F0.0
I1312
I1
I906
tp906
a(I907
I0
I0
F1.0
I0
F0.0
I0
F0.0
I0
F0.0
I1314
I1
I907
tp907
a(I908
I0
I0
F1.0
I0
F0.0
I0
F0.0
I0
F0.0
I1316
I1
I908
tp908
a(I909
I0
I0
F1.0
I0
F0.0
I0
F0.0
I0
F0.0
I1318
I1
I909
tp909
a(I910
I0
I0
F1.0
I0
F0.0
I0
F0.0
I0
F0.0
I1320
I1
I910
tp910
a(I911
I0
I0
F1.0
I0
F0.0
I0
F0.0
I0
F0.0
I1322
I1
I911
tp911
a(I912
I0
I0
F1.0
I0
F0.0
I0
F0.0
I0
F0.0
I1324
I1
I912
tp912
a(I913
I0
I0
F1.0
I0
F0.0
I0
F0.0
I0
F0.0
I1326
I1
I913
tp913
a(I914
I0
I0
F1.0
I0
F0.0
I0
F0.0
I0
F0.0
I1328
I1
I914
tp914
a(I915
I0
I0
F1.0
I0
F0.0
I0
F0.0
I0
F0.0
I1330
I1
I915
tp915
a(I916
I0
I0
F1.0
I0
F0.0
I0
F0.0
I0
F0.0
I1332
I1
I916
tp916
a(I917
I0
I0
F1.0
I0
F0.0
I0
F0.0
I0
F0.0
I1334
I1
I917
tp917
a(I918
I0
I0
F1.0
I0
F0.0
I0
F0.0
I0
F0.0
I1336
I1
I918
tp918
a(I919
I0
I0
F1.0
I0
F0.0
I0
F0.0
I0
F0.0
I1338
I1
I919
tp919
a(I920
I0
I0
F1.0
I0
F0.0
I0
F0.0
I0
F0.0
I1340
I1
I920
tp920
a(I921
I0
I0
F1.0
I0
F0.0
I0
F0.0
I0
F0.0
I1342
I1
I921
tp921
a(I922
I0
I0
F1.0
I0
F0.0
I0
F0.0
I0
F0.0
I1344
I1
I922
tp922
a(I923
I0
I0
F1.0
I0
F0.0
I0
F0.0
I0
F0.0
I1346
I1
I923
tp923
a(I924
I0
I0
F1.0
I0
F0.0
I0
F0.0
I0
F0.0
I1348
I1
I924
tp924
a(I925
I0
I0
F1.0
I0
F0.0
I0
F0.0
I0
F0.0
I1350
I1
I925
tp925
a(I926
I0
I0
F1.0
I0
F0.0
I0
F0.0
I0
F0.0
I1352
I1
I926
tp926
a(I927
I0
I0
F1.0
I0
F0.0
I0
F0.0
I0
F0.0
I1354
I1
I927
tp927
a(I928
I0
I0
F1.0
I0
F0.0
I0
F0.0
I0
F0.0
I1356
I1
I928
tp928
a(I929
I0
I0
F1.0
I0
F0.0
I0
F0.0
I0
F0.0
I1358
I1
I929
tp929
a(I930
I0
I0
F1.0
I0
F0.0
I0
F0.0
I0
F0.0
I1360
I1
I930
tp930
a(I931
I0
I0
F1.0
I0
F0.0
I0
F0.0
I0
F0.0
I1362
I1
I931
tp931
a(I932
I0
I0
F1.0
I0
F0.0
I0
F0.0
I0
F0.0
I1364
I1
I932
tp932
a(I933
I0
I0
F1.0
I0
F0.0
I0
F0.0
I0
F0.0
I1366
I1
I933
tp933
a(I934
I0
I0
F1.0
I0
F0.0
I0
F0.0
I0
F0.0
I1368
I1
I934
tp934
a(I935
I0
I0
F1.0
I0
F0.0
I0
F0.0
I0
F0.0
I1370
I1
I935
tp935
a(I936
I0
I0
F1.0
I0
F0.0
I0
F0.0
I0
F0.0
I1372
I1
I936
tp936
a(I937
I0
I0
F1.0
I0
F0.0
I0
F0.0
I0
F0.0
I1374
I1
I937
tp937
a(I938
I0
I0
F1.0
I0
F0.0
I0
F0.0
I0
F0.0
I1376
I1
I938
tp938
a(I939
I0
I0
F1.0
I0
F0.0
I0
F0.0
I0
F0.0
I1378
I1
I939
tp939
a(I940
I0
I0
F1.0
I0
F0.0
I0
F0.0
I0
F0.0
I1380
I1
I940
tp940
a(I941
I0
I0
F1.0
I0
F0.0
I0
F0.0
I0
F0.0
I1382
I1
I941
tp941
a(I942
I0
I0
F1.0
I0
F0.0
I0
F0.0
I0
F0.0
I1384
I1
I942
tp942
a(I943
I0
I0
F1.0
I0
F0.0
I0
F0.0
I0
F0.0
I1386
I1
I943
tp943
a(I944
I0
I0
F1.0
I0
F0.0
I0
F0.0
I0
F0.0
I1388
I1
I944
tp944
a(I945
I0
I0
F1.0
I0
F0.0
I0
F0.0
I0
F0.0
I1390
I1
I945
tp945
a(I946
I0
I0
F1.0
I0
F0.0
I0
F0.0
I0
F0.0
I1392
I1
I946
tp946
a(I947
I0
I0
F1.0
I0
F0.0
I0
F0.0
I0
F0.0
I1394
I1
I947
tp947
a(I948
I0
I0
F1.0
I0
F0.0
I0
F0.0
I0
F0.0
I1396
I1
I948
tp948
a(I949
I0
I0
F1.0
I0
F0.0
I0
F0.0
I0
F0.0
I1398
I1
I949
tp949
a(I950
I0
I0
F1.0
I0
F0.0
I0
F0.0
I0
F0.0
I1400
I1
I950
tp950
a(I951
I0
I0
F1.0
I0
F0.0
I0
F0.0
I0
F0.0
I1402
I1
I951
tp951
a(I952
I0
I0
F1.0
I0
F0.0
I0
F0.0
I0
F0.0
I1404
I1
I952
tp952
a(I953
I0
I0
F1.0
I0
F0.0
I0
F0.0
I0
F0.0
I1406
I1
I953
tp953
a(I954
I0
I0
F1.0
I0
F0.0
I0
F0.0
I0
F0.0
I1408
I1
I954
tp954
a(I955
I0
I0
F1.0
I0
F0.0
I0
F0.0
I0
F0.0
I1410
I1
I955
tp955
a(I956
I0
I0
F1.0
I0
F0.0
I0
F0.0
I0
F0.0
I1412
I1
I956
tp956
a(I957
I0
I0
F1.0
I0
F0.0
I0
F0.0
I0
F0.0
I1414
I1
I957
tp957
a(I958
I0
I0
F1.0
I0
F0.0
I0
F0.0
I0
F0.0
I1416
I1
I958
tp958
a(I959
I0
I0
F1.0
I0
F0.0
I0
F0.0
I0
F0.0
I1418
I1
I959
tp959
a(I960
I0
I0
F1.0
I0
F0.0
I0
F0.0
I0
F0.0
I1420
I1
I960
tp960
a(I961
I0
I0
F1.0
I0
F0.0
I0
F0.0
I0
F0.0
I1422
I1
I961
tp961
a(I962
I0
I0
F1.0
I0
F0.0
I0
F0.0
I0
F0.0
I1424
I1
I962
tp962
a(I963
I0
I0
F1.0
I0
F0.0
I0
F0.0
I0
F0.0
I1426
I1
I963
tp963
a(I964
I0
I0
F1.0
I0
F0.0
I0
F0.0
I0
F0.0
I1428
I1
I964
tp964
a(I965
I0
I0
F1.0
I0
F0.0
I0
F0.0
I0
F0.0
I1430
I1
I965
tp965
a(I966
I0
I0
F1.0
I0
F0.0
I0
F0.0
I0
F0.0
I1432
I1
I966
tp966
a(I967
I0
I0
F1.0
I0
F0.0
I0
F0.0
I0
F0.0
I1434
I1
I967
tp967
a(I968
I0
I0
F1.0
I0
F0.0
I0
F0.0
I0
F0.0
I1436
I1
I968
tp968
a(I969
I0
I0
F1.0
I0
F0.0
I0
F0.0
I0
F0.0
I1438
I1
I969
tp969
a(I970
I0
I0
F1.0
I0
F0.0
I0
F0.0
I0
F0.0
I1440
I1
I970
tp970
a(I971
I0
I0
F1.0
I0
F0.0
I0
F0.0
I0
F0.0
I1442
I1
I971
tp971
a(I972
I0
I0
F1.0
I0
F0.0
I0
F0.0
I0
F0.0
I1444
I1
I972
tp972
a(I973
I0
I0
F1.0
I0
F0.0
I0
F0.0
I0
F0.0
I1446
I1
I973
tp973
a(I974
I0
I0
F1.0
I0
F0.0
I0
F0.0
I0
F0.0
I1448
I1
I974
tp974
a(I975
I0
I0
F1.0
I0
F0.0
I0
F0.0
I0
F0.0
I1450
I1
I975
tp975
a(I976
I0
I0
F1.0
I0
F0.0
I0
F0.0
I0
F0.0
I1452
I1
I976
tp976
a(I977
I0
I0
F1.0
I0
F0.0
I0
F0.0
I0
F0.0
I1454
I1
I977
tp977
a(I978
I0
I0
F1.0
I0
F0.0
I0
F0.0
I0
F0.0
I1456
I1
I978
tp978
a(I979
I0
I0
F1.0
I0
F0.0
I0
F0.0
I0
F0.0
I1458
I1
I979
tp979
a(I980
I0
I0
F1.0
I0
F0.0
I0
F0.0
I0
F0.0
I1460
I1
I980
tp980
a(I981
I0
I0
F1.0
I0
F0.0
I0
F0.0
I0
F0.0
I1462
I1
I981
tp981
a(I982
I0
I0
F1.0
I0
F0.0
I0
F0.0
I0
F0.0
I1464
I1
I982
tp982
a(I983
I0
I0
F1.0
I0
F0.0
I0
F0.0
I0
F0.0
I1466
I1
I983
tp983
a(I984
I0
I0
F1.0
I0
F0.0
I0
F0.0
I0
F0.0
I1468
I1
I984
tp984
a(I985
I0
I0
F1.0
I0
F0.0
I0
F0.0
I0
F0.0
I1470
I1
I985
tp985
a(I986
I0
I0
F1.0
I0
F0.0
I0
F0.0
I0
F0.0
I1472
I1
I986
tp986
a(I987
I0
I0
F1.0
I0
F0.0
I0
F0.0
I0
F0.0
I1474
I1
I987
tp987
a(I988
I0
I0
F1.0
I0
F0.0
I0
F0.0
I0
F0.0
I1476
I1
I988
tp988
a(I989
I0
I0
F1.0
I0
F0.0
I0
F0.0
I0
F0.0
I1478
I1
I989
tp989
a(I990
I0
I0
F1.0
I0
F0.0
I0
F0.0
I0
F0.0
I1480
I1
I990
tp990
a(I991
I0
I0
F1.0
I0
F0.0
I0
F0.0
I0
F0.0
I1482
I1
I991
tp991
a(I992
I0
I0
F1.0
I0
F0.0
I0
F0.0
I0
F0.0
I1484
I1
I992
tp992
a(I993
I0
I0
F1.0
I0
F0.0
I0
F0.0
I0
F0.0
I1486
I1
I993
tp993
a(I994
I0
I0
F1.0
I0
F0.0
I0
F0.0
I0
F0.0
I1488
I1
I994
tp994
a(I995
I0
I0
F1.0
I0
F0.0
I0
F0.0
I0
F0.0
I1490
I1
I995
tp995
a(I996
I0
I0
F1.0
I0
F0.0
I0
F0.0
I0
F0.0
I1492
I1
I996
tp996
a(I997
I0
I0
F1.0
I0
F0.0
I0
F0.0
I0
F0.0
I1494
I1
I997
tp997
a(I998
I0
I0
F1.0
I0
F0.0
I0
F0.0
I0
F0.0
I1496
I1
I998
tp998
a(I999
I0
I0
F1.0
I0
F0.0
I0
F0.0
I0
F0.0
I1498
I1
I999
tp999
a(I1000
I0
I0
F1.0
I0
F0.0
I0
F0.0
I0
F0.0
I1500
I1
I1000
tp1000
a(I1001
I0
I0
F1.0
I0
F0.0
I0
F0.0
I0
F0.0
I1502
I1
I1001
tp1001
a(I1002
I0
I0
F1.0
I0
F0.0
I0
F0.0
I0
F0.0
I1504
I1
I1002
tp1002
a(I1003
I0
I0
F1.0
I0
F0.0
I0
F0.0
I0
F0.0
I1506
I1
I1003
tp1003
a(I1004
I0
I0
F1.0
I0
F0.0
I0
F0.0
I0
F0.0
I1508
I1
I1004
tp1004
a(I1005
I0
I0
F1.0
I0
F0.0
I0
F0.0
I0
F0.0
I1510
I1
I1005
tp1005
a(I1006
I0
I0
F1.0
I0
F0.0
I0
F0.0
I0
F0.0
I1512
I1
I1006
tp1006
a(I1007
I0
I0
F1.0
I0
F0.0
I0
F0.0
I0
F0.0
I1514
I1
I1007
tp1007
a(I1008
I0
I0
F1.0
I0
F0.0
I0
F0.0
I0
F0.0
I1516
I1
I1008
tp1008
a(I1009
I0
I0
F1.0
I0
F0.0
I0
F0.0
I0
F0.0
I1518
I1
I1009
tp1009
a(I1010
I0
I0
F1.0
I0
F0.0
I0
F0.0
I0
F0.0
I1520
I1
I1010
tp1010
a(I1011
I0
I0
F1.0
I0
F0.0
I0
F0.0
I0
F0.0
I1522
I1
I1011
tp1011
a(I1012
I0
I0
F1.0
I0
F0.0
I0
F0.0
I0
F0.0
I1524
I1
I1012
tp1012
a(I1013
I0
I0
F1.0
I0
F0.0
I0
F0.0
I0
F0.0
I1526
I1
I1013
tp1013
a(I1014
I0
I0
F1.0
I0
F0.0
I0
F0.0
I0
F0.0
I1528
I1
I1014
tp1014
a(I1015
I0
I0
F1.0
I0
F0.0
I0
F0.0
I0
F0.0
I1530
I1
I1015
tp1015
a(I1016
I0
I0
F1.0
I0
F0.0
I0
F0.0
I0
F0.0
I1532
I1
I1016
tp1016
a(I1017
I0
I0
F1.0
I0
F0.0
I0
F0.0
I0
F0.0
I1534
I1
I1017
tp1017
a(I1018
I0
I0
F1.0
I0
F0.0
I0
F0.0
I0
F0.0
I1536
I1
I1018
tp1018
a(I1019
I0
I0
F1.0
I0
F0.0
I0
F0.0
I0
F0.0
I1538
I1
I1019
tp1019
a(I1020
I0
I0
F1.0
I0
F0.0
I0
F0.0
I0
F0.0
I1540
I1
I1020
tp1020
a(I1021
I0
I0
F1.0
I0
F0.0
I0
F0.0
I0
F0.0
I1543
I2
I1021
tp1021
a(I1022
I0
I0
F1.0
I0
F0.0
I0
F0.0
I0
F0.0
I1546
I2
I1022
tp1022
a(I1023
I0
I0
F1.0
I0
F0.0
I0
F0.0
I0
F0.0
I1549
I2
I1023
tp1023
a(I1024
I0
I0
F1.0
I0
F0.0
I0
F0.0
I0
F0.0
I1552
I2
I1024
tp1024
a(I1025
I0
I0
F1.0
I0
F0.0
I0
F0.0
I0
F0.0
I1555
I2
I1025
tp1025
a(I1026
I0
I0
F1.0
I0
F0.0
I0
F0.0
I0
F0.0
I1558
I2
I1026
tp1026
a(I1027
I0
I0
F1.0
I0
F0.0
I0
F0.0
I0
F0.0
I1561
I2
I1027
tp1027
a(I1028
I0
I0
F1.0
I0
F0.0
I0
F0.0
I0
F0.0
I1564
I2
I1028
tp1028
a(I1029
I0
I0
F1.0
I0
F0.0
I0
F0.0
I0
F0.0
I1567
I2
I1029
tp1029
a(I1030
I0
I0
F1.0
I0
F0.0
I0
F0.0
I0
F0.0
I1570
I2
I1030
tp1030
a(I1031
I0
I0
F1.0
I0
F0.0
I0
F0.0
I0
F0.0
I1573
I2
I1031
tp1031
a(I1032
I0
I0
F1.0
I0
F0.0
I0
F0.0
I0
F0.0
I1576
I2
I1032
tp1032
a(I1033
I0
I0
F1.0
I0
F0.0
I0
F0.0
I0
F0.0
I1579
I2
I1033
tp1033
a(I1034
I0
I0
F1.0
I0
F0.0
I0
F0.0
I0
F0.0
I1582
I2
I1034
tp1034
a(I1035
I0
I0
F1.0
I0
F0.0
I0
F0.0
I0
F0.0
I1585
I2
I1035
tp1035
a(I1036
I0
I0
F1.0
I0
F0.0
I0
F0.0
I0
F0.0
I1588
I2
I1036
tp1036
a(I1037
I0
I0
F1.0
I0
F0.0
I0
F0.0
I0
F0.0
I1591
I2
I1037
tp1037
a(I1038
I0
I0
F1.0
I0
F0.0
I0
F0.0
I0
F0.0
I1594
I2
I1038
tp1038
a(I1039
I0
I0
F1.0
I0
F0.0
I0
F0.0
I0
F0.0
I1597
I2
I1039
tp1039
a(I1040
I0
I0
F1.0
I0
F0.0
I0
F0.0
I0
F0.0
I1600
I2
I1040
tp1040
a(I1041
I0
I0
F1.0
I0
F0.0
I0
F0.0
I0
F0.0
I1603
I2
I1041
tp1041
a(I1042
I0
I0
F1.0
I0
F0.0
I0
F0.0
I0
F0.0
I1606
I2
I1042
tp1042
a(I1043
I0
I0
F1.0
I0
F0.0
I0
F0.0
I0
F0.0
I1609
I2
I1043
tp1043
a(I1044
I0
I0
F1.0
I0
F0.0
I0
F0.0
I0
F0.0
I1612
I2
I1044
tp1044
a(I1045
I0
I0
F1.0
I0
F0.0
I0
F0.0
I0
F0.0
I1615
I2
I1045
tp1045
a(I1046
I0
I0
F1.0
I0
F0.0
I0
F0.0
I0
F0.0
I1618
I2
I1046
tp1046
a(I1047
I0
I0
F1.0
I0
F0.0
I0
F0.0
I0
F0.0
I1621
I2
I1047
tp1047
a(I1048
I0
I0
F1.0
I0
F0.0
I0
F0.0
I0
F0.0
I1624
I2
I1048
tp1048
a(I1049
I0
I0
F1.0
I0
F0.0
I0
F0.0
I0
F0.0
I1627
I2
I1049
tp1049
a(I1050
I0
I0
F1.0
I0
F0.0
I0
F0.0
I0
F0.0
I1630
I2
I1050
tp1050
a(I1051
I0
I0
F1.0
I0
F0.0
I0
F0.0
I0
F0.0
I1633
I2
I1051
tp1051
a(I1052
I0
I0
F1.0
I0
F0.0
I0
F0.0
I0
F0.0
I1636
I2
I1052
tp1052
a(I1053
I0
I0
F1.0
I0
F0.0
I0
F0.0
I0
F0.0
I1639
I2
I1053
tp1053
a(I1054
I0
I0
F1.0
I0
F0.0
I0
F0.0
I0
F0.0
I1642
I2
I1054
tp1054
a(I1055
I0
I0
F1.0
I0
F0.0
I0
F0.0
I0
F0.0
I1645
I2
I1055
tp1055
a(I1056
I0
I0
F1.0
I0
F0.0
I0
F0.0
I0
F0.0
I1648
I2
I1056
tp1056
a(I1057
I0
I0
F1.0
I0
F0.0
I0
F0.0
I0
F0.0
I1651
I2
I1057
tp1057
a(I1058
I0
I0
F1.0
I0
F0.0
I0
F0.0
I0
F0.0
I1654
I2
I1058
tp1058
a(I1059
I0
I0
F1.0
I0
F0.0
I0
F0.0
I0
F0.0
I1657
I2
I1059
tp1059
a(I1060
I0
I0
F1.0
I0
F0.0
I0
F0.0
I0
F0.0
I1660
I2
I1060
tp1060
a(I1061
I0
I0
F1.0
I0
F0.0
I0
F0.0
I0
F0.0
I1663
I2
I1061
tp1061
a(I1062
I0
I0
F1.0
I0
F0.0
I0
F0.0
I0
F0.0
I1666
I2
I1062
tp1062
a(I1063
I0
I0
F1.0
I0
F0.0
I0
F0.0
I0
F0.0
I1669
I2
I1063
tp1063
a(I1064
I0
I0
F1.0
I0
F0.0
I0
F0.0
I0
F0.0
I1672
I2
I1064
tp1064
a(I1065
I0
I0
F1.0
I0
F0.0
I0
F0.0
I0
F0.0
I1675
I2
I1065
tp1065
a(I1066
I0
I0
F1.0
I0
F0.0
I0
F0.0
I0
F0.0
I1678
I2
I1066
tp1066
a(I1067
I0
I0
F1.0
I0
F0.0
I0
F0.0
I0
F0.0
I1681
I2
I1067
tp1067
a(I1068
I0
I0
F1.0
I0
F0.0
I0
F0.0
I0
F0.0
I1684
I2
I1068
tp1068
a(I1069
I0
I0
F1.0
I0
F0.0
I0
F0.0
I0
F0.0
I1687
I2
I1069
tp1069
a(I1070
I0
I0
F1.0
I0
F0.0
I0
F0.0
I0
F0.0
I1690
I2
I1070
tp1070
a(I1071
I0
I0
F1.0
I0
F0.0
I0
F0.0
I0
F0.0
I1693
I2
I1071
tp1071
a(I1072
I0
I0
F1.0
I0
F0.0
I0
F0.0
I0
F0.0
I1696
I2
I1072
tp1072
a(I1073
I0
I0
F1.0
I0
F0.0
I0
F0.0
I0
F0.0
I1699
I2
I1073
tp1073
a(I1074
I0
I0
F1.0
I0
F0.0
I0
F0.0
I0
F0.0
I1702
I2
I1074
tp1074
a(I1075
I0
I0
F1.0
I0
F0.0
I0
F0.0
I0
F0.0
I1705
I2
I1075
tp1075
a(I1076
I0
I0
F1.0
I0
F0.0
I0
F0.0
I0
F0.0
I1708
I2
I1076
tp1076
a(I1077
I0
I0
F1.0
I0
F0.0
I0
F0.0
I0
F0.0
I1711
I2
I1077
tp1077
a(I1078
I0
I0
F1.0
I0
F0.0
I0
F0.0
I0
F0.0
I1714
I2
I1078
tp1078
a(I1079
I0
I0
F1.0
I0
F0.0
I0
F0.0
I0
F0.0
I1717
I2
I1079
tp1079
a(I1080
I0
I0
F1.0
I0
F0.0
I0
F0.0
I0
F0.0
I1720
I2
I1080
tp1080
a(I1081
I0
I0
F1.0
I0
F0.0
I0
F0.0
I0
F0.0
I1723
I2
I1081
tp1081
a(I1082
I0
I0
F1.0
I0
F0.0
I0
F0.0
I0
F0.0
I1726
I2
I1082
tp1082
a(I1083
I0
I0
F1.0
I0
F0.0
I0
F0.0
I0
F0.0
I1729
I2
I1083
tp1083
a(I1084
I0
I0
F1.0
I0
F0.0
I0
F0.0
I0
F0.0
I1732
I2
I1084
tp1084
a(I1085
I0
I0
F1.0
I0
F0.0
I0
F0.0
I0
F0.0
I1735
I2
I1085
tp1085
a(I1086
I0
I0
F1.0
I0
F0.0
I0
F0.0
I0
F0.0
I1738
I2
I1086
tp1086
a(I1087
I0
I0
F1.0
I0
F0.0
I0
F0.0
I0
F0.0
I1741
I2
I1087
tp1087
a(I1088
I0
I0
F1.0
I0
F0.0
I0
F0.0
I0
F0.0
I1744
I2
I1088
tp1088
a(I1089
I0
I0
F1.0
I0
F0.0
I0
F0.0
I0
F0.0
I1747
I2
I1089
tp1089
a(I1090
I0
I0
F1.0
I0
F0.0
I0
F0.0
I0
F0.0
I1750
I2
I1090
tp1090
a(I1091
I0
I0
F1.0
I0
F0.0
I0
F0.0
I0
F0.0
I1753
I2
I1091
tp1091
a(I1092
I0
I0
F1.0
I0
F0.0
I0
F0.0
I0
F0.0
I1756
I2
I1092
tp1092
a(I1093
I0
I0
F1.0
I0
F0.0
I0
F0.0
I0
F0.0
I1759
I2
I1093
tp1093
a(I1094
I0
I0
F1.0
I0
F0.0
I0
F0.0
I0
F0.0
I1762
I2
I1094
tp1094
a(I1095
I0
I0
F1.0
I0
F0.0
I0
F0.0
I0
F0.0
I1765
I2
I1095
tp1095
a(I1096
I0
I0
F1.0
I0
F0.0
I0
F0.0
I0
F0.0
I1768
I2
I1096
tp1096
a(I1097
I0
I0
F1.0
I0
F0.0
I0
F0.0
I0
F0.0
I1771
I2
I1097
tp1097
a(I1098
I0
I0
F1.0
I0
F0.0
I0
F0.0
I0
F0.0
I1774
I2
I1098
tp1098
a(I1099
I0
I0
F1.0
I0
F0.0
I0
F0.0
I0
F0.0
I1777
I2
I1099
tp1099
a(I1100
I0
I0
F1.0
I0
F0.0
I0
F0.0
I0
F0.0
I1780
I2
I1100
tp1100
a(I1101
I0
I0
F1.0
I0
F0.0
I0
F0.0
I0
F0.0
I1781
I0
I1101
tp1101
a(I1102
I0
I0
F1.0
I0
F0.0
I0
F0.0
I0
F0.0
I1782
I0
I1102
tp1102
a(I1103
I0
I0
F1.0
I0
F0.0
I0
F0.0
I0
F0.0
I1783
I0
I1103
tp1103
a(I1104
I0
I0
F1.0
I0
F0.0
I0
F0.0
I0
F0.0
I1784
I0
I1104
tp1104
a(I1105
I0
I0
F1.0
I0
F0.0
I0
F0.0
I0
F0.0
I1785
I0
I1105
tp1105
a(I1106
I0
I0
F1.0
I0
F0.0
I0
F0.0
I0
F0.0
I1786
I0
I1106
tp1106
a(I1107
I0
I0
F1.0
I0
F0.0
I0
F0.0
I0
F0.0
I1787
I0
I1107
tp1107
a(I1108
I0
I0
F1.0
I0
F0.0
I0
F0.0
I0
F0.0
I1788
I0
I1108
tp1108
a(I1109
I0
I0
F1.0
I0
F0.0
I0
F0.0
I0
F0.0
I1789
I0
I1109
tp1109
a(I1110
I0
I0
F1.0
I0
F0.0
I0
F0.0
I0
F0.0
I1790
I0
I1110
tp1110
a(I1111
I0
I0
F1.0
I0
F0.0
I0
F0.0
I0
F0.0
I1791
I0
I1111
tp1111
a(I1112
I0
I0
F1.0
I0
F0.0
I0
F0.0
I0
F0.0
I1792
I0
I1112
tp1112
a(I1113
I0
I0
F1.0
I0
F0.0
I0
F0.0
I0
F0.0
I1793
I0
I1113
tp1113
a(I1114
I0
I0
F1.0
I0
F0.0
I0
F0.0
I0
F0.0
I1794
I0
I1114
tp1114
a(I1115
I0
I0
F1.0
I0
F0.0
I0
F0.0
I0
F0.0
I1795
I0
I1115
tp1115
a(I1116
I0
I0
F1.0
I0
F0.0
I0
F0.0
I0
F0.0
I1796
I0
I1116
tp1116
a(I1117
I0
I0
F1.0
I0
F0.0
I0
F0.0
I0
F0.0
I1797
I0
I1117
tp1117
a(I1118
I0
I0
F1.0
I0
F0.0
I0
F0.0
I0
F0.0
I1798
I0
I1118
tp1118
a(I1119
I0
I0
F1.0
I0
F0.0
I0
F0.0
I0
F0.0
I1799
I0
I1119
tp1119
a(I1120
I0
I0
F1.0
I0
F0.0
I0
F0.0
I0
F0.0
I1800
I0
I1120
tp1120
a(I1121
I0
I0
F1.0
I0
F0.0
I0
F0.0
I0
F0.0
I1801
I0
I1121
tp1121
a(I1122
I0
I0
F1.0
I0
F0.0
I0
F0.0
I0
F0.0
I1802
I0
I1122
tp1122
a(I1123
I0
I0
F1.0
I0
F0.0
I0
F0.0
I0
F0.0
I1803
I0
I1123
tp1123
a(I1124
I0
I0
F1.0
I0
F0.0
I0
F0.0
I0
F0.0
I1804
I0
I1124
tp1124
a(I1125
I0
I0
F1.0
I0
F0.0
I0
F0.0
I0
F0.0
I1805
I0
I1125
tp1125
a(I1126
I0
I0
F1.0
I0
F0.0
I0
F0.0
I0
F0.0
I1806
I0
I1126
tp1126
a(I1127
I0
I0
F1.0
I0
F0.0
I0
F0.0
I0
F0.0
I1807
I0
I1127
tp1127
a(I1128
I0
I0
F1.0
I0
F0.0
I0
F0.0
I0
F0.0
I1808
I0
I1128
tp1128
a(I1129
I0
I0
F1.0
I0
F0.0
I0
F0.0
I0
F0.0
I1809
I0
I1129
tp1129
a(I1130
I0
I0
F1.0
I0
F0.0
I0
F0.0
I0
F0.0
I1810
I0
I1130
tp1130
a(I1131
I0
I0
F1.0
I0
F0.0
I0
F0.0
I0
F0.0
I1811
I0
I1131
tp1131
a(I1132
I0
I0
F1.0
I0
F0.0
I0
F0.0
I0
F0.0
I1812
I0
I1132
tp1132
a(I1133
I0
I0
F1.0
I0
F0.0
I0
F0.0
I0
F0.0
I1813
I0
I1133
tp1133
a(I1134
I0
I0
F1.0
I0
F0.0
I0
F0.0
I0
F0.0
I1814
I0
I1134
tp1134
a(I1135
I0
I0
F1.0
I0
F0.0
I0
F0.0
I0
F0.0
I1815
I0
I1135
tp1135
a(I1136
I0
I0
F1.0
I0
F0.0
I0
F0.0
I0
F0.0
I1816
I0
I1136
tp1136
a(I1137
I0
I0
F1.0
I0
F0.0
I0
F0.0
I0
F0.0
I1817
I0
I1137
tp1137
a(I1138
I0
I0
F1.0
I0
F0.0
I0
F0.0
I0
F0.0
I1818
I0
I1138
tp1138
a(I1139
I0
I0
F1.0
I0
F0.0
I0
F0.0
I0
F0.0
I1819
I0
I1139
tp1139
a(I1140
I0
I0
F1.0
I0
F0.0
I0
F0.0
I0
F0.0
I1820
I0
I1140
tp1140
a(I1141
I0
I0
F1.0
I0
F0.0
I0
F0.0
I0
F0.0
I1821
I0
I1141
tp1141
a(I1142
I0
I0
F1.0
I0
F0.0
I0
F0.0
I0
F0.0
I1822
I0
I1142
tp1142
a(I1143
I0
I0
F1.0
I0
F0.0
I0
F0.0
I0
F0.0
I1823
I0
I1143
tp1143
a(I1144
I0
I0
F1.0
I0
F0.0
I0
F0.0
I0
F0.0
I1824
I0
I1144
tp1144
a(I1145
I0
I0
F1.0
I0
F0.0
I0
F0.0
I0
F0.0
I1825
I0
I1145
tp1145
a(I1146
I0
I0
F1.0
I0
F0.0
I0
F0.0
I0
F0.0
I1826
I0
I1146
tp1146
a(I1147
I0
I0
F1.0
I0
F0.0
I0
F0.0
I0
F0.0
I1827
I0
I1147
tp1147
a(I1148
I0
I0
F1.0
I0
F0.0
I0
F0.0
I0
F0.0
I1828
I0
I1148
tp1148
a(I1149
I0
I0
F1.0
I0
F0.0
I0
F0.0
I0
F0.0
I1829
I0
I1149
tp1149
a(I1150
I0
I0
F1.0
I0
F0.0
I0
F0.0
I0
F0.0
I1830
I0
I1150
tp1150
a(I1151
I0
I0
F1.0
I0
F0.0
I0
F0.0
I0
F0.0
I1831
I0
I1151
tp1151
a(I1152
I0
I0
F1.0
I0
F0.0
I0
F0.0
I0
F0.0
I1832
I0
I1152
tp1152
a(I1153
I0
I0
F1.0
I0
F0.0
I0
F0.0
I0
F0.0
I1833
I0
I1153
tp1153
a(I1154
I0
I0
F1.0
I0
F0.0
I0
F0.0
I0
F0.0
I1834
I0
I1154
tp1154
a(I1155
I0
I0
F1.0
I0
F0.0
I0
F0.0
I0
F0.0
I1835
I0
I1155
tp1155
a(I1156
I0
I0
F1.0
I0
F0.0
I0
F0.0
I0
F0.0
I1836
I0
I1156
tp1156
a(I1157
I0
I0
F1.0
I0
F0.0
I0
F0.0
I0
F0.0
I1837
I0
I1157
tp1157
a(I1158
I0
I0
F1.0
I0
F0.0
I0
F0.0
I0
F0.0
I1838
I0
I1158
tp1158
a(I1159
I0
I0
F1.0
I0
F0.0
I0
F0.0
I0
F0.0
I1839
I0
I1159
tp1159
a(I1160
I0
I0
F1.0
I0
F0.0
I0
F0.0
I0
F0.0
I1840
I0
I1160
tp1160
a(I1161
I0
I0
F1.0
I0
F0.0
I0
F0.0
I0
F0.0
I1841
I0
I1161
tp1161
a(I1162
I0
I0
F1.0
I0
F0.0
I0
F0.0
I0
F0.0
I1842
I0
I1162
tp1162
a(I1163
I0
I0
F1.0
I0
F0.0
I0
F0.0
I0
F0.0
I1843
I0
I1163
tp1163
a(I1164
I0
I0
F1.0
I0
F0.0
I0
F0.0
I0
F0.0
I1844
I0
I1164
tp1164
a(I1165
I0
I0
F1.0
I0
F0.0
I0
F0.0
I0
F0.0
I1845
I0
I1165
tp1165
a(I1166
I0
I0
F1.0
I0
F0.0
I0
F0.0
I0
F0.0
I1846
I0
I1166
tp1166
a(I1167
I0
I0
F1.0
I0
F0.0
I0
F0.0
I0
F0.0
I1847
I0
I1167
tp1167
a(I1168
I0
I0
F1.0
I0
F0.0
I0
F0.0
I0
F0.0
I1848
I0
I1168
tp1168
a(I1169
I0
I0
F1.0
I0
F0.0
I0
F0.0
I0
F0.0
I1849
I0
I1169
tp1169
a(I1170
I0
I0
F1.0
I0
F0.0
I0
F0.0
I0
F0.0
I1850
I0
I1170
tp1170
a(I1171
I0
I0
F1.0
I0
F0.0
I0
F0.0
I0
F0.0
I1851
I0
I1171
tp1171
a(I1172
I0
I0
F1.0
I0
F0.0
I0
F0.0
I0
F0.0
I1852
I0
I1172
tp1172
a(I1173
I0
I0
F1.0
I0
F0.0
I0
F0.0
I0
F0.0
I1853
I0
I1173
tp1173
a(I1174
I0
I0
F1.0
I0
F0.0
I0
F0.0
I0
F0.0
I1854
I0
I1174
tp1174
a(I1175
I0
I0
F1.0
I0
F0.0
I0
F0.0
I0
F0.0
I1855
I0
I1175
tp1175
a(I1176
I0
I0
F1.0
I0
F0.0
I0
F0.0
I0
F0.0
I1856
I0
I1176
tp1176
a(I1177
I0
I0
F1.0
I0
F0.0
I0
F0.0
I0
F0.0
I1857
I0
I1177
tp1177
a(I1178
I0
I0
F1.0
I0
F0.0
I0
F0.0
I0
F0.0
I1858
I0
I1178
tp1178
a(I1179
I0
I0
F1.0
I0
F0.0
I0
F0.0
I0
F0.0
I1859
I0
I1179
tp1179
a(I1180
I0
I0
F1.0
I0
F0.0
I0
F0.0
I0
F0.0
I1860
I0
I1180
tp1180
a(I1181
I0
I0
F1.0
I0
F0.0
I0
F0.0
I0
F0.0
I1861
I0
I1181
tp1181
a(I1182
I0
I0
F1.0
I0
F0.0
I0
F0.0
I0
F0.0
I1862
I0
I1182
tp1182
a(I1183
I0
I0
F1.0
I0
F0.0
I0
F0.0
I0
F0.0
I1863
I0
I1183
tp1183
a(I1184
I0
I0
F1.0
I0
F0.0
I0
F0.0
I0
F0.0
I1864
I0
I1184
tp1184
a(I1185
I0
I0
F1.0
I0
F0.0
I0
F0.0
I0
F0.0
I1865
I0
I1185
tp1185
a(I1186
I0
I0
F1.0
I0
F0.0
I0
F0.0
I0
F0.0
I1866
I0
I1186
tp1186
a(I1187
I0
I0
F1.0
I0
F0.0
I0
F0.0
I0
F0.0
I1867
I0
I1187
tp1187
a(I1188
I0
I0
F1.0
I0
F0.0
I0
F0.0
I0
F0.0
I1868
I0
I1188
tp1188
a(I1189
I0
I0
F1.0
I0
F0.0
I0
F0.0
I0
F0.0
I1869
I0
I1189
tp1189
a(I1190
I0
I0
F1.0
I0
F0.0
I0
F0.0
I0
F0.0
I1870
I0
I1190
tp1190
a(I1191
I0
I0
F1.0
I0
F0.0
I0
F0.0
I0
F0.0
I1871
I0
I1191
tp1191
a(I1192
I0
I0
F1.0
I0
F0.0
I0
F0.0
I0
F0.0
I1872
I0
I1192
tp1192
a(I1193
I0
I0
F1.0
I0
F0.0
I0
F0.0
I0
F0.0
I1873
I0
I1193
tp1193
a(I1194
I0
I0
F1.0
I0
F0.0
I0
F0.0
I0
F0.0
I1874
I0
I1194
tp1194
a(I1195
I0
I0
F1.0
I0
F0.0
I0
F0.0
I0
F0.0
I1875
I0
I1195
tp1195
a(I1196
I0
I0
F1.0
I0
F0.0
I0
F0.0
I0
F0.0
I1876
I0
I1196
tp1196
a(I1197
I0
I0
F1.0
I0
F0.0
I0
F0.0
I0
F0.0
I1877
I0
I1197
tp1197
a(I1198
I0
I0
F1.0
I0
F0.0
I0
F0.0
I0
F0.0
I1878
I0
I1198
tp1198
a(I1199
I0
I0
F1.0
I0
F0.0
I0
F0.0
I0
F0.0
I1879
I0
I1199
tp1199
a(I1200
I0
I0
F1.0
I0
F0.0
I0
F0.0
I0
F0.0
I1880
I0
I1200
tp1200
a(I1201
I0
I0
F1.0
I0
F0.0
I0
F0.0
I0
F0.0
I1883
I2
I1201
tp1201
a(I1202
I0
I0
F1.0
I0
F0.0
I0
F0.0
I0
F0.0
I1886
I2
I1202
tp1202
a(I1203
I0
I0
F1.0
I0
F0.0
I0
F0.0
I0
F0.0
I1889
I2
I1203
tp1203
a(I1204
I0
I0
F1.0
I0
F0.0
I0
F0.0
I0
F0.0
I1892
I2
I1204
tp1204
a(I1205
I0
I0
F1.0
I0
F0.0
I0
F0.0
I0
F0.0
I1895
I2
I1205
tp1205
a(I1206
I0
I0
F1.0
I0
F0.0
I0
F0.0
I0
F0.0
I1898
I2
I1206
tp1206
a(I1207
I0
I0
F1.0
I0
F0.0
I0
F0.0
I0
F0.0
I1901
I2
I1207
tp1207
a(I1208
I0
I0
F1.0
I0
F0.0
I0
F0.0
I0
F0.0
I1904
I2
I1208
tp1208
a(I1209
I0
I0
F1.0
I0
F0.0
I0
F0.0
I0
F0.0
I1907
I2
I1209
tp1209
a(I1210
I0
I0
F1.0
I0
F0.0
I0
F0.0
I0
F0.0
I1910
I2
I1210
tp1210
a(I1211
I0
I0
F1.0
I0
F0.0
I0
F0.0
I0
F0.0
I1913
I2
I1211
tp1211
a(I1212
I0
I0
F1.0
I0
F0.0
I0
F0.0
I0
F0.0
I1916
I2
I1212
tp1212
a(I1213
I0
I0
F1.0
I0
F0.0
I0
F0.0
I0
F0.0
I1919
I2
I1213
tp1213
a(I1214
I0
I0
F1.0
I0
F0.0
I0
F0.0
I0
F0.0
I1922
I2
I1214
tp1214
a(I1215
I0
I0
F1.0
I0
F0.0
I0
F0.0
I0
F0.0
I1925
I2
I1215
tp1215
a(I1216
I0
I0
F1.0
I0
F0.0
I0
F0.0
I0
F0.0
I1928
I2
I1216
tp1216
a(I1217
I0
I0
F1.0
I0
F0.0
I0
F0.0
I0
F0.0
I1931
I2
I1217
tp1217
a(I1218
I0
I0
F1.0
I0
F0.0
I0
F0.0
I0
F0.0
I1934
I2
I1218
tp1218
a(I1219
I0
I0
F1.0
I0
F0.0
I0
F0.0
I0
F0.0
I1937
I2
I1219
tp1219
a(I1220
I0
I0
F1.0
I0
F0.0
I0
F0.0
I0
F0.0
I1940
I2
I1220
tp1220
a(I1221
I0
I0
F1.0
I0
F1.0
I0
F0.0
I0
F0.0
I1943
I2
I1221
tp1221
a(I1222
I0
I0
F1.0
I0
F1.0
I0
F0.0
I0
F0.0
I1946
I2
I1222
tp1222
a(I1223
I0
I0
F1.0
I0
F1.0
I0
F0.0
I0
F0.0
I1949
I2
I1223
tp1223
a(I1224
I0
I0
F1.0
I0
F1.0
I0
F0.0
I0
F0.0
I1952
I2
I1224
tp1224
a(I1225
I0
I0
F1.0
I0
F1.0
I0
F0.0
I0
F0.0
I1955
I2
I1225
tp1225
a(I1226
I0
I0
F1.0
I0
F1.0
I0
F0.0
I0
F0.0
I1958
I2
I1226
tp1226
a(I1227
I0
I0
F1.0
I0
F1.0
I0
F0.0
I0
F0.0
I1961
I2
I1227
tp1227
a(I1228
I0
I0
F1.0
I0
F1.0
I0
F0.0
I0
F0.0
I1964
I2
I1228
tp1228
a(I1229
I0
I0
F1.0
I0
F1.0
I0
F0.0
I0
F0.0
I1967
I2
I1229
tp1229
a(I1230
I0
I0
F1.0
I0
F1.0
I0
F0.0
I0
F0.0
I1970
I2
I1230
tp1230
a(I1231
I0
I0
F1.0
I0
F1.0
I0
F0.0
I0
F0.0
I1973
I2
I1231
tp1231
a(I1232
I0
I0
F1.0
I0
F1.0
I0
F0.0
I0
F0.0
I1976
I2
I1232
tp1232
a(I1233
I0
I0
F1.0
I0
F1.0
I0
F0.0
I0
F0.0
I1979
I2
I1233
tp1233
a(I1234
I0
I0
F1.0
I0
F1.0
I0
F0.0
I0
F0.0
I1982
I2
I1234
tp1234
a(I1235
I0
I0
F1.0
I0
F1.0
I0
F0.0
I0
F0.0
I1985
I2
I1235
tp1235
a(I1236
I0
I0
F1.0
I0
F1.0
I0
F0.0
I0
F0.0
I1988
I2
I1236
tp1236
a(I1237
I0
I0
F1.0
I0
F1.0
I0
F0.0
I0
F0.0
I1991
I2
I1237
tp1237
a(I1238
I0
I0
F1.0
I0
F1.0
I0
F0.0
I0
F0.0
I1994
I2
I1238
tp1238
a(I1239
I0
I0
F1.0
I0
F1.0
I0
F0.0
I0
F0.0
I1997
I2
I1239
tp1239
a(I1240
I0
I0
F1.0
I0
F1.0
I0
F0.0
I0
F0.0
I2000
I2
I1240
tp1240
a(I1241
I0
I0
F1.0
I0
F1.0
I0
F0.0
I0
F0.0
I2003
I2
I1241
tp1241
a(I1242
I0
I0
F1.0
I0
F1.0
I0
F0.0
I0
F0.0
I2006
I2
I1242
tp1242
a(I1243
I0
I0
F1.0
I0
F1.0
I0
F0.0
I0
F0.0
I2009
I2
I1243
tp1243
a(I1244
I0
I0
F1.0
I0
F1.0
I0
F0.0
I0
F0.0
I2012
I2
I1244
tp1244
a(I1245
I0
I0
F1.0
I0
F1.0
I0
F0.0
I0
F0.0
I2015
I2
I1245
tp1245
a(I1246
I0
I0
F1.0
I0
F1.0
I0
F0.0
I0
F0.0
I2018
I2
I1246
tp1246
a(I1247
I0
I0
F1.0
I0
F1.0
I0
F0.0
I0
F0.0
I2021
I2
I1247
tp1247
a(I1248
I0
I0
F1.0
I0
F1.0
I0
F0.0
I0
F0.0
I2024
I2
I1248
tp1248
a(I1249
I0
I0
F1.0
I0
F1.0
I0
F0.0
I0
F0.0
I2027
I2
I1249
tp1249
a(I1250
I0
I0
F1.0
I0
F1.0
I0
F0.0
I0
F0.0
I2030
I2
I1250
tp1250
a(I1251
I0
I0
F1.0
I0
F1.0
I0
F0.0
I0
F0.0
I2033
I2
I1251
tp1251
a(I1252
I0
I0
F1.0
I0
F1.0
I0
F0.0
I0
F0.0
I2036
I2
I1252
tp1252
a(I1253
I0
I0
F1.0
I0
F1.0
I0
F0.0
I0
F0.0
I2039
I2
I1253
tp1253
a(I1254
I0
I0
F1.0
I0
F1.0
I0
F0.0
I0
F0.0
I2042
I2
I1254
tp1254
a(I1255
I0
I0
F1.0
I0
F1.0
I0
F0.0
I0
F0.0
I2045
I2
I1255
tp1255
a(I1256
I0
I0
F1.0
I0
F1.0
I0
F0.0
I0
F0.0
I2048
I2
I1256
tp1256
a(I1257
I0
I0
F1.0
I0
F1.0
I0
F0.0
I0
F0.0
I2051
I2
I1257
tp1257
a(I1258
I0
I0
F1.0
I0
F1.0
I0
F0.0
I0
F0.0
I2054
I2
I1258
tp1258
a(I1259
I0
I0
F1.0
I0
F1.0
I0
F0.0
I0
F0.0
I2057
I2
I1259
tp1259
a(I1260
I0
I0
F1.0
I0
F1.0
I0
F0.0
I0
F0.0
I2060
I2
I1260
tp1260
a(I1261
I0
I0
F1.0
I0
F1.0
I0
F0.0
I0
F0.0
I2063
I2
I1261
tp1261
a(I1262
I0
I0
F1.0
I0
F1.0
I0
F0.0
I0
F0.0
I2066
I2
I1262
tp1262
a(I1263
I0
I0
F1.0
I0
F1.0
I0
F0.0
I0
F0.0
I2069
I2
I1263
tp1263
a(I1264
I0
I0
F1.0
I0
F1.0
I0
F0.0
I0
F0.0
I2072
I2
I1264
tp1264
a(I1265
I0
I0
F1.0
I0
F1.0
I0
F0.0
I0
F0.0
I2075
I2
I1265
tp1265
a(I1266
I0
I0
F1.0
I0
F1.0
I0
F0.0
I0
F0.0
I2078
I2
I1266
tp1266
a(I1267
I0
I0
F1.0
I0
F1.0
I0
F0.0
I0
F0.0
I2081
I2
I1267
tp1267
a(I1268
I0
I0
F1.0
I0
F1.0
I0
F0.0
I0
F0.0
I2084
I2
I1268
tp1268
a(I1269
I0
I0
F1.0
I0
F1.0
I0
F0.0
I0
F0.0
I2087
I2
I1269
tp1269
a(I1270
I0
I0
F1.0
I0
F1.0
I0
F0.0
I0
F0.0
I2090
I2
I1270
tp1270
a(I1271
I0
I0
F1.0
I0
F1.0
I0
F0.0
I0
F0.0
I2093
I2
I1271
tp1271
a(I1272
I0
I0
F1.0
I0
F1.0
I0
F0.0
I0
F0.0
I2096
I2
I1272
tp1272
a(I1273
I0
I0
F1.0
I0
F1.0
I0
F0.0
I0
F0.0
I2099
I2
I1273
tp1273
a(I1274
I0
I0
F1.0
I0
F1.0
I0
F0.0
I0
F0.0
I2102
I2
I1274
tp1274
a(I1275
I0
I0
F1.0
I0
F1.0
I0
F0.0
I0
F0.0
I2105
I2
I1275
tp1275
a(I1276
I0
I0
F1.0
I0
F1.0
I0
F0.0
I0
F0.0
I2108
I2
I1276
tp1276
a(I1277
I0
I0
F1.0
I0
F1.0
I0
F0.0
I0
F0.0
I2111
I2
I1277
tp1277
a(I1278
I0
I0
F1.0
I0
F1.0
I0
F0.0
I0
F0.0
I2114
I2
I1278
tp1278
a(I1279
I0
I0
F1.0
I0
F1.0
I0
F0.0
I0
F0.0
I2117
I2
I1279
tp1279
a(I1280
I0
I0
F1.0
I0
F1.0
I0
F0.0
I0
F0.0
I2120
I2
I1280
tp1280
a(I1281
I0
I0
F1.0
I0
F1.0
I0
F0.0
I0
F0.0
I2124
I3
I1281
tp1281
a(I1282
I0
I0
F1.0
I0
F1.0
I0
F0.0
I0
F0.0
I2128
I3
I1282
tp1282
a(I1283
I0
I0
F1.0
I0
F1.0
I0
F0.0
I0
F0.0
I2132
I3
I1283
tp1283
a(I1284
I0
I0
F1.0
I0
F1.0
I0
F0.0
I0
F0.0
I2136
I3
I1284
tp1284
a(I1285
I0
I0
F1.0
I0
F1.0
I0
F0.0
I0
F0.0
I2140
I3
I1285
tp1285
a(I1286
I0
I0
F1.0
I0
F1.0
I0
F0.0
I0
F0.0
I2144
I3
I1286
tp1286
a(I1287
I0
I0
F1.0
I0
F1.0
I0
F0.0
I0
F0.0
I2148
I3
I1287
tp1287
a(I1288
I0
I0
F1.0
I0
F1.0
I0
F0.0
I0
F0.0
I2152
I3
I1288
tp1288
a(I1289
I0
I0
F1.0
I0
F1.0
I0
F0.0
I0
F0.0
I2156
I3
I1289
tp1289
a(I1290
I0
I0
F1.0
I0
F1.0
I0
F0.0
I0
F0.0
I2160
I3
I1290
tp1290
a(I1291
I0
I0
F1.0
I0
F1.0
I0
F0.0
I0
F0.0
I2164
I3
I1291
tp1291
a(I1292
I0
I0
F1.0
I0
F1.0
I0
F0.0
I0
F0.0
I2168
I3
I1292
tp1292
a(I1293
I0
I0
F1.0
I0
F1.0
I0
F0.0
I0
F0.0
I2172
I3
I1293
tp1293
a(I1294
I0
I0
F1.0
I0
F1.0
I0
F0.0
I0
F0.0
I2176
I3
I1294
tp1294
a(I1295
I0
I0
F1.0
I0
F1.0
I0
F0.0
I0
F0.0
I2180
I3
I1295
tp1295
a(I1296
I0
I0
F1.0
I0
F1.0
I0
F0.0
I0
F0.0
I2184
I3
I1296
tp1296
a(I1297
I0
I0
F1.0
I0
F1.0
I0
F0.0
I0
F0.0
I2188
I3
I1297
tp1297
a(I1298
I0
I0
F1.0
I0
F1.0
I0
F0.0
I0
F0.0
I2192
I3
I1298
tp1298
a(I1299
I0
I0
F1.0
I0
F1.0
I0
F0.0
I0
F0.0
I2196
I3
I1299
tp1299
a(I1300
I0
I0
F1.0
I0
F1.0
I0
F0.0
I0
F0.0
I2200
I3
I1300
tp1300
a(I1301
I0
I0
F1.0
I0
F1.0
I0
F0.0
I0
F0.0
I2201
I0
I1301
tp1301
a(I1302
I0
I0
F1.0
I0
F1.0
I0
F0.0
I0
F0.0
I2202
I0
I1302
tp1302
a(I1303
I0
I0
F1.0
I0
F1.0
I0
F0.0
I0
F0.0
I2203
I0
I1303
tp1303
a(I1304
I0
I0
F1.0
I0
F1.0
I0
F0.0
I0
F0.0
I2204
I0
I1304
tp1304
a(I1305
I0
I0
F1.0
I0
F1.0
I0
F0.0
I0
F0.0
I2205
I0
I1305
tp1305
a(I1306
I0
I0
F1.0
I0
F1.0
I0
F0.0
I0
F0.0
I2206
I0
I1306
tp1306
a(I1307
I0
I0
F1.0
I0
F1.0
I0
F0.0
I0
F0.0
I2207
I0
I1307
tp1307
a(I1308
I0
I0
F1.0
I0
F1.0
I0
F0.0
I0
F0.0
I2208
I0
I1308
tp1308
a(I1309
I0
I0
F1.0
I0
F1.0
I0
F0.0
I0
F0.0
I2209
I0
I1309
tp1309
a(I1310
I0
I0
F1.0
I0
F1.0
I0
F0.0
I0
F0.0
I2210
I0
I1310
tp1310
a(I1311
I0
I0
F1.0
I0
F1.0
I0
F0.0
I0
F0.0
I2211
I0
I1311
tp1311
a(I1312
I0
I0
F1.0
I0
F1.0
I0
F0.0
I0
F0.0
I2212
I0
I1312
tp1312
a(I1313
I0
I0
F1.0
I0
F1.0
I0
F0.0
I0
F0.0
I2213
I0
I1313
tp1313
a(I1314
I0
I0
F1.0
I0
F1.0
I0
F0.0
I0
F0.0
I2214
I0
I1314
tp1314
a(I1315
I0
I0
F1.0
I0
F1.0
I0
F0.0
I0
F0.0
I2215
I0
I1315
tp1315
a(I1316
I0
I0
F1.0
I0
F1.0
I0
F0.0
I0
F0.0
I2216
I0
I1316
tp1316
a(I1317
I0
I0
F1.0
I0
F1.0
I0
F0.0
I0
F0.0
I2217
I0
I1317
tp1317
a(I1318
I0
I0
F1.0
I0
F1.0
I0
F0.0
I0
F0.0
I2218
I0
I1318
tp1318
a(I1319
I0
I0
F1.0
I0
F1.0
I0
F0.0
I0
F0.0
I2219
I0
I1319
tp1319
a(I1320
I0
I0
F1.0
I0
F1.0
I0
F0.0
I0
F0.0
I2220
I0
I1320
tp1320
a(I1321
I0
I0
F1.0
I0
F1.0
I0
F0.0
I0
F0.0
I2222
I1
I1321
tp1321
a(I1322
I0
I0
F1.0
I0
F1.0
I0
F0.0
I0
F0.0
I2224
I1
I1322
tp1322
a(I1323
I0
I0
F1.0
I0
F1.0
I0
F0.0
I0
F0.0
I2226
I1
I1323
tp1323
a(I1324
I0
I0
F1.0
I0
F1.0
I0
F0.0
I0
F0.0
I2228
I1
I1324
tp1324
a(I1325
I0
I0
F1.0
I0
F1.0
I0
F0.0
I0
F0.0
I2230
I1
I1325
tp1325
a(I1326
I0
I0
F1.0
I0
F1.0
I0
F0.0
I0
F0.0
I2232
I1
I1326
tp1326
a(I1327
I0
I0
F1.0
I0
F1.0
I0
F0.0
I0
F0.0
I2234
I1
I1327
tp1327
a(I1328
I0
I0
F1.0
I0
F1.0
I0
F0.0
I0
F0.0
I2236
I1
I1328
tp1328
a(I1329
I0
I0
F1.0
I0
F1.0
I0
F0.0
I0
F0.0
I2238
I1
I1329
tp1329
a(I1330
I0
I0
F1.0
I0
F1.0
I0
F0.0
I0
F0.0
I2240
I1
I1330
tp1330
a(I1331
I0
I0
F1.0
I0
F1.0
I0
F0.0
I0
F0.0
I2242
I1
I1331
tp1331
a(I1332
I0
I0
F1.0
I0
F1.0
I0
F0.0
I0
F0.0
I2244
I1
I1332
tp1332
a(I1333
I0
I0
F1.0
I0
F1.0
I0
F0.0
I0
F0.0
I2246
I1
I1333
tp1333
a(I1334
I0
I0
F1.0
I0
F1.0
I0
F0.0
I0
F0.0
I2248
I1
I1334
tp1334
a(I1335
I0
I0
F1.0
I0
F1.0
I0
F0.0
I0
F0.0
I2250
I1
I1335
tp1335
a(I1336
I0
I0
F1.0
I0
F1.0
I0
F0.0
I0
F0.0
I2252
I1
I1336
tp1336
a(I1337
I0
I0
F1.0
I0
F1.0
I0
F0.0
I0
F0.0
I2254
I1
I1337
tp1337
a(I1338
I0
I0
F1.0
I0
F1.0
I0
F0.0
I0
F0.0
I2256
I1
I1338
tp1338
a(I1339
I0
I0
F1.0
I0
F1.0
I0
F0.0
I0
F0.0
I2258
I1
I1339
tp1339
a(I1340
I0
I0
F1.0
I0
F1.0
I0
F0.0
I0
F0.0
I2260
I1
I1340
tp1340
a(I1341
I0
I0
F1.0
I0
F1.0
I0
F0.0
I0
F0.0
I2262
I1
I1341
tp1341
a(I1342
I0
I0
F1.0
I0
F1.0
I0
F0.0
I0
F0.0
I2264
I1
I1342
tp1342
a(I1343
I0
I0
F1.0
I0
F1.0
I0
F0.0
I0
F0.0
I2266
I1
I1343
tp1343
a(I1344
I0
I0
F1.0
I0
F1.0
I0
F0.0
I0
F0.0
I2268
I1
I1344
tp1344
a(I1345
I0
I0
F1.0
I0
F1.0
I0
F0.0
I0
F0.0
I2270
I1
I1345
tp1345
a(I1346
I0
I0
F1.0
I0
F1.0
I0
F0.0
I0
F0.0
I2272
I1
I1346
tp1346
a(I1347
I0
I0
F1.0
I0
F1.0
I0
F0.0
I0
F0.0
I2274
I1
I1347
tp1347
a(I1348
I0
I0
F1.0
I0
F1.0
I0
F0.0
I0
F0.0
I2276
I1
I1348
tp1348
a(I1349
I0
I0
F1.0
I0
F1.0
I0
F0.0
I0
F0.0
I2278
I1
I1349
tp1349
a(I1350
I0
I0
F1.0
I0
F1.0
I0
F0.0
I0
F0.0
I2280
I1
I1350
tp1350
a(I1351
I0
I0
F1.0
I0
F1.0
I0
F0.0
I0
F0.0
I2282
I1
I1351
tp1351
a(I1352
I0
I0
F1.0
I0
F1.0
I0
F0.0
I0
F0.0
I2284
I1
I1352
tp1352
a(I1353
I0
I0
F1.0
I0
F1.0
I0
F0.0
I0
F0.0
I2286
I1
I1353
tp1353
a(I1354
I0
I0
F1.0
I0
F1.0
I0
F0.0
I0
F0.0
I2288
I1
I1354
tp1354
a(I1355
I0
I0
F1.0
I0
F1.0
I0
F0.0
I0
F0.0
I2290
I1
I1355
tp1355
a(I1356
I0
I0
F1.0
I0
F1.0
I0
F0.0
I0
F0.0
I2292
I1
I1356
tp1356
a(I1357
I0
I0
F1.0
I0
F1.0
I0
F0.0
I0
F0.0
I2294
I1
I1357
tp1357
a(I1358
I0
I0
F1.0
I0
F1.0
I0
F0.0
I0
F0.0
I2296
I1
I1358
tp1358
a(I1359
I0
I0
F1.0
I0
F1.0
I0
F0.0
I0
F0.0
I2298
I1
I1359
tp1359
a(I1360
I0
I0
F1.0
I0
F1.0
I0
F0.0
I0
F0.0
I2300
I1
I1360
tp1360
a(I1361
I0
I0
F1.0
I0
F1.0
I0
F0.0
I0
F0.0
I2303
I2
I1361
tp1361
a(I1362
I0
I0
F1.0
I0
F1.0
I0
F0.0
I0
F0.0
I2306
I2
I1362
tp1362
a(I1363
I0
I0
F1.0
I0
F1.0
I0
F0.0
I0
F0.0
I2309
I2
I1363
tp1363
a(I1364
I0
I0
F1.0
I0
F1.0
I0
F0.0
I0
F0.0
I2312
I2
I1364
tp1364
a(I1365
I0
I0
F1.0
I0
F1.0
I0
F0.0
I0
F0.0
I2315
I2
I1365
tp1365
a(I1366
I0
I0
F1.0
I0
F1.0
I0
F0.0
I0
F0.0
I2318
I2
I1366
tp1366
a(I1367
I0
I0
F1.0
I0
F1.0
I0
F0.0
I0
F0.0
I2321
I2
I1367
tp1367
a(I1368
I0
I0
F1.0
I0
F1.0
I0
F0.0
I0
F0.0
I2324
I2
I1368
tp1368
a(I1369
I0
I0
F1.0
I0
F1.0
I0
F0.0
I0
F0.0
I2327
I2
I1369
tp1369
a(I1370
I0
I0
F1.0
I0
F1.0
I0
F0.0
I0
F0.0
I2330
I2
I1370
tp1370
a(I1371
I0
I0
F1.0
I0
F1.0
I0
F0.0
I0
F0.0
I2333
I2
I1371
tp1371
a(I1372
I0
I0
F1.0
I0
F1.0
I0
F0.0
I0
F0.0
I2336
I2
I1372
tp1372
a(I1373
I0
I0
F1.0
I0
F1.0
I0
F0.0
I0
F0.0
I2339
I2
I1373
tp1373
a(I1374
I0
I0
F1.0
I0
F1.0
I0
F0.0
I0
F0.0
I2342
I2
I1374
tp1374
a(I1375
I0
I0
F1.0
I0
F1.0
I0
F0.0
I0
F0.0
I2345
I2
I1375
tp1375
a(I1376
I0
I0
F1.0
I0
F1.0
I0
F0.0
I0
F0.0
I2348
I2
I1376
tp1376
a(I1377
I0
I0
F1.0
I0
F1.0
I0
F0.0
I0
F0.0
I2351
I2
I1377
tp1377
a(I1378
I0
I0
F1.0
I0
F1.0
I0
F0.0
I0
F0.0
I2354
I2
I1378
tp1378
a(I1379
I0
I0
F1.0
I0
F1.0
I0
F0.0
I0
F0.0
I2357
I2
I1379
tp1379
a(I1380
I0
I0
F1.0
I0
F1.0
I0
F0.0
I0
F0.0
I2360
I2
I1380
tp1380
a(I1381
I0
I0
F1.0
I0
F1.0
I0
F0.0
I0
F0.0
I2364
I3
I1381
tp1381
a(I1382
I0
I0
F1.0
I0
F1.0
I0
F0.0
I0
F0.0
I2368
I3
I1382
tp1382
a(I1383
I0
I0
F1.0
I0
F1.0
I0
F0.0
I0
F0.0
I2372
I3
I1383
tp1383
a(I1384
I0
I0
F1.0
I0
F1.0
I0
F0.0
I0
F0.0
I2376
I3
I1384
tp1384
a(I1385
I0
I0
F1.0
I0
F1.0
I0
F0.0
I0
F0.0
I2380
I3
I1385
tp1385
a(I1386
I0
I0
F1.0
I0
F1.0
I0
F0.0
I0
F0.0
I2384
I3
I1386
tp1386
a(I1387
I0
I0
F1.0
I0
F1.0
I0
F0.0
I0
F0.0
I2388
I3
I1387
tp1387
a(I1388
I0
I0
F1.0
I0
F1.0
I0
F0.0
I0
F0.0
I2392
I3
I1388
tp1388
a(I1389
I0
I0
F1.0
I0
F1.0
I0
F0.0
I0
F0.0
I2396
I3
I1389
tp1389
a(I1390
I0
I0
F1.0
I0
F1.0
I0
F0.0
I0
F0.0
I2400
I3
I1390
tp1390
a(I1391
I0
I0
F1.0
I0
F1.0
I0
F0.0
I0
F0.0
I2404
I3
I1391
tp1391
a(I1392
I0
I0
F1.0
I0
F1.0
I0
F0.0
I0
F0.0
I2408
I3
I1392
tp1392
a(I1393
I0
I0
F1.0
I0
F1.0
I0
F0.0
I0
F0.0
I2412
I3
I1393
tp1393
a(I1394
I0
I0
F1.0
I0
F1.0
I0
F0.0
I0
F0.0
I2416
I3
I1394
tp1394
a(I1395
I0
I0
F1.0
I0
F1.0
I0
F0.0
I0
F0.0
I2420
I3
I1395
tp1395
a(I1396
I0
I0
F1.0
I0
F1.0
I0
F0.0
I0
F0.0
I2424
I3
I1396
tp1396
a(I1397
I0
I0
F1.0
I0
F1.0
I0
F0.0
I0
F0.0
I2428
I3
I1397
tp1397
a(I1398
I0
I0
F1.0
I0
F1.0
I0
F0.0
I0
F0.0
I2432
I3
I1398
tp1398
a(I1399
I0
I0
F1.0
I0
F1.0
I0
F0.0
I0
F0.0
I2436
I3
I1399
tp1399
a(I1400
I0
I0
F1.0
I0
F1.0
I0
F0.0
I0
F0.0
I2440
I3
I1400
tp1400
a.